
D:/akshati_laptop/cornell/2023-24/sem1/ece4760/Pico/FinalProject/build/Stickman_Ninja/imu_project.elf:     file format elf32-littlearm

Sections:
Idx Name          Size      VMA       LMA       File off  Algn
  0 .boot2        00000100  10000000  10000000  00001000  2**0
                  CONTENTS, ALLOC, LOAD, READONLY, CODE
  1 .text         00007eb0  10000100  10000100  00001100  2**3
                  CONTENTS, ALLOC, LOAD, READONLY, CODE
  2 .rodata       00000a08  10007fb0  10007fb0  00008fb0  2**3
                  CONTENTS, ALLOC, LOAD, READONLY, DATA
  3 .binary_info  00000028  100089b8  100089b8  000099b8  2**2
                  CONTENTS, ALLOC, LOAD, READONLY, DATA
  4 .ram_vector_table 000000c0  20000000  20000000  0000b000  2**2
                  ALLOC
  5 .data         000001d0  200000c0  100089e0  0000a0c0  2**4
                  CONTENTS, ALLOC, LOAD, READONLY, CODE
  6 .uninitialized_data 0000000c  20000290  10008bb0  0000a290  2**2
                  ALLOC
  7 .scratch_x    00000000  20040000  20040000  0000a290  2**0
                  CONTENTS
  8 .scratch_y    00000000  20041000  20041000  0000a290  2**0
                  CONTENTS
  9 .bss          00025f1c  200002a0  200002a0  0000b000  2**3
                  ALLOC
 10 .heap         00000800  200261bc  200261bc  0000a290  2**2
                  CONTENTS, READONLY
 11 .stack1_dummy 00000800  20040000  20040000  0000b000  2**2
                  ALLOC
 12 .stack_dummy  00000800  20041000  20041000  0000aaa0  2**5
                  CONTENTS, READONLY
 13 .ARM.attributes 00000028  00000000  00000000  0000b2a0  2**0
                  CONTENTS, READONLY
 14 .comment      00000045  00000000  00000000  0000b2c8  2**0
                  CONTENTS, READONLY
 15 .debug_line_str 000000c9  00000000  00000000  0000b30d  2**0
                  CONTENTS, READONLY, DEBUGGING, OCTETS
 16 .debug_frame  00000028  00000000  00000000  0000b3d8  2**2
                  CONTENTS, READONLY, DEBUGGING, OCTETS

D:/akshati_laptop/cornell/2023-24/sem1/ece4760/Pico/FinalProject/build/Stickman_Ninja/imu_project.elf:     file format elf32-littlearm


Disassembly of section .boot2:

10000000 <__boot2_start__>:
10000000:	4b32b500 	.word	0x4b32b500
10000004:	60582021 	.word	0x60582021
10000008:	21026898 	.word	0x21026898
1000000c:	60984388 	.word	0x60984388
10000010:	611860d8 	.word	0x611860d8
10000014:	4b2e6158 	.word	0x4b2e6158
10000018:	60992100 	.word	0x60992100
1000001c:	61592102 	.word	0x61592102
10000020:	22f02101 	.word	0x22f02101
10000024:	492b5099 	.word	0x492b5099
10000028:	21016019 	.word	0x21016019
1000002c:	20356099 	.word	0x20356099
10000030:	f844f000 	.word	0xf844f000
10000034:	42902202 	.word	0x42902202
10000038:	2106d014 	.word	0x2106d014
1000003c:	f0006619 	.word	0xf0006619
10000040:	6e19f834 	.word	0x6e19f834
10000044:	66192101 	.word	0x66192101
10000048:	66182000 	.word	0x66182000
1000004c:	f000661a 	.word	0xf000661a
10000050:	6e19f82c 	.word	0x6e19f82c
10000054:	6e196e19 	.word	0x6e196e19
10000058:	f0002005 	.word	0xf0002005
1000005c:	2101f82f 	.word	0x2101f82f
10000060:	d1f94208 	.word	0xd1f94208
10000064:	60992100 	.word	0x60992100
10000068:	6019491b 	.word	0x6019491b
1000006c:	60592100 	.word	0x60592100
10000070:	481b491a 	.word	0x481b491a
10000074:	21016001 	.word	0x21016001
10000078:	21eb6099 	.word	0x21eb6099
1000007c:	21a06619 	.word	0x21a06619
10000080:	f0006619 	.word	0xf0006619
10000084:	2100f812 	.word	0x2100f812
10000088:	49166099 	.word	0x49166099
1000008c:	60014814 	.word	0x60014814
10000090:	60992101 	.word	0x60992101
10000094:	2800bc01 	.word	0x2800bc01
10000098:	4700d000 	.word	0x4700d000
1000009c:	49134812 	.word	0x49134812
100000a0:	c8036008 	.word	0xc8036008
100000a4:	8808f380 	.word	0x8808f380
100000a8:	b5034708 	.word	0xb5034708
100000ac:	20046a99 	.word	0x20046a99
100000b0:	d0fb4201 	.word	0xd0fb4201
100000b4:	42012001 	.word	0x42012001
100000b8:	bd03d1f8 	.word	0xbd03d1f8
100000bc:	6618b502 	.word	0x6618b502
100000c0:	f7ff6618 	.word	0xf7ff6618
100000c4:	6e18fff2 	.word	0x6e18fff2
100000c8:	bd026e18 	.word	0xbd026e18
100000cc:	40020000 	.word	0x40020000
100000d0:	18000000 	.word	0x18000000
100000d4:	00070000 	.word	0x00070000
100000d8:	005f0300 	.word	0x005f0300
100000dc:	00002221 	.word	0x00002221
100000e0:	180000f4 	.word	0x180000f4
100000e4:	a0002022 	.word	0xa0002022
100000e8:	10000100 	.word	0x10000100
100000ec:	e000ed08 	.word	0xe000ed08
	...
100000fc:	7a4eb274 	.word	0x7a4eb274

Disassembly of section .text:

10000100 <__VECTOR_TABLE>:
10000100:	20042000 	.word	0x20042000
10000104:	100001f7 	.word	0x100001f7
10000108:	100001c3 	.word	0x100001c3
1000010c:	100001c5 	.word	0x100001c5
10000110:	100001c1 	.word	0x100001c1
10000114:	100001c1 	.word	0x100001c1
10000118:	100001c1 	.word	0x100001c1
1000011c:	100001c1 	.word	0x100001c1
10000120:	100001c1 	.word	0x100001c1
10000124:	100001c1 	.word	0x100001c1
10000128:	100001c1 	.word	0x100001c1
1000012c:	100001c7 	.word	0x100001c7
10000130:	100001c1 	.word	0x100001c1
10000134:	100001c1 	.word	0x100001c1
10000138:	100001c9 	.word	0x100001c9
1000013c:	100001cb 	.word	0x100001cb
10000140:	100001cd 	.word	0x100001cd
10000144:	100001cd 	.word	0x100001cd
10000148:	100001cd 	.word	0x100001cd
1000014c:	100001cd 	.word	0x100001cd
10000150:	100001cd 	.word	0x100001cd
10000154:	100001cd 	.word	0x100001cd
10000158:	100001cd 	.word	0x100001cd
1000015c:	100001cd 	.word	0x100001cd
10000160:	100001cd 	.word	0x100001cd
10000164:	100001cd 	.word	0x100001cd
10000168:	100001cd 	.word	0x100001cd
1000016c:	100001cd 	.word	0x100001cd
10000170:	100001cd 	.word	0x100001cd
10000174:	100001cd 	.word	0x100001cd
10000178:	100001cd 	.word	0x100001cd
1000017c:	100001cd 	.word	0x100001cd
10000180:	100001cd 	.word	0x100001cd
10000184:	100001cd 	.word	0x100001cd
10000188:	100001cd 	.word	0x100001cd
1000018c:	100001cd 	.word	0x100001cd
10000190:	100001cd 	.word	0x100001cd
10000194:	100001cd 	.word	0x100001cd
10000198:	100001cd 	.word	0x100001cd
1000019c:	100001cd 	.word	0x100001cd
100001a0:	100001cd 	.word	0x100001cd
100001a4:	100001cd 	.word	0x100001cd
100001a8:	100001cd 	.word	0x100001cd
100001ac:	100001cd 	.word	0x100001cd
100001b0:	100001cd 	.word	0x100001cd
100001b4:	100001cd 	.word	0x100001cd
100001b8:	100001cd 	.word	0x100001cd
100001bc:	100001cd 	.word	0x100001cd

100001c0 <isr_invalid>:
100001c0:	be00      	bkpt	0x0000

100001c2 <isr_nmi>:
100001c2:	be00      	bkpt	0x0000

100001c4 <isr_hardfault>:
100001c4:	be00      	bkpt	0x0000

100001c6 <isr_svcall>:
100001c6:	be00      	bkpt	0x0000

100001c8 <isr_pendsv>:
100001c8:	be00      	bkpt	0x0000

100001ca <isr_systick>:
100001ca:	be00      	bkpt	0x0000

100001cc <__unhandled_user_irq>:
100001cc:	f3ef 8005 	mrs	r0, IPSR
100001d0:	3810      	subs	r0, #16

100001d2 <unhandled_user_irq_num_in_r0>:
100001d2:	be00      	bkpt	0x0000

100001d4 <binary_info_header>:
100001d4:	7188ebf2 	.word	0x7188ebf2
100001d8:	100089b8 	.word	0x100089b8
100001dc:	100089e0 	.word	0x100089e0
100001e0:	10000234 	.word	0x10000234
100001e4:	e71aa390 	.word	0xe71aa390

100001e8 <_entry_point>:
100001e8:	2000      	movs	r0, #0
100001ea:	491f      	ldr	r1, [pc, #124]	@ (10000268 <hold_non_core0_in_bootrom+0xa>)
100001ec:	6008      	str	r0, [r1, #0]
100001ee:	c806      	ldmia	r0!, {r1, r2}
100001f0:	f381 8808 	msr	MSP, r1
100001f4:	4710      	bx	r2

100001f6 <_reset_handler>:
100001f6:	481d      	ldr	r0, [pc, #116]	@ (1000026c <hold_non_core0_in_bootrom+0xe>)
100001f8:	6800      	ldr	r0, [r0, #0]
100001fa:	2800      	cmp	r0, #0
100001fc:	d12f      	bne.n	1000025e <hold_non_core0_in_bootrom>
100001fe:	a40d      	add	r4, pc, #52	@ (adr r4, 10000234 <data_cpy_table>)
10000200:	cc0e      	ldmia	r4!, {r1, r2, r3}
10000202:	2900      	cmp	r1, #0
10000204:	d002      	beq.n	1000020c <_reset_handler+0x16>
10000206:	f000 f812 	bl	1000022e <data_cpy>
1000020a:	e7f9      	b.n	10000200 <_reset_handler+0xa>
1000020c:	4918      	ldr	r1, [pc, #96]	@ (10000270 <hold_non_core0_in_bootrom+0x12>)
1000020e:	4a19      	ldr	r2, [pc, #100]	@ (10000274 <hold_non_core0_in_bootrom+0x16>)
10000210:	2000      	movs	r0, #0
10000212:	e000      	b.n	10000216 <bss_fill_test>

10000214 <bss_fill_loop>:
10000214:	c101      	stmia	r1!, {r0}

10000216 <bss_fill_test>:
10000216:	4291      	cmp	r1, r2
10000218:	d1fc      	bne.n	10000214 <bss_fill_loop>

1000021a <platform_entry>:
1000021a:	4917      	ldr	r1, [pc, #92]	@ (10000278 <hold_non_core0_in_bootrom+0x1a>)
1000021c:	4788      	blx	r1
1000021e:	4917      	ldr	r1, [pc, #92]	@ (1000027c <hold_non_core0_in_bootrom+0x1e>)
10000220:	4788      	blx	r1
10000222:	4917      	ldr	r1, [pc, #92]	@ (10000280 <hold_non_core0_in_bootrom+0x22>)
10000224:	4788      	blx	r1
10000226:	be00      	bkpt	0x0000
10000228:	e7fd      	b.n	10000226 <platform_entry+0xc>

1000022a <data_cpy_loop>:
1000022a:	c901      	ldmia	r1!, {r0}
1000022c:	c201      	stmia	r2!, {r0}

1000022e <data_cpy>:
1000022e:	429a      	cmp	r2, r3
10000230:	d3fb      	bcc.n	1000022a <data_cpy_loop>
10000232:	4770      	bx	lr

10000234 <data_cpy_table>:
10000234:	100089e0 	.word	0x100089e0
10000238:	200000c0 	.word	0x200000c0
1000023c:	20000290 	.word	0x20000290
10000240:	10008bb0 	.word	0x10008bb0
10000244:	20040000 	.word	0x20040000
10000248:	20040000 	.word	0x20040000
1000024c:	10008bb0 	.word	0x10008bb0
10000250:	20041000 	.word	0x20041000
10000254:	20041000 	.word	0x20041000
10000258:	00000000 	.word	0x00000000
1000025c:	4770      	bx	lr

1000025e <hold_non_core0_in_bootrom>:
1000025e:	4809      	ldr	r0, [pc, #36]	@ (10000284 <hold_non_core0_in_bootrom+0x26>)
10000260:	f005 ff44 	bl	100060ec <rom_func_lookup>
10000264:	4700      	bx	r0
10000266:	0000      	.short	0x0000
10000268:	e000ed08 	.word	0xe000ed08
1000026c:	d0000000 	.word	0xd0000000
10000270:	200002a0 	.word	0x200002a0
10000274:	200261bc 	.word	0x200261bc
10000278:	10004859 	.word	0x10004859
1000027c:	10001c15 	.word	0x10001c15
10000280:	10004949 	.word	0x10004949
10000284:	00005657 	.word	0x00005657

10000288 <__bi_50>:
10000288:	50520006 5360b3ab 100088f0              ..RP..`S....

10000294 <__bi_38>:
10000294:	50520006 02031c86 10008900              ..RP........

100002a0 <__bi_30>:
100002a0:	50520006 9da22254 1000890c              ..RPT"......

100002ac <__bi_22>:
100002ac:	50520005 68f465de 10008bb0              ..RP.e.h....

100002b8 <_init>:
100002b8:	b5f8      	push	{r3, r4, r5, r6, r7, lr}
100002ba:	46c0      	nop			@ (mov r8, r8)

100002bc <register_tm_clones>:
100002bc:	4806      	ldr	r0, [pc, #24]	@ (100002d8 <register_tm_clones+0x1c>)
100002be:	4907      	ldr	r1, [pc, #28]	@ (100002dc <register_tm_clones+0x20>)
100002c0:	1a09      	subs	r1, r1, r0
100002c2:	108b      	asrs	r3, r1, #2
100002c4:	0fc9      	lsrs	r1, r1, #31
100002c6:	18c9      	adds	r1, r1, r3
100002c8:	b510      	push	{r4, lr}
100002ca:	1049      	asrs	r1, r1, #1
100002cc:	d003      	beq.n	100002d6 <register_tm_clones+0x1a>
100002ce:	4b04      	ldr	r3, [pc, #16]	@ (100002e0 <register_tm_clones+0x24>)
100002d0:	2b00      	cmp	r3, #0
100002d2:	d000      	beq.n	100002d6 <register_tm_clones+0x1a>
100002d4:	4798      	blx	r3
100002d6:	bd10      	pop	{r4, pc}
100002d8:	20000290 	.word	0x20000290
100002dc:	20000290 	.word	0x20000290
100002e0:	00000000 	.word	0x00000000

100002e4 <frame_dummy>:
100002e4:	4b05      	ldr	r3, [pc, #20]	@ (100002fc <frame_dummy+0x18>)
100002e6:	b510      	push	{r4, lr}
100002e8:	2b00      	cmp	r3, #0
100002ea:	d003      	beq.n	100002f4 <frame_dummy+0x10>
100002ec:	4904      	ldr	r1, [pc, #16]	@ (10000300 <frame_dummy+0x1c>)
100002ee:	4805      	ldr	r0, [pc, #20]	@ (10000304 <frame_dummy+0x20>)
100002f0:	e000      	b.n	100002f4 <frame_dummy+0x10>
100002f2:	bf00      	nop
100002f4:	f7ff ffe2 	bl	100002bc <register_tm_clones>
100002f8:	bd10      	pop	{r4, pc}
100002fa:	46c0      	nop			@ (mov r8, r8)
100002fc:	00000000 	.word	0x00000000
10000300:	20000748 	.word	0x20000748
10000304:	10007fb0 	.word	0x10007fb0

10000308 <sensor_irq>:
10000308:	b5f8      	push	{r3, r4, r5, r6, r7, lr}
1000030a:	2104      	movs	r1, #4
1000030c:	46de      	mov	lr, fp
1000030e:	4657      	mov	r7, sl
10000310:	464e      	mov	r6, r9
10000312:	4645      	mov	r5, r8
10000314:	23a4      	movs	r3, #164	@ 0xa4
10000316:	4adf      	ldr	r2, [pc, #892]	@ (10000694 <sensor_irq+0x38c>)
10000318:	b5e0      	push	{r5, r6, r7, lr}
1000031a:	4fdf      	ldr	r7, [pc, #892]	@ (10000698 <sensor_irq+0x390>)
1000031c:	50d1      	str	r1, [r2, r3]
1000031e:	4bdf      	ldr	r3, [pc, #892]	@ (1000069c <sensor_irq+0x394>)
10000320:	0039      	movs	r1, r7
10000322:	0018      	movs	r0, r3
10000324:	4698      	mov	r8, r3
10000326:	f002 fe1b 	bl	10002f60 <mpu6050_read_raw0>
1000032a:	4add      	ldr	r2, [pc, #884]	@ (100006a0 <sensor_irq+0x398>)
1000032c:	4bdd      	ldr	r3, [pc, #884]	@ (100006a4 <sensor_irq+0x39c>)
1000032e:	0011      	movs	r1, r2
10000330:	0018      	movs	r0, r3
10000332:	4691      	mov	r9, r2
10000334:	469b      	mov	fp, r3
10000336:	f002 febd 	bl	100030b4 <mpu6050_read_raw1>
1000033a:	218f      	movs	r1, #143	@ 0x8f
1000033c:	4cda      	ldr	r4, [pc, #872]	@ (100006a8 <sensor_irq+0x3a0>)
1000033e:	05c9      	lsls	r1, r1, #23
10000340:	6825      	ldr	r5, [r4, #0]
10000342:	1c28      	adds	r0, r5, #0
10000344:	f006 ffe1 	bl	1000730a <__wrap___aeabi_fmul>
10000348:	f007 f808 	bl	1000735c <__wrap___aeabi_f2iz>
1000034c:	4643      	mov	r3, r8
1000034e:	681b      	ldr	r3, [r3, #0]
10000350:	1a18      	subs	r0, r3, r0
10000352:	1180      	asrs	r0, r0, #6
10000354:	f006 ffe0 	bl	10007318 <__wrap___aeabi_i2f>
10000358:	21de      	movs	r1, #222	@ 0xde
1000035a:	0589      	lsls	r1, r1, #22
1000035c:	f006 ffd5 	bl	1000730a <__wrap___aeabi_fmul>
10000360:	1c29      	adds	r1, r5, #0
10000362:	f006 ffbb 	bl	100072dc <__wrap___aeabi_fadd>
10000366:	218f      	movs	r1, #143	@ 0x8f
10000368:	4dd0      	ldr	r5, [pc, #832]	@ (100006ac <sensor_irq+0x3a4>)
1000036a:	6020      	str	r0, [r4, #0]
1000036c:	682c      	ldr	r4, [r5, #0]
1000036e:	05c9      	lsls	r1, r1, #23
10000370:	1c06      	adds	r6, r0, #0
10000372:	1c20      	adds	r0, r4, #0
10000374:	f006 ffc9 	bl	1000730a <__wrap___aeabi_fmul>
10000378:	f006 fff0 	bl	1000735c <__wrap___aeabi_f2iz>
1000037c:	4643      	mov	r3, r8
1000037e:	685b      	ldr	r3, [r3, #4]
10000380:	1a18      	subs	r0, r3, r0
10000382:	1180      	asrs	r0, r0, #6
10000384:	f006 ffc8 	bl	10007318 <__wrap___aeabi_i2f>
10000388:	21de      	movs	r1, #222	@ 0xde
1000038a:	0589      	lsls	r1, r1, #22
1000038c:	f006 ffbd 	bl	1000730a <__wrap___aeabi_fmul>
10000390:	1c21      	adds	r1, r4, #0
10000392:	f006 ffa3 	bl	100072dc <__wrap___aeabi_fadd>
10000396:	218f      	movs	r1, #143	@ 0x8f
10000398:	6028      	str	r0, [r5, #0]
1000039a:	4dc5      	ldr	r5, [pc, #788]	@ (100006b0 <sensor_irq+0x3a8>)
1000039c:	05c9      	lsls	r1, r1, #23
1000039e:	682b      	ldr	r3, [r5, #0]
100003a0:	1c04      	adds	r4, r0, #0
100003a2:	1c18      	adds	r0, r3, #0
100003a4:	4698      	mov	r8, r3
100003a6:	f006 ffb0 	bl	1000730a <__wrap___aeabi_fmul>
100003aa:	f006 ffd7 	bl	1000735c <__wrap___aeabi_f2iz>
100003ae:	465b      	mov	r3, fp
100003b0:	681b      	ldr	r3, [r3, #0]
100003b2:	1a18      	subs	r0, r3, r0
100003b4:	1180      	asrs	r0, r0, #6
100003b6:	f006 ffaf 	bl	10007318 <__wrap___aeabi_i2f>
100003ba:	21de      	movs	r1, #222	@ 0xde
100003bc:	0589      	lsls	r1, r1, #22
100003be:	f006 ffa4 	bl	1000730a <__wrap___aeabi_fmul>
100003c2:	4641      	mov	r1, r8
100003c4:	f006 ff8a 	bl	100072dc <__wrap___aeabi_fadd>
100003c8:	218f      	movs	r1, #143	@ 0x8f
100003ca:	6028      	str	r0, [r5, #0]
100003cc:	4db9      	ldr	r5, [pc, #740]	@ (100006b4 <sensor_irq+0x3ac>)
100003ce:	05c9      	lsls	r1, r1, #23
100003d0:	682b      	ldr	r3, [r5, #0]
100003d2:	4682      	mov	sl, r0
100003d4:	1c18      	adds	r0, r3, #0
100003d6:	4698      	mov	r8, r3
100003d8:	f006 ff97 	bl	1000730a <__wrap___aeabi_fmul>
100003dc:	f006 ffbe 	bl	1000735c <__wrap___aeabi_f2iz>
100003e0:	465b      	mov	r3, fp
100003e2:	685b      	ldr	r3, [r3, #4]
100003e4:	1a18      	subs	r0, r3, r0
100003e6:	1180      	asrs	r0, r0, #6
100003e8:	f006 ff96 	bl	10007318 <__wrap___aeabi_i2f>
100003ec:	21de      	movs	r1, #222	@ 0xde
100003ee:	0589      	lsls	r1, r1, #22
100003f0:	f006 ff8b 	bl	1000730a <__wrap___aeabi_fmul>
100003f4:	4641      	mov	r1, r8
100003f6:	f006 ff71 	bl	100072dc <__wrap___aeabi_fadd>
100003fa:	2380      	movs	r3, #128	@ 0x80
100003fc:	061b      	lsls	r3, r3, #24
100003fe:	6028      	str	r0, [r5, #0]
10000400:	4680      	mov	r8, r0
10000402:	18e0      	adds	r0, r4, r3
10000404:	f006 ffe2 	bl	100073cc <__wrap___aeabi_f2d>
10000408:	2380      	movs	r3, #128	@ 0x80
1000040a:	0004      	movs	r4, r0
1000040c:	000d      	movs	r5, r1
1000040e:	061b      	lsls	r3, r3, #24
10000410:	18f0      	adds	r0, r6, r3
10000412:	f006 ffdb 	bl	100073cc <__wrap___aeabi_f2d>
10000416:	0022      	movs	r2, r4
10000418:	002b      	movs	r3, r5
1000041a:	f006 f9e9 	bl	100067f0 <__wrap_atan2>
1000041e:	2200      	movs	r2, #0
10000420:	4ba5      	ldr	r3, [pc, #660]	@ (100006b8 <sensor_irq+0x3b0>)
10000422:	f006 f934 	bl	1000668e <__wrap___aeabi_dmul>
10000426:	f006 f9b3 	bl	10006790 <__wrap___aeabi_d2iz>
1000042a:	2300      	movs	r3, #0
1000042c:	4aa3      	ldr	r2, [pc, #652]	@ (100006bc <sensor_irq+0x3b4>)
1000042e:	17c1      	asrs	r1, r0, #31
10000430:	f006 ff34 	bl	1000729c <__wrap___aeabi_lmul>
10000434:	0409      	lsls	r1, r1, #16
10000436:	0c00      	lsrs	r0, r0, #16
10000438:	4308      	orrs	r0, r1
1000043a:	68b9      	ldr	r1, [r7, #8]
1000043c:	4ba0      	ldr	r3, [pc, #640]	@ (100006c0 <sensor_irq+0x3b8>)
1000043e:	000c      	movs	r4, r1
10000440:	17c9      	asrs	r1, r1, #31
10000442:	000d      	movs	r5, r1
10000444:	6018      	str	r0, [r3, #0]
10000446:	0ea6      	lsrs	r6, r4, #26
10000448:	018b      	lsls	r3, r1, #6
1000044a:	4333      	orrs	r3, r6
1000044c:	01a2      	lsls	r2, r4, #6
1000044e:	1912      	adds	r2, r2, r4
10000450:	416b      	adcs	r3, r5
10000452:	0011      	movs	r1, r2
10000454:	041b      	lsls	r3, r3, #16
10000456:	0c0a      	lsrs	r2, r1, #16
10000458:	431a      	orrs	r2, r3
1000045a:	4b9a      	ldr	r3, [pc, #616]	@ (100006c4 <sensor_irq+0x3bc>)
1000045c:	601a      	str	r2, [r3, #0]
1000045e:	4b9a      	ldr	r3, [pc, #616]	@ (100006c8 <sensor_irq+0x3c0>)
10000460:	469b      	mov	fp, r3
10000462:	681b      	ldr	r3, [r3, #0]
10000464:	18d2      	adds	r2, r2, r3
10000466:	0016      	movs	r6, r2
10000468:	17d2      	asrs	r2, r2, #31
1000046a:	0017      	movs	r7, r2
1000046c:	0db3      	lsrs	r3, r6, #22
1000046e:	0295      	lsls	r5, r2, #10
10000470:	431d      	orrs	r5, r3
10000472:	02b4      	lsls	r4, r6, #10
10000474:	1ba4      	subs	r4, r4, r6
10000476:	41bd      	sbcs	r5, r7
10000478:	0ee3      	lsrs	r3, r4, #27
1000047a:	469c      	mov	ip, r3
1000047c:	4661      	mov	r1, ip
1000047e:	016b      	lsls	r3, r5, #5
10000480:	430b      	orrs	r3, r1
10000482:	0162      	lsls	r2, r4, #5
10000484:	1b92      	subs	r2, r2, r6
10000486:	41bb      	sbcs	r3, r7
10000488:	1892      	adds	r2, r2, r2
1000048a:	415b      	adcs	r3, r3
1000048c:	0011      	movs	r1, r2
1000048e:	0006      	movs	r6, r0
10000490:	17c0      	asrs	r0, r0, #31
10000492:	0007      	movs	r7, r0
10000494:	041b      	lsls	r3, r3, #16
10000496:	0c0a      	lsrs	r2, r1, #16
10000498:	431a      	orrs	r2, r3
1000049a:	0185      	lsls	r5, r0, #6
1000049c:	0eb3      	lsrs	r3, r6, #26
1000049e:	431d      	orrs	r5, r3
100004a0:	01b4      	lsls	r4, r6, #6
100004a2:	19a4      	adds	r4, r4, r6
100004a4:	417d      	adcs	r5, r7
100004a6:	042b      	lsls	r3, r5, #16
100004a8:	0c24      	lsrs	r4, r4, #16
100004aa:	431c      	orrs	r4, r3
100004ac:	465b      	mov	r3, fp
100004ae:	1912      	adds	r2, r2, r4
100004b0:	601a      	str	r2, [r3, #0]
100004b2:	2380      	movs	r3, #128	@ 0x80
100004b4:	061b      	lsls	r3, r3, #24
100004b6:	4443      	add	r3, r8
100004b8:	0018      	movs	r0, r3
100004ba:	f006 ff87 	bl	100073cc <__wrap___aeabi_f2d>
100004be:	2380      	movs	r3, #128	@ 0x80
100004c0:	0004      	movs	r4, r0
100004c2:	000d      	movs	r5, r1
100004c4:	061b      	lsls	r3, r3, #24
100004c6:	4453      	add	r3, sl
100004c8:	0018      	movs	r0, r3
100004ca:	f006 ff7f 	bl	100073cc <__wrap___aeabi_f2d>
100004ce:	0022      	movs	r2, r4
100004d0:	002b      	movs	r3, r5
100004d2:	f006 f98d 	bl	100067f0 <__wrap_atan2>
100004d6:	2200      	movs	r2, #0
100004d8:	4b77      	ldr	r3, [pc, #476]	@ (100006b8 <sensor_irq+0x3b0>)
100004da:	f006 f8d8 	bl	1000668e <__wrap___aeabi_dmul>
100004de:	f006 f957 	bl	10006790 <__wrap___aeabi_d2iz>
100004e2:	2300      	movs	r3, #0
100004e4:	4a75      	ldr	r2, [pc, #468]	@ (100006bc <sensor_irq+0x3b4>)
100004e6:	17c1      	asrs	r1, r0, #31
100004e8:	f006 fed8 	bl	1000729c <__wrap___aeabi_lmul>
100004ec:	4b77      	ldr	r3, [pc, #476]	@ (100006cc <sensor_irq+0x3c4>)
100004ee:	0409      	lsls	r1, r1, #16
100004f0:	0c00      	lsrs	r0, r0, #16
100004f2:	4308      	orrs	r0, r1
100004f4:	6018      	str	r0, [r3, #0]
100004f6:	464b      	mov	r3, r9
100004f8:	6899      	ldr	r1, [r3, #8]
100004fa:	000c      	movs	r4, r1
100004fc:	17c9      	asrs	r1, r1, #31
100004fe:	000d      	movs	r5, r1
10000500:	0ea6      	lsrs	r6, r4, #26
10000502:	018b      	lsls	r3, r1, #6
10000504:	4333      	orrs	r3, r6
10000506:	01a2      	lsls	r2, r4, #6
10000508:	1912      	adds	r2, r2, r4
1000050a:	416b      	adcs	r3, r5
1000050c:	0011      	movs	r1, r2
1000050e:	041b      	lsls	r3, r3, #16
10000510:	0c0a      	lsrs	r2, r1, #16
10000512:	431a      	orrs	r2, r3
10000514:	4b6e      	ldr	r3, [pc, #440]	@ (100006d0 <sensor_irq+0x3c8>)
10000516:	601a      	str	r2, [r3, #0]
10000518:	4b6e      	ldr	r3, [pc, #440]	@ (100006d4 <sensor_irq+0x3cc>)
1000051a:	469c      	mov	ip, r3
1000051c:	681b      	ldr	r3, [r3, #0]
1000051e:	18d2      	adds	r2, r2, r3
10000520:	0014      	movs	r4, r2
10000522:	17d2      	asrs	r2, r2, #31
10000524:	0015      	movs	r5, r2
10000526:	0da3      	lsrs	r3, r4, #22
10000528:	0297      	lsls	r7, r2, #10
1000052a:	431f      	orrs	r7, r3
1000052c:	02a6      	lsls	r6, r4, #10
1000052e:	1b36      	subs	r6, r6, r4
10000530:	41af      	sbcs	r7, r5
10000532:	0ef1      	lsrs	r1, r6, #27
10000534:	017b      	lsls	r3, r7, #5
10000536:	430b      	orrs	r3, r1
10000538:	0172      	lsls	r2, r6, #5
1000053a:	1b12      	subs	r2, r2, r4
1000053c:	41ab      	sbcs	r3, r5
1000053e:	1892      	adds	r2, r2, r2
10000540:	415b      	adcs	r3, r3
10000542:	0011      	movs	r1, r2
10000544:	041b      	lsls	r3, r3, #16
10000546:	0c0a      	lsrs	r2, r1, #16
10000548:	431a      	orrs	r2, r3
1000054a:	17c3      	asrs	r3, r0, #31
1000054c:	0004      	movs	r4, r0
1000054e:	001d      	movs	r5, r3
10000550:	0e86      	lsrs	r6, r0, #26
10000552:	0199      	lsls	r1, r3, #6
10000554:	4331      	orrs	r1, r6
10000556:	0180      	lsls	r0, r0, #6
10000558:	1900      	adds	r0, r0, r4
1000055a:	4169      	adcs	r1, r5
1000055c:	040b      	lsls	r3, r1, #16
1000055e:	0c00      	lsrs	r0, r0, #16
10000560:	4318      	orrs	r0, r3
10000562:	4663      	mov	r3, ip
10000564:	1812      	adds	r2, r2, r0
10000566:	601a      	str	r2, [r3, #0]
10000568:	22d0      	movs	r2, #208	@ 0xd0
1000056a:	0612      	lsls	r2, r2, #24
1000056c:	6853      	ldr	r3, [r2, #4]
1000056e:	2101      	movs	r1, #1
10000570:	075b      	lsls	r3, r3, #29
10000572:	d431      	bmi.n	100005d8 <sensor_irq+0x2d0>
10000574:	6853      	ldr	r3, [r2, #4]
10000576:	091b      	lsrs	r3, r3, #4
10000578:	4219      	tst	r1, r3
1000057a:	d12d      	bne.n	100005d8 <sensor_irq+0x2d0>
1000057c:	2200      	movs	r2, #0
1000057e:	4b56      	ldr	r3, [pc, #344]	@ (100006d8 <sensor_irq+0x3d0>)
10000580:	701a      	strb	r2, [r3, #0]
10000582:	4b56      	ldr	r3, [pc, #344]	@ (100006dc <sensor_irq+0x3d4>)
10000584:	701a      	strb	r2, [r3, #0]
10000586:	22d0      	movs	r2, #208	@ 0xd0
10000588:	0612      	lsls	r2, r2, #24
1000058a:	6853      	ldr	r3, [r2, #4]
1000058c:	2101      	movs	r1, #1
1000058e:	059b      	lsls	r3, r3, #22
10000590:	d439      	bmi.n	10000606 <sensor_irq+0x2fe>
10000592:	6853      	ldr	r3, [r2, #4]
10000594:	0adb      	lsrs	r3, r3, #11
10000596:	4219      	tst	r1, r3
10000598:	d135      	bne.n	10000606 <sensor_irq+0x2fe>
1000059a:	2200      	movs	r2, #0
1000059c:	4b50      	ldr	r3, [pc, #320]	@ (100006e0 <sensor_irq+0x3d8>)
1000059e:	701a      	strb	r2, [r3, #0]
100005a0:	4b50      	ldr	r3, [pc, #320]	@ (100006e4 <sensor_irq+0x3dc>)
100005a2:	701a      	strb	r2, [r3, #0]
100005a4:	4b50      	ldr	r3, [pc, #320]	@ (100006e8 <sensor_irq+0x3e0>)
100005a6:	799b      	ldrb	r3, [r3, #6]
100005a8:	2b00      	cmp	r3, #0
100005aa:	d003      	beq.n	100005b4 <sensor_irq+0x2ac>
100005ac:	4a4f      	ldr	r2, [pc, #316]	@ (100006ec <sensor_irq+0x3e4>)
100005ae:	6813      	ldr	r3, [r2, #0]
100005b0:	3301      	adds	r3, #1
100005b2:	6013      	str	r3, [r2, #0]
100005b4:	4b4e      	ldr	r3, [pc, #312]	@ (100006f0 <sensor_irq+0x3e8>)
100005b6:	799b      	ldrb	r3, [r3, #6]
100005b8:	2b00      	cmp	r3, #0
100005ba:	d003      	beq.n	100005c4 <sensor_irq+0x2bc>
100005bc:	4a4d      	ldr	r2, [pc, #308]	@ (100006f4 <sensor_irq+0x3ec>)
100005be:	6813      	ldr	r3, [r2, #0]
100005c0:	3301      	adds	r3, #1
100005c2:	6013      	str	r3, [r2, #0]
100005c4:	4a4c      	ldr	r2, [pc, #304]	@ (100006f8 <sensor_irq+0x3f0>)
100005c6:	6813      	ldr	r3, [r2, #0]
100005c8:	3301      	adds	r3, #1
100005ca:	6013      	str	r3, [r2, #0]
100005cc:	bcf0      	pop	{r4, r5, r6, r7}
100005ce:	46bb      	mov	fp, r7
100005d0:	46b2      	mov	sl, r6
100005d2:	46a9      	mov	r9, r5
100005d4:	46a0      	mov	r8, r4
100005d6:	bdf8      	pop	{r3, r4, r5, r6, r7, pc}
100005d8:	2201      	movs	r2, #1
100005da:	21d0      	movs	r1, #208	@ 0xd0
100005dc:	0010      	movs	r0, r2
100005de:	0609      	lsls	r1, r1, #24
100005e0:	684b      	ldr	r3, [r1, #4]
100005e2:	089b      	lsrs	r3, r3, #2
100005e4:	4018      	ands	r0, r3
100005e6:	421a      	tst	r2, r3
100005e8:	d131      	bne.n	1000064e <sensor_irq+0x346>
100005ea:	684b      	ldr	r3, [r1, #4]
100005ec:	091b      	lsrs	r3, r3, #4
100005ee:	421a      	tst	r2, r3
100005f0:	d02d      	beq.n	1000064e <sensor_irq+0x346>
100005f2:	4b39      	ldr	r3, [pc, #228]	@ (100006d8 <sensor_irq+0x3d0>)
100005f4:	2101      	movs	r1, #1
100005f6:	701a      	strb	r2, [r3, #0]
100005f8:	22d0      	movs	r2, #208	@ 0xd0
100005fa:	4b38      	ldr	r3, [pc, #224]	@ (100006dc <sensor_irq+0x3d4>)
100005fc:	0612      	lsls	r2, r2, #24
100005fe:	7018      	strb	r0, [r3, #0]
10000600:	6853      	ldr	r3, [r2, #4]
10000602:	059b      	lsls	r3, r3, #22
10000604:	d5c5      	bpl.n	10000592 <sensor_irq+0x28a>
10000606:	2201      	movs	r2, #1
10000608:	21d0      	movs	r1, #208	@ 0xd0
1000060a:	0010      	movs	r0, r2
1000060c:	0609      	lsls	r1, r1, #24
1000060e:	684b      	ldr	r3, [r1, #4]
10000610:	0a5b      	lsrs	r3, r3, #9
10000612:	4018      	ands	r0, r3
10000614:	421a      	tst	r2, r3
10000616:	d103      	bne.n	10000620 <sensor_irq+0x318>
10000618:	684b      	ldr	r3, [r1, #4]
1000061a:	0adb      	lsrs	r3, r3, #11
1000061c:	421a      	tst	r2, r3
1000061e:	d134      	bne.n	1000068a <sensor_irq+0x382>
10000620:	22d0      	movs	r2, #208	@ 0xd0
10000622:	0612      	lsls	r2, r2, #24
10000624:	6853      	ldr	r3, [r2, #4]
10000626:	2101      	movs	r1, #1
10000628:	059b      	lsls	r3, r3, #22
1000062a:	d505      	bpl.n	10000638 <sensor_irq+0x330>
1000062c:	6853      	ldr	r3, [r2, #4]
1000062e:	000a      	movs	r2, r1
10000630:	0adb      	lsrs	r3, r3, #11
10000632:	401a      	ands	r2, r3
10000634:	4219      	tst	r1, r3
10000636:	d061      	beq.n	100006fc <sensor_irq+0x3f4>
10000638:	22d0      	movs	r2, #208	@ 0xd0
1000063a:	0612      	lsls	r2, r2, #24
1000063c:	6853      	ldr	r3, [r2, #4]
1000063e:	2101      	movs	r1, #1
10000640:	059b      	lsls	r3, r3, #22
10000642:	d5af      	bpl.n	100005a4 <sensor_irq+0x29c>
10000644:	6853      	ldr	r3, [r2, #4]
10000646:	0adb      	lsrs	r3, r3, #11
10000648:	4219      	tst	r1, r3
1000064a:	d1a6      	bne.n	1000059a <sensor_irq+0x292>
1000064c:	e7aa      	b.n	100005a4 <sensor_irq+0x29c>
1000064e:	22d0      	movs	r2, #208	@ 0xd0
10000650:	0612      	lsls	r2, r2, #24
10000652:	6853      	ldr	r3, [r2, #4]
10000654:	2101      	movs	r1, #1
10000656:	075b      	lsls	r3, r3, #29
10000658:	d40c      	bmi.n	10000674 <sensor_irq+0x36c>
1000065a:	22d0      	movs	r2, #208	@ 0xd0
1000065c:	0612      	lsls	r2, r2, #24
1000065e:	6853      	ldr	r3, [r2, #4]
10000660:	2101      	movs	r1, #1
10000662:	075b      	lsls	r3, r3, #29
10000664:	d400      	bmi.n	10000668 <sensor_irq+0x360>
10000666:	e78e      	b.n	10000586 <sensor_irq+0x27e>
10000668:	6853      	ldr	r3, [r2, #4]
1000066a:	091b      	lsrs	r3, r3, #4
1000066c:	4219      	tst	r1, r3
1000066e:	d000      	beq.n	10000672 <sensor_irq+0x36a>
10000670:	e784      	b.n	1000057c <sensor_irq+0x274>
10000672:	e788      	b.n	10000586 <sensor_irq+0x27e>
10000674:	6853      	ldr	r3, [r2, #4]
10000676:	000a      	movs	r2, r1
10000678:	091b      	lsrs	r3, r3, #4
1000067a:	401a      	ands	r2, r3
1000067c:	4219      	tst	r1, r3
1000067e:	d1ec      	bne.n	1000065a <sensor_irq+0x352>
10000680:	4b15      	ldr	r3, [pc, #84]	@ (100006d8 <sensor_irq+0x3d0>)
10000682:	701a      	strb	r2, [r3, #0]
10000684:	4b15      	ldr	r3, [pc, #84]	@ (100006dc <sensor_irq+0x3d4>)
10000686:	7019      	strb	r1, [r3, #0]
10000688:	e77d      	b.n	10000586 <sensor_irq+0x27e>
1000068a:	4b15      	ldr	r3, [pc, #84]	@ (100006e0 <sensor_irq+0x3d8>)
1000068c:	701a      	strb	r2, [r3, #0]
1000068e:	4b15      	ldr	r3, [pc, #84]	@ (100006e4 <sensor_irq+0x3dc>)
10000690:	7018      	strb	r0, [r3, #0]
10000692:	e787      	b.n	100005a4 <sensor_irq+0x29c>
10000694:	40050000 	.word	0x40050000
10000698:	20000668 	.word	0x20000668
1000069c:	200005d0 	.word	0x200005d0
100006a0:	20000674 	.word	0x20000674
100006a4:	200005dc 	.word	0x200005dc
100006a8:	20000658 	.word	0x20000658
100006ac:	20000660 	.word	0x20000660
100006b0:	2000065c 	.word	0x2000065c
100006b4:	20000664 	.word	0x20000664
100006b8:	40f00000 	.word	0x40f00000
100006bc:	00394bb8 	.word	0x00394bb8
100006c0:	200005e8 	.word	0x200005e8
100006c4:	20000680 	.word	0x20000680
100006c8:	20000608 	.word	0x20000608
100006cc:	200005ec 	.word	0x200005ec
100006d0:	20000684 	.word	0x20000684
100006d4:	2000060c 	.word	0x2000060c
100006d8:	200261b4 	.word	0x200261b4
100006dc:	200261b6 	.word	0x200261b6
100006e0:	200261b5 	.word	0x200261b5
100006e4:	200261b7 	.word	0x200261b7
100006e8:	20000760 	.word	0x20000760
100006ec:	200008d0 	.word	0x200008d0
100006f0:	20000774 	.word	0x20000774
100006f4:	200008d4 	.word	0x200008d4
100006f8:	20026180 	.word	0x20026180
100006fc:	4b02      	ldr	r3, [pc, #8]	@ (10000708 <sensor_irq+0x400>)
100006fe:	701a      	strb	r2, [r3, #0]
10000700:	4b02      	ldr	r3, [pc, #8]	@ (1000070c <sensor_irq+0x404>)
10000702:	7019      	strb	r1, [r3, #0]
10000704:	e74e      	b.n	100005a4 <sensor_irq+0x29c>
10000706:	46c0      	nop			@ (mov r8, r8)
10000708:	200261b5 	.word	0x200261b5
1000070c:	200261b7 	.word	0x200261b7

10000710 <protothread_anim1>:
10000710:	b5f0      	push	{r4, r5, r6, r7, lr}
10000712:	46de      	mov	lr, fp
10000714:	4657      	mov	r7, sl
10000716:	464e      	mov	r6, r9
10000718:	4645      	mov	r5, r8
1000071a:	b5e0      	push	{r5, r6, r7, lr}
1000071c:	6803      	ldr	r3, [r0, #0]
1000071e:	0004      	movs	r4, r0
10000720:	b085      	sub	sp, #20
10000722:	2b00      	cmp	r3, #0
10000724:	d01a      	beq.n	1000075c <protothread_anim1+0x4c>
10000726:	469f      	mov	pc, r3
10000728:	4bb2      	ldr	r3, [pc, #712]	@ (100009f4 <protothread_anim1+0x2e4>)
1000072a:	6003      	str	r3, [r0, #0]
1000072c:	4bb2      	ldr	r3, [pc, #712]	@ (100009f8 <protothread_anim1+0x2e8>)
1000072e:	6a9a      	ldr	r2, [r3, #40]	@ 0x28
10000730:	4bb2      	ldr	r3, [pc, #712]	@ (100009fc <protothread_anim1+0x2ec>)
10000732:	681b      	ldr	r3, [r3, #0]
10000734:	429a      	cmp	r2, r3
10000736:	d330      	bcc.n	1000079a <protothread_anim1+0x8a>
10000738:	4bb1      	ldr	r3, [pc, #708]	@ (10000a00 <protothread_anim1+0x2f0>)
1000073a:	4698      	mov	r8, r3
1000073c:	2200      	movs	r2, #0
1000073e:	5e9b      	ldrsh	r3, [r3, r2]
10000740:	4ab0      	ldr	r2, [pc, #704]	@ (10000a04 <protothread_anim1+0x2f4>)
10000742:	9402      	str	r4, [sp, #8]
10000744:	4691      	mov	r9, r2
10000746:	2b00      	cmp	r3, #0
10000748:	d101      	bne.n	1000074e <protothread_anim1+0x3e>
1000074a:	f001 f85e 	bl	1000180a <protothread_anim1+0x10fa>
1000074e:	4648      	mov	r0, r9
10000750:	b29a      	uxth	r2, r3
10000752:	009b      	lsls	r3, r3, #2
10000754:	2a05      	cmp	r2, #5
10000756:	d8fd      	bhi.n	10000754 <protothread_anim1+0x44>
10000758:	58c1      	ldr	r1, [r0, r3]
1000075a:	468f      	mov	pc, r1
1000075c:	218c      	movs	r1, #140	@ 0x8c
1000075e:	205a      	movs	r0, #90	@ 0x5a
10000760:	2501      	movs	r5, #1
10000762:	4aa9      	ldr	r2, [pc, #676]	@ (10000a08 <protothread_anim1+0x2f8>)
10000764:	30ff      	adds	r0, #255	@ 0xff
10000766:	8051      	strh	r1, [r2, #2]
10000768:	3928      	subs	r1, #40	@ 0x28
1000076a:	7013      	strb	r3, [r2, #0]
1000076c:	6050      	str	r0, [r2, #4]
1000076e:	8113      	strh	r3, [r2, #8]
10000770:	60d1      	str	r1, [r2, #12]
10000772:	7415      	strb	r5, [r2, #16]
10000774:	4aa5      	ldr	r2, [pc, #660]	@ (10000a0c <protothread_anim1+0x2fc>)
10000776:	8113      	strh	r3, [r2, #8]
10000778:	2300      	movs	r3, #0
1000077a:	60d1      	str	r1, [r2, #12]
1000077c:	49a4      	ldr	r1, [pc, #656]	@ (10000a10 <protothread_anim1+0x300>)
1000077e:	7413      	strb	r3, [r2, #16]
10000780:	468c      	mov	ip, r1
10000782:	4b9d      	ldr	r3, [pc, #628]	@ (100009f8 <protothread_anim1+0x2e8>)
10000784:	7015      	strb	r5, [r2, #0]
10000786:	6050      	str	r0, [r2, #4]
10000788:	35f4      	adds	r5, #244	@ 0xf4
1000078a:	6a9b      	ldr	r3, [r3, #40]	@ 0x28
1000078c:	35ff      	adds	r5, #255	@ 0xff
1000078e:	8055      	strh	r5, [r2, #2]
10000790:	4a9a      	ldr	r2, [pc, #616]	@ (100009fc <protothread_anim1+0x2ec>)
10000792:	4463      	add	r3, ip
10000794:	6013      	str	r3, [r2, #0]
10000796:	4b97      	ldr	r3, [pc, #604]	@ (100009f4 <protothread_anim1+0x2e4>)
10000798:	6023      	str	r3, [r4, #0]
1000079a:	2001      	movs	r0, #1
1000079c:	b005      	add	sp, #20
1000079e:	bcf0      	pop	{r4, r5, r6, r7}
100007a0:	46bb      	mov	fp, r7
100007a2:	46b2      	mov	sl, r6
100007a4:	46a9      	mov	r9, r5
100007a6:	46a0      	mov	r8, r4
100007a8:	bdf0      	pop	{r4, r5, r6, r7, pc}
100007aa:	4681      	mov	r9, r0
100007ac:	2004      	movs	r0, #4
100007ae:	f002 fae3 	bl	10002d78 <setTextSize>
100007b2:	2100      	movs	r1, #0
100007b4:	2002      	movs	r0, #2
100007b6:	f002 fae9 	bl	10002d8c <setTextColor2>
100007ba:	2132      	movs	r1, #50	@ 0x32
100007bc:	20af      	movs	r0, #175	@ 0xaf
100007be:	f002 fad1 	bl	10002d64 <setCursor>
100007c2:	4d94      	ldr	r5, [pc, #592]	@ (10000a14 <protothread_anim1+0x304>)
100007c4:	4b94      	ldr	r3, [pc, #592]	@ (10000a18 <protothread_anim1+0x308>)
100007c6:	002e      	movs	r6, r5
100007c8:	cb07      	ldmia	r3!, {r0, r1, r2}
100007ca:	c607      	stmia	r6!, {r0, r1, r2}
100007cc:	781b      	ldrb	r3, [r3, #0]
100007ce:	0028      	movs	r0, r5
100007d0:	7033      	strb	r3, [r6, #0]
100007d2:	f002 fae5 	bl	10002da0 <writeString>
100007d6:	2100      	movs	r1, #0
100007d8:	2007      	movs	r0, #7
100007da:	f002 fad7 	bl	10002d8c <setTextColor2>
100007de:	2003      	movs	r0, #3
100007e0:	f002 faca 	bl	10002d78 <setTextSize>
100007e4:	216e      	movs	r1, #110	@ 0x6e
100007e6:	2032      	movs	r0, #50	@ 0x32
100007e8:	f002 fabc 	bl	10002d64 <setCursor>
100007ec:	002a      	movs	r2, r5
100007ee:	002c      	movs	r4, r5
100007f0:	0037      	movs	r7, r6
100007f2:	4b8a      	ldr	r3, [pc, #552]	@ (10000a1c <protothread_anim1+0x30c>)
100007f4:	cb03      	ldmia	r3!, {r0, r1}
100007f6:	c203      	stmia	r2!, {r0, r1}
100007f8:	8819      	ldrh	r1, [r3, #0]
100007fa:	0028      	movs	r0, r5
100007fc:	8011      	strh	r1, [r2, #0]
100007fe:	789b      	ldrb	r3, [r3, #2]
10000800:	7093      	strb	r3, [r2, #2]
10000802:	f002 facd 	bl	10002da0 <writeString>
10000806:	2002      	movs	r0, #2
10000808:	f002 fab6 	bl	10002d78 <setTextSize>
1000080c:	218c      	movs	r1, #140	@ 0x8c
1000080e:	2046      	movs	r0, #70	@ 0x46
10000810:	f002 faa8 	bl	10002d64 <setCursor>
10000814:	4b82      	ldr	r3, [pc, #520]	@ (10000a20 <protothread_anim1+0x310>)
10000816:	cb07      	ldmia	r3!, {r0, r1, r2}
10000818:	c407      	stmia	r4!, {r0, r1, r2}
1000081a:	cb07      	ldmia	r3!, {r0, r1, r2}
1000081c:	c707      	stmia	r7!, {r0, r1, r2}
1000081e:	681a      	ldr	r2, [r3, #0]
10000820:	0028      	movs	r0, r5
10000822:	603a      	str	r2, [r7, #0]
10000824:	791b      	ldrb	r3, [r3, #4]
10000826:	713b      	strb	r3, [r7, #4]
10000828:	f002 faba 	bl	10002da0 <writeString>
1000082c:	21a0      	movs	r1, #160	@ 0xa0
1000082e:	2046      	movs	r0, #70	@ 0x46
10000830:	f002 fa98 	bl	10002d64 <setCursor>
10000834:	002a      	movs	r2, r5
10000836:	4b7b      	ldr	r3, [pc, #492]	@ (10000a24 <protothread_anim1+0x314>)
10000838:	cb13      	ldmia	r3!, {r0, r1, r4}
1000083a:	c213      	stmia	r2!, {r0, r1, r4}
1000083c:	cb13      	ldmia	r3!, {r0, r1, r4}
1000083e:	c213      	stmia	r2!, {r0, r1, r4}
10000840:	681a      	ldr	r2, [r3, #0]
10000842:	0028      	movs	r0, r5
10000844:	603a      	str	r2, [r7, #0]
10000846:	889a      	ldrh	r2, [r3, #4]
10000848:	80ba      	strh	r2, [r7, #4]
1000084a:	799b      	ldrb	r3, [r3, #6]
1000084c:	71bb      	strb	r3, [r7, #6]
1000084e:	f002 faa7 	bl	10002da0 <writeString>
10000852:	2003      	movs	r0, #3
10000854:	f002 fa90 	bl	10002d78 <setTextSize>
10000858:	21d2      	movs	r1, #210	@ 0xd2
1000085a:	2032      	movs	r0, #50	@ 0x32
1000085c:	f002 fa82 	bl	10002d64 <setCursor>
10000860:	002a      	movs	r2, r5
10000862:	4b71      	ldr	r3, [pc, #452]	@ (10000a28 <protothread_anim1+0x318>)
10000864:	cb13      	ldmia	r3!, {r0, r1, r4}
10000866:	c213      	stmia	r2!, {r0, r1, r4}
10000868:	cb03      	ldmia	r3!, {r0, r1}
1000086a:	c203      	stmia	r2!, {r0, r1}
1000086c:	0028      	movs	r0, r5
1000086e:	f002 fa97 	bl	10002da0 <writeString>
10000872:	2002      	movs	r0, #2
10000874:	f002 fa80 	bl	10002d78 <setTextSize>
10000878:	21f0      	movs	r1, #240	@ 0xf0
1000087a:	2046      	movs	r0, #70	@ 0x46
1000087c:	f002 fa72 	bl	10002d64 <setCursor>
10000880:	002a      	movs	r2, r5
10000882:	4b6a      	ldr	r3, [pc, #424]	@ (10000a2c <protothread_anim1+0x31c>)
10000884:	cb13      	ldmia	r3!, {r0, r1, r4}
10000886:	c213      	stmia	r2!, {r0, r1, r4}
10000888:	cb13      	ldmia	r3!, {r0, r1, r4}
1000088a:	c213      	stmia	r2!, {r0, r1, r4}
1000088c:	681a      	ldr	r2, [r3, #0]
1000088e:	0028      	movs	r0, r5
10000890:	603a      	str	r2, [r7, #0]
10000892:	889a      	ldrh	r2, [r3, #4]
10000894:	80ba      	strh	r2, [r7, #4]
10000896:	799b      	ldrb	r3, [r3, #6]
10000898:	71bb      	strb	r3, [r7, #6]
1000089a:	f002 fa81 	bl	10002da0 <writeString>
1000089e:	2182      	movs	r1, #130	@ 0x82
100008a0:	2046      	movs	r0, #70	@ 0x46
100008a2:	0049      	lsls	r1, r1, #1
100008a4:	f002 fa5e 	bl	10002d64 <setCursor>
100008a8:	0029      	movs	r1, r5
100008aa:	4b61      	ldr	r3, [pc, #388]	@ (10000a30 <protothread_anim1+0x320>)
100008ac:	cb15      	ldmia	r3!, {r0, r2, r4}
100008ae:	c115      	stmia	r1!, {r0, r2, r4}
100008b0:	cb15      	ldmia	r3!, {r0, r2, r4}
100008b2:	c115      	stmia	r1!, {r0, r2, r4}
100008b4:	cb15      	ldmia	r3!, {r0, r2, r4}
100008b6:	c115      	stmia	r1!, {r0, r2, r4}
100008b8:	681a      	ldr	r2, [r3, #0]
100008ba:	0028      	movs	r0, r5
100008bc:	600a      	str	r2, [r1, #0]
100008be:	889b      	ldrh	r3, [r3, #4]
100008c0:	808b      	strh	r3, [r1, #4]
100008c2:	f002 fa6d 	bl	10002da0 <writeString>
100008c6:	218c      	movs	r1, #140	@ 0x8c
100008c8:	2046      	movs	r0, #70	@ 0x46
100008ca:	0049      	lsls	r1, r1, #1
100008cc:	f002 fa4a 	bl	10002d64 <setCursor>
100008d0:	002a      	movs	r2, r5
100008d2:	4b58      	ldr	r3, [pc, #352]	@ (10000a34 <protothread_anim1+0x324>)
100008d4:	cb13      	ldmia	r3!, {r0, r1, r4}
100008d6:	c213      	stmia	r2!, {r0, r1, r4}
100008d8:	cb13      	ldmia	r3!, {r0, r1, r4}
100008da:	c213      	stmia	r2!, {r0, r1, r4}
100008dc:	881b      	ldrh	r3, [r3, #0]
100008de:	0028      	movs	r0, r5
100008e0:	803b      	strh	r3, [r7, #0]
100008e2:	f002 fa5d 	bl	10002da0 <writeString>
100008e6:	2196      	movs	r1, #150	@ 0x96
100008e8:	2046      	movs	r0, #70	@ 0x46
100008ea:	0049      	lsls	r1, r1, #1
100008ec:	f002 fa3a 	bl	10002d64 <setCursor>
100008f0:	002a      	movs	r2, r5
100008f2:	4b51      	ldr	r3, [pc, #324]	@ (10000a38 <protothread_anim1+0x328>)
100008f4:	cb13      	ldmia	r3!, {r0, r1, r4}
100008f6:	c213      	stmia	r2!, {r0, r1, r4}
100008f8:	cb07      	ldmia	r3!, {r0, r1, r2}
100008fa:	c607      	stmia	r6!, {r0, r1, r2}
100008fc:	cb43      	ldmia	r3!, {r0, r1, r6}
100008fe:	c743      	stmia	r7!, {r0, r1, r6}
10000900:	0028      	movs	r0, r5
10000902:	f002 fa4d 	bl	10002da0 <writeString>
10000906:	23d0      	movs	r3, #208	@ 0xd0
10000908:	061b      	lsls	r3, r3, #24
1000090a:	685b      	ldr	r3, [r3, #4]
1000090c:	05db      	lsls	r3, r3, #23
1000090e:	d401      	bmi.n	10000914 <protothread_anim1+0x204>
10000910:	f001 f899 	bl	10001a46 <protothread_anim1+0x1336>
10000914:	4643      	mov	r3, r8
10000916:	2200      	movs	r2, #0
10000918:	5e9b      	ldrsh	r3, [r3, r2]
1000091a:	e714      	b.n	10000746 <protothread_anim1+0x36>
1000091c:	4681      	mov	r9, r0
1000091e:	2005      	movs	r0, #5
10000920:	f002 fa2a 	bl	10002d78 <setTextSize>
10000924:	2100      	movs	r1, #0
10000926:	2001      	movs	r0, #1
10000928:	f002 fa30 	bl	10002d8c <setTextColor2>
1000092c:	2196      	movs	r1, #150	@ 0x96
1000092e:	20be      	movs	r0, #190	@ 0xbe
10000930:	f002 fa18 	bl	10002d64 <setCursor>
10000934:	4841      	ldr	r0, [pc, #260]	@ (10000a3c <protothread_anim1+0x32c>)
10000936:	4b42      	ldr	r3, [pc, #264]	@ (10000a40 <protothread_anim1+0x330>)
10000938:	0002      	movs	r2, r0
1000093a:	cb22      	ldmia	r3!, {r1, r5}
1000093c:	c222      	stmia	r2!, {r1, r5}
1000093e:	781b      	ldrb	r3, [r3, #0]
10000940:	7013      	strb	r3, [r2, #0]
10000942:	f002 fa2d 	bl	10002da0 <writeString>
10000946:	21c8      	movs	r1, #200	@ 0xc8
10000948:	20eb      	movs	r0, #235	@ 0xeb
1000094a:	f002 fa0b 	bl	10002d64 <setCursor>
1000094e:	4b3d      	ldr	r3, [pc, #244]	@ (10000a44 <protothread_anim1+0x334>)
10000950:	483d      	ldr	r0, [pc, #244]	@ (10000a48 <protothread_anim1+0x338>)
10000952:	681a      	ldr	r2, [r3, #0]
10000954:	6002      	str	r2, [r0, #0]
10000956:	889b      	ldrh	r3, [r3, #4]
10000958:	8083      	strh	r3, [r0, #4]
1000095a:	f002 fa21 	bl	10002da0 <writeString>
1000095e:	2002      	movs	r0, #2
10000960:	f002 fa0a 	bl	10002d78 <setTextSize>
10000964:	21af      	movs	r1, #175	@ 0xaf
10000966:	2096      	movs	r0, #150	@ 0x96
10000968:	0049      	lsls	r1, r1, #1
1000096a:	f002 f9fb 	bl	10002d64 <setCursor>
1000096e:	4837      	ldr	r0, [pc, #220]	@ (10000a4c <protothread_anim1+0x33c>)
10000970:	4b37      	ldr	r3, [pc, #220]	@ (10000a50 <protothread_anim1+0x340>)
10000972:	0002      	movs	r2, r0
10000974:	cb62      	ldmia	r3!, {r1, r5, r6}
10000976:	c262      	stmia	r2!, {r1, r5, r6}
10000978:	cb62      	ldmia	r3!, {r1, r5, r6}
1000097a:	c262      	stmia	r2!, {r1, r5, r6}
1000097c:	681b      	ldr	r3, [r3, #0]
1000097e:	6013      	str	r3, [r2, #0]
10000980:	f002 fa0e 	bl	10002da0 <writeString>
10000984:	23d0      	movs	r3, #208	@ 0xd0
10000986:	061b      	lsls	r3, r3, #24
10000988:	685b      	ldr	r3, [r3, #4]
1000098a:	05db      	lsls	r3, r3, #23
1000098c:	d4c2      	bmi.n	10000914 <protothread_anim1+0x204>
1000098e:	4931      	ldr	r1, [pc, #196]	@ (10000a54 <protothread_anim1+0x344>)
10000990:	4b19      	ldr	r3, [pc, #100]	@ (100009f8 <protothread_anim1+0x2e8>)
10000992:	468c      	mov	ip, r1
10000994:	6a9b      	ldr	r3, [r3, #40]	@ 0x28
10000996:	4a30      	ldr	r2, [pc, #192]	@ (10000a58 <protothread_anim1+0x348>)
10000998:	4463      	add	r3, ip
1000099a:	9c02      	ldr	r4, [sp, #8]
1000099c:	6013      	str	r3, [r2, #0]
1000099e:	4b2f      	ldr	r3, [pc, #188]	@ (10000a5c <protothread_anim1+0x34c>)
100009a0:	6023      	str	r3, [r4, #0]
100009a2:	e6fa      	b.n	1000079a <protothread_anim1+0x8a>
100009a4:	4681      	mov	r9, r0
100009a6:	2002      	movs	r0, #2
100009a8:	f002 f9e6 	bl	10002d78 <setTextSize>
100009ac:	2100      	movs	r1, #0
100009ae:	2007      	movs	r0, #7
100009b0:	f002 f9ec 	bl	10002d8c <setTextColor2>
100009b4:	21af      	movs	r1, #175	@ 0xaf
100009b6:	20b4      	movs	r0, #180	@ 0xb4
100009b8:	0049      	lsls	r1, r1, #1
100009ba:	f002 f9d3 	bl	10002d64 <setCursor>
100009be:	4828      	ldr	r0, [pc, #160]	@ (10000a60 <protothread_anim1+0x350>)
100009c0:	4b28      	ldr	r3, [pc, #160]	@ (10000a64 <protothread_anim1+0x354>)
100009c2:	0002      	movs	r2, r0
100009c4:	cb62      	ldmia	r3!, {r1, r5, r6}
100009c6:	c262      	stmia	r2!, {r1, r5, r6}
100009c8:	cb62      	ldmia	r3!, {r1, r5, r6}
100009ca:	c262      	stmia	r2!, {r1, r5, r6}
100009cc:	781b      	ldrb	r3, [r3, #0]
100009ce:	7013      	strb	r3, [r2, #0]
100009d0:	f002 f9e6 	bl	10002da0 <writeString>
100009d4:	23d0      	movs	r3, #208	@ 0xd0
100009d6:	061b      	lsls	r3, r3, #24
100009d8:	685b      	ldr	r3, [r3, #4]
100009da:	05db      	lsls	r3, r3, #23
100009dc:	d49a      	bmi.n	10000914 <protothread_anim1+0x204>
100009de:	490c      	ldr	r1, [pc, #48]	@ (10000a10 <protothread_anim1+0x300>)
100009e0:	4b05      	ldr	r3, [pc, #20]	@ (100009f8 <protothread_anim1+0x2e8>)
100009e2:	468c      	mov	ip, r1
100009e4:	6a9b      	ldr	r3, [r3, #40]	@ 0x28
100009e6:	4a20      	ldr	r2, [pc, #128]	@ (10000a68 <protothread_anim1+0x358>)
100009e8:	4463      	add	r3, ip
100009ea:	9c02      	ldr	r4, [sp, #8]
100009ec:	6013      	str	r3, [r2, #0]
100009ee:	4b1f      	ldr	r3, [pc, #124]	@ (10000a6c <protothread_anim1+0x35c>)
100009f0:	6023      	str	r3, [r4, #0]
100009f2:	e6d2      	b.n	1000079a <protothread_anim1+0x8a>
100009f4:	10000728 	.word	0x10000728
100009f8:	40054000 	.word	0x40054000
100009fc:	20000968 	.word	0x20000968
10000a00:	20000198 	.word	0x20000198
10000a04:	1000811c 	.word	0x1000811c
10000a08:	20000760 	.word	0x20000760
10000a0c:	20000774 	.word	0x20000774
10000a10:	000186a0 	.word	0x000186a0
10000a14:	200006e0 	.word	0x200006e0
10000a18:	10008020 	.word	0x10008020
10000a1c:	10008030 	.word	0x10008030
10000a20:	1000803c 	.word	0x1000803c
10000a24:	1000805c 	.word	0x1000805c
10000a28:	1000807c 	.word	0x1000807c
10000a2c:	10008090 	.word	0x10008090
10000a30:	100080b0 	.word	0x100080b0
10000a34:	100080dc 	.word	0x100080dc
10000a38:	100080f8 	.word	0x100080f8
10000a3c:	200008d8 	.word	0x200008d8
10000a40:	10007ff0 	.word	0x10007ff0
10000a44:	10007ffc 	.word	0x10007ffc
10000a48:	20000900 	.word	0x20000900
10000a4c:	20000928 	.word	0x20000928
10000a50:	10008004 	.word	0x10008004
10000a54:	000f4240 	.word	0x000f4240
10000a58:	20000970 	.word	0x20000970
10000a5c:	10000ce8 	.word	0x10000ce8
10000a60:	2000089c 	.word	0x2000089c
10000a64:	10007fd4 	.word	0x10007fd4
10000a68:	20000974 	.word	0x20000974
10000a6c:	10000c48 	.word	0x10000c48
10000a70:	22a0      	movs	r2, #160	@ 0xa0
10000a72:	21d2      	movs	r1, #210	@ 0xd2
10000a74:	2307      	movs	r3, #7
10000a76:	0092      	lsls	r2, r2, #2
10000a78:	0049      	lsls	r1, r1, #1
10000a7a:	4681      	mov	r9, r0
10000a7c:	2000      	movs	r0, #0
10000a7e:	f001 faed 	bl	1000205c <drawHLine>
10000a82:	2001      	movs	r0, #1
10000a84:	f002 f978 	bl	10002d78 <setTextSize>
10000a88:	4fa5      	ldr	r7, [pc, #660]	@ (10000d20 <protothread_anim1+0x610>)
10000a8a:	2100      	movs	r1, #0
10000a8c:	7838      	ldrb	r0, [r7, #0]
10000a8e:	f002 f97d 	bl	10002d8c <setTextColor2>
10000a92:	212b      	movs	r1, #43	@ 0x2b
10000a94:	20f7      	movs	r0, #247	@ 0xf7
10000a96:	f002 f965 	bl	10002d64 <setCursor>
10000a9a:	4ba2      	ldr	r3, [pc, #648]	@ (10000d24 <protothread_anim1+0x614>)
10000a9c:	4ea2      	ldr	r6, [pc, #648]	@ (10000d28 <protothread_anim1+0x618>)
10000a9e:	469a      	mov	sl, r3
10000aa0:	4da2      	ldr	r5, [pc, #648]	@ (10000d2c <protothread_anim1+0x61c>)
10000aa2:	0019      	movs	r1, r3
10000aa4:	68ea      	ldr	r2, [r5, #12]
10000aa6:	0030      	movs	r0, r6
10000aa8:	f005 faea 	bl	10006080 <__wrap_sprintf>
10000aac:	0030      	movs	r0, r6
10000aae:	f002 f977 	bl	10002da0 <writeString>
10000ab2:	4c9f      	ldr	r4, [pc, #636]	@ (10000d30 <protothread_anim1+0x620>)
10000ab4:	2100      	movs	r1, #0
10000ab6:	7820      	ldrb	r0, [r4, #0]
10000ab8:	f002 f968 	bl	10002d8c <setTextColor2>
10000abc:	212b      	movs	r1, #43	@ 0x2b
10000abe:	489d      	ldr	r0, [pc, #628]	@ (10000d34 <protothread_anim1+0x624>)
10000ac0:	f002 f950 	bl	10002d64 <setCursor>
10000ac4:	4b9c      	ldr	r3, [pc, #624]	@ (10000d38 <protothread_anim1+0x628>)
10000ac6:	4651      	mov	r1, sl
10000ac8:	469a      	mov	sl, r3
10000aca:	4e9c      	ldr	r6, [pc, #624]	@ (10000d3c <protothread_anim1+0x62c>)
10000acc:	0018      	movs	r0, r3
10000ace:	68f2      	ldr	r2, [r6, #12]
10000ad0:	f005 fad6 	bl	10006080 <__wrap_sprintf>
10000ad4:	4650      	mov	r0, sl
10000ad6:	f002 f963 	bl	10002da0 <writeString>
10000ada:	9b03      	ldr	r3, [sp, #12]
10000adc:	2b64      	cmp	r3, #100	@ 0x64
10000ade:	d101      	bne.n	10000ae4 <protothread_anim1+0x3d4>
10000ae0:	f000 fc2b 	bl	1000133a <protothread_anim1+0xc2a>
10000ae4:	2b0a      	cmp	r3, #10
10000ae6:	d104      	bne.n	10000af2 <protothread_anim1+0x3e2>
10000ae8:	68eb      	ldr	r3, [r5, #12]
10000aea:	2b09      	cmp	r3, #9
10000aec:	dc01      	bgt.n	10000af2 <protothread_anim1+0x3e2>
10000aee:	f000 fcbb 	bl	10001468 <protothread_anim1+0xd58>
10000af2:	465b      	mov	r3, fp
10000af4:	2b64      	cmp	r3, #100	@ 0x64
10000af6:	d101      	bne.n	10000afc <protothread_anim1+0x3ec>
10000af8:	f000 fc10 	bl	1000131c <protothread_anim1+0xc0c>
10000afc:	2b0a      	cmp	r3, #10
10000afe:	d104      	bne.n	10000b0a <protothread_anim1+0x3fa>
10000b00:	68f3      	ldr	r3, [r6, #12]
10000b02:	2b09      	cmp	r3, #9
10000b04:	dc01      	bgt.n	10000b0a <protothread_anim1+0x3fa>
10000b06:	f000 fca5 	bl	10001454 <protothread_anim1+0xd44>
10000b0a:	4b8d      	ldr	r3, [pc, #564]	@ (10000d40 <protothread_anim1+0x630>)
10000b0c:	2202      	movs	r2, #2
10000b0e:	5e9b      	ldrsh	r3, [r3, r2]
10000b10:	001a      	movs	r2, r3
10000b12:	3a4b      	subs	r2, #75	@ 0x4b
10000b14:	2a1e      	cmp	r2, #30
10000b16:	d900      	bls.n	10000b1a <protothread_anim1+0x40a>
10000b18:	e1ea      	b.n	10000ef0 <protothread_anim1+0x7e0>
10000b1a:	4b8a      	ldr	r3, [pc, #552]	@ (10000d44 <protothread_anim1+0x634>)
10000b1c:	6858      	ldr	r0, [r3, #4]
10000b1e:	f006 fbfb 	bl	10007318 <__wrap___aeabi_i2f>
10000b22:	21de      	movs	r1, #222	@ 0xde
10000b24:	0589      	lsls	r1, r1, #22
10000b26:	f006 fbf0 	bl	1000730a <__wrap___aeabi_fmul>
10000b2a:	f006 fc4f 	bl	100073cc <__wrap___aeabi_f2d>
10000b2e:	4a86      	ldr	r2, [pc, #536]	@ (10000d48 <protothread_anim1+0x638>)
10000b30:	4b86      	ldr	r3, [pc, #536]	@ (10000d4c <protothread_anim1+0x63c>)
10000b32:	f005 fdfd 	bl	10006730 <__wrap___aeabi_dcmpgt>
10000b36:	2800      	cmp	r0, #0
10000b38:	d100      	bne.n	10000b3c <protothread_anim1+0x42c>
10000b3a:	e129      	b.n	10000d90 <protothread_anim1+0x680>
10000b3c:	21fa      	movs	r1, #250	@ 0xfa
10000b3e:	4a84      	ldr	r2, [pc, #528]	@ (10000d50 <protothread_anim1+0x640>)
10000b40:	2301      	movs	r3, #1
10000b42:	6810      	ldr	r0, [r2, #0]
10000b44:	0049      	lsls	r1, r1, #1
10000b46:	4288      	cmp	r0, r1
10000b48:	db01      	blt.n	10000b4e <protothread_anim1+0x43e>
10000b4a:	2300      	movs	r3, #0
10000b4c:	6013      	str	r3, [r2, #0]
10000b4e:	71ab      	strb	r3, [r5, #6]
10000b50:	2300      	movs	r3, #0
10000b52:	71eb      	strb	r3, [r5, #7]
10000b54:	e11e      	b.n	10000d94 <protothread_anim1+0x684>
10000b56:	2100      	movs	r1, #0
10000b58:	2007      	movs	r0, #7
10000b5a:	9c02      	ldr	r4, [sp, #8]
10000b5c:	f002 f916 	bl	10002d8c <setTextColor2>
10000b60:	21c8      	movs	r1, #200	@ 0xc8
10000b62:	20c8      	movs	r0, #200	@ 0xc8
10000b64:	f002 f8fe 	bl	10002d64 <setCursor>
10000b68:	2003      	movs	r0, #3
10000b6a:	f002 f905 	bl	10002d78 <setTextSize>
10000b6e:	4879      	ldr	r0, [pc, #484]	@ (10000d54 <protothread_anim1+0x644>)
10000b70:	4b79      	ldr	r3, [pc, #484]	@ (10000d58 <protothread_anim1+0x648>)
10000b72:	0002      	movs	r2, r0
10000b74:	cb62      	ldmia	r3!, {r1, r5, r6}
10000b76:	c262      	stmia	r2!, {r1, r5, r6}
10000b78:	8819      	ldrh	r1, [r3, #0]
10000b7a:	8011      	strh	r1, [r2, #0]
10000b7c:	789b      	ldrb	r3, [r3, #2]
10000b7e:	7093      	strb	r3, [r2, #2]
10000b80:	f002 f90e 	bl	10002da0 <writeString>
10000b84:	4975      	ldr	r1, [pc, #468]	@ (10000d5c <protothread_anim1+0x64c>)
10000b86:	4b76      	ldr	r3, [pc, #472]	@ (10000d60 <protothread_anim1+0x650>)
10000b88:	468c      	mov	ip, r1
10000b8a:	6a9b      	ldr	r3, [r3, #40]	@ 0x28
10000b8c:	4a75      	ldr	r2, [pc, #468]	@ (10000d64 <protothread_anim1+0x654>)
10000b8e:	4463      	add	r3, ip
10000b90:	6013      	str	r3, [r2, #0]
10000b92:	4b75      	ldr	r3, [pc, #468]	@ (10000d68 <protothread_anim1+0x658>)
10000b94:	6023      	str	r3, [r4, #0]
10000b96:	e600      	b.n	1000079a <protothread_anim1+0x8a>
10000b98:	4b73      	ldr	r3, [pc, #460]	@ (10000d68 <protothread_anim1+0x658>)
10000b9a:	6003      	str	r3, [r0, #0]
10000b9c:	4b70      	ldr	r3, [pc, #448]	@ (10000d60 <protothread_anim1+0x650>)
10000b9e:	6a9a      	ldr	r2, [r3, #40]	@ 0x28
10000ba0:	4b70      	ldr	r3, [pc, #448]	@ (10000d64 <protothread_anim1+0x654>)
10000ba2:	681b      	ldr	r3, [r3, #0]
10000ba4:	429a      	cmp	r2, r3
10000ba6:	d200      	bcs.n	10000baa <protothread_anim1+0x49a>
10000ba8:	e5f7      	b.n	1000079a <protothread_anim1+0x8a>
10000baa:	4b70      	ldr	r3, [pc, #448]	@ (10000d6c <protothread_anim1+0x65c>)
10000bac:	4698      	mov	r8, r3
10000bae:	2303      	movs	r3, #3
10000bb0:	4642      	mov	r2, r8
10000bb2:	8013      	strh	r3, [r2, #0]
10000bb4:	e5c4      	b.n	10000740 <protothread_anim1+0x30>
10000bb6:	4b6e      	ldr	r3, [pc, #440]	@ (10000d70 <protothread_anim1+0x660>)
10000bb8:	6003      	str	r3, [r0, #0]
10000bba:	4b69      	ldr	r3, [pc, #420]	@ (10000d60 <protothread_anim1+0x650>)
10000bbc:	6a9a      	ldr	r2, [r3, #40]	@ 0x28
10000bbe:	4b6d      	ldr	r3, [pc, #436]	@ (10000d74 <protothread_anim1+0x664>)
10000bc0:	681b      	ldr	r3, [r3, #0]
10000bc2:	429a      	cmp	r2, r3
10000bc4:	d2f1      	bcs.n	10000baa <protothread_anim1+0x49a>
10000bc6:	e5e8      	b.n	1000079a <protothread_anim1+0x8a>
10000bc8:	4b6b      	ldr	r3, [pc, #428]	@ (10000d78 <protothread_anim1+0x668>)
10000bca:	6003      	str	r3, [r0, #0]
10000bcc:	4b64      	ldr	r3, [pc, #400]	@ (10000d60 <protothread_anim1+0x650>)
10000bce:	6a9a      	ldr	r2, [r3, #40]	@ 0x28
10000bd0:	4b6a      	ldr	r3, [pc, #424]	@ (10000d7c <protothread_anim1+0x66c>)
10000bd2:	681b      	ldr	r3, [r3, #0]
10000bd4:	429a      	cmp	r2, r3
10000bd6:	d200      	bcs.n	10000bda <protothread_anim1+0x4ca>
10000bd8:	e5df      	b.n	1000079a <protothread_anim1+0x8a>
10000bda:	4b64      	ldr	r3, [pc, #400]	@ (10000d6c <protothread_anim1+0x65c>)
10000bdc:	2100      	movs	r1, #0
10000bde:	4698      	mov	r8, r3
10000be0:	2302      	movs	r3, #2
10000be2:	4642      	mov	r2, r8
10000be4:	8013      	strh	r3, [r2, #0]
10000be6:	2300      	movs	r3, #0
10000be8:	22a0      	movs	r2, #160	@ 0xa0
10000bea:	9300      	str	r3, [sp, #0]
10000bec:	33e1      	adds	r3, #225	@ 0xe1
10000bee:	2000      	movs	r0, #0
10000bf0:	33ff      	adds	r3, #255	@ 0xff
10000bf2:	0092      	lsls	r2, r2, #2
10000bf4:	f001 fec6 	bl	10002984 <fillRect>
10000bf8:	4d49      	ldr	r5, [pc, #292]	@ (10000d20 <protothread_anim1+0x610>)
10000bfa:	22ca      	movs	r2, #202	@ 0xca
10000bfc:	782b      	ldrb	r3, [r5, #0]
10000bfe:	212a      	movs	r1, #42	@ 0x2a
10000c00:	2028      	movs	r0, #40	@ 0x28
10000c02:	9300      	str	r3, [sp, #0]
10000c04:	230a      	movs	r3, #10
10000c06:	f001 febd 	bl	10002984 <fillRect>
10000c0a:	782b      	ldrb	r3, [r5, #0]
10000c0c:	22ce      	movs	r2, #206	@ 0xce
10000c0e:	2128      	movs	r1, #40	@ 0x28
10000c10:	2026      	movs	r0, #38	@ 0x26
10000c12:	9300      	str	r3, [sp, #0]
10000c14:	230e      	movs	r3, #14
10000c16:	f001 fb61 	bl	100022dc <drawRect>
10000c1a:	20af      	movs	r0, #175	@ 0xaf
10000c1c:	4d44      	ldr	r5, [pc, #272]	@ (10000d30 <protothread_anim1+0x620>)
10000c1e:	22ca      	movs	r2, #202	@ 0xca
10000c20:	782b      	ldrb	r3, [r5, #0]
10000c22:	212a      	movs	r1, #42	@ 0x2a
10000c24:	9300      	str	r3, [sp, #0]
10000c26:	0040      	lsls	r0, r0, #1
10000c28:	230a      	movs	r3, #10
10000c2a:	f001 feab 	bl	10002984 <fillRect>
10000c2e:	20ae      	movs	r0, #174	@ 0xae
10000c30:	782b      	ldrb	r3, [r5, #0]
10000c32:	22ce      	movs	r2, #206	@ 0xce
10000c34:	9300      	str	r3, [sp, #0]
10000c36:	2128      	movs	r1, #40	@ 0x28
10000c38:	230e      	movs	r3, #14
10000c3a:	0040      	lsls	r0, r0, #1
10000c3c:	f001 fb4e 	bl	100022dc <drawRect>
10000c40:	4643      	mov	r3, r8
10000c42:	2200      	movs	r2, #0
10000c44:	5e9b      	ldrsh	r3, [r3, r2]
10000c46:	e57b      	b.n	10000740 <protothread_anim1+0x30>
10000c48:	4b4d      	ldr	r3, [pc, #308]	@ (10000d80 <protothread_anim1+0x670>)
10000c4a:	6003      	str	r3, [r0, #0]
10000c4c:	4b44      	ldr	r3, [pc, #272]	@ (10000d60 <protothread_anim1+0x650>)
10000c4e:	6a9a      	ldr	r2, [r3, #40]	@ 0x28
10000c50:	4b4c      	ldr	r3, [pc, #304]	@ (10000d84 <protothread_anim1+0x674>)
10000c52:	681b      	ldr	r3, [r3, #0]
10000c54:	429a      	cmp	r2, r3
10000c56:	d200      	bcs.n	10000c5a <protothread_anim1+0x54a>
10000c58:	e59f      	b.n	1000079a <protothread_anim1+0x8a>
10000c5a:	218c      	movs	r1, #140	@ 0x8c
10000c5c:	205a      	movs	r0, #90	@ 0x5a
10000c5e:	2200      	movs	r2, #0
10000c60:	2501      	movs	r5, #1
10000c62:	4b32      	ldr	r3, [pc, #200]	@ (10000d2c <protothread_anim1+0x61c>)
10000c64:	30ff      	adds	r0, #255	@ 0xff
10000c66:	8059      	strh	r1, [r3, #2]
10000c68:	3928      	subs	r1, #40	@ 0x28
10000c6a:	701a      	strb	r2, [r3, #0]
10000c6c:	6058      	str	r0, [r3, #4]
10000c6e:	811a      	strh	r2, [r3, #8]
10000c70:	60d9      	str	r1, [r3, #12]
10000c72:	4b32      	ldr	r3, [pc, #200]	@ (10000d3c <protothread_anim1+0x62c>)
10000c74:	701d      	strb	r5, [r3, #0]
10000c76:	35f4      	adds	r5, #244	@ 0xf4
10000c78:	35ff      	adds	r5, #255	@ 0xff
10000c7a:	805d      	strh	r5, [r3, #2]
10000c7c:	6058      	str	r0, [r3, #4]
10000c7e:	811a      	strh	r2, [r3, #8]
10000c80:	60d9      	str	r1, [r3, #12]
10000c82:	9200      	str	r2, [sp, #0]
10000c84:	23f0      	movs	r3, #240	@ 0xf0
10000c86:	22a0      	movs	r2, #160	@ 0xa0
10000c88:	2100      	movs	r1, #0
10000c8a:	2000      	movs	r0, #0
10000c8c:	005b      	lsls	r3, r3, #1
10000c8e:	0092      	lsls	r2, r2, #2
10000c90:	f001 fe78 	bl	10002984 <fillRect>
10000c94:	4d22      	ldr	r5, [pc, #136]	@ (10000d20 <protothread_anim1+0x610>)
10000c96:	22ca      	movs	r2, #202	@ 0xca
10000c98:	782b      	ldrb	r3, [r5, #0]
10000c9a:	212a      	movs	r1, #42	@ 0x2a
10000c9c:	2028      	movs	r0, #40	@ 0x28
10000c9e:	9300      	str	r3, [sp, #0]
10000ca0:	230a      	movs	r3, #10
10000ca2:	f001 fe6f 	bl	10002984 <fillRect>
10000ca6:	782b      	ldrb	r3, [r5, #0]
10000ca8:	22ce      	movs	r2, #206	@ 0xce
10000caa:	2128      	movs	r1, #40	@ 0x28
10000cac:	2026      	movs	r0, #38	@ 0x26
10000cae:	9300      	str	r3, [sp, #0]
10000cb0:	230e      	movs	r3, #14
10000cb2:	f001 fb13 	bl	100022dc <drawRect>
10000cb6:	20af      	movs	r0, #175	@ 0xaf
10000cb8:	4d1d      	ldr	r5, [pc, #116]	@ (10000d30 <protothread_anim1+0x620>)
10000cba:	22ca      	movs	r2, #202	@ 0xca
10000cbc:	782b      	ldrb	r3, [r5, #0]
10000cbe:	212a      	movs	r1, #42	@ 0x2a
10000cc0:	9300      	str	r3, [sp, #0]
10000cc2:	0040      	lsls	r0, r0, #1
10000cc4:	230a      	movs	r3, #10
10000cc6:	f001 fe5d 	bl	10002984 <fillRect>
10000cca:	20ae      	movs	r0, #174	@ 0xae
10000ccc:	782b      	ldrb	r3, [r5, #0]
10000cce:	22ce      	movs	r2, #206	@ 0xce
10000cd0:	9300      	str	r3, [sp, #0]
10000cd2:	2128      	movs	r1, #40	@ 0x28
10000cd4:	230e      	movs	r3, #14
10000cd6:	0040      	lsls	r0, r0, #1
10000cd8:	f001 fb00 	bl	100022dc <drawRect>
10000cdc:	4b23      	ldr	r3, [pc, #140]	@ (10000d6c <protothread_anim1+0x65c>)
10000cde:	4698      	mov	r8, r3
10000ce0:	2302      	movs	r3, #2
10000ce2:	4642      	mov	r2, r8
10000ce4:	8013      	strh	r3, [r2, #0]
10000ce6:	e52b      	b.n	10000740 <protothread_anim1+0x30>
10000ce8:	4b27      	ldr	r3, [pc, #156]	@ (10000d88 <protothread_anim1+0x678>)
10000cea:	6003      	str	r3, [r0, #0]
10000cec:	4b1c      	ldr	r3, [pc, #112]	@ (10000d60 <protothread_anim1+0x650>)
10000cee:	6a9a      	ldr	r2, [r3, #40]	@ 0x28
10000cf0:	4b26      	ldr	r3, [pc, #152]	@ (10000d8c <protothread_anim1+0x67c>)
10000cf2:	681b      	ldr	r3, [r3, #0]
10000cf4:	429a      	cmp	r2, r3
10000cf6:	d200      	bcs.n	10000cfa <protothread_anim1+0x5ea>
10000cf8:	e54f      	b.n	1000079a <protothread_anim1+0x8a>
10000cfa:	4b1c      	ldr	r3, [pc, #112]	@ (10000d6c <protothread_anim1+0x65c>)
10000cfc:	2100      	movs	r1, #0
10000cfe:	4698      	mov	r8, r3
10000d00:	2305      	movs	r3, #5
10000d02:	4642      	mov	r2, r8
10000d04:	8013      	strh	r3, [r2, #0]
10000d06:	2300      	movs	r3, #0
10000d08:	22a0      	movs	r2, #160	@ 0xa0
10000d0a:	9300      	str	r3, [sp, #0]
10000d0c:	33e1      	adds	r3, #225	@ 0xe1
10000d0e:	33ff      	adds	r3, #255	@ 0xff
10000d10:	0092      	lsls	r2, r2, #2
10000d12:	2000      	movs	r0, #0
10000d14:	f001 fe36 	bl	10002984 <fillRect>
10000d18:	4643      	mov	r3, r8
10000d1a:	2200      	movs	r2, #0
10000d1c:	5e9b      	ldrsh	r3, [r3, r2]
10000d1e:	e50f      	b.n	10000740 <protothread_anim1+0x30>
10000d20:	2000019b 	.word	0x2000019b
10000d24:	10007fd0 	.word	0x10007fd0
10000d28:	20000688 	.word	0x20000688
10000d2c:	20000760 	.word	0x20000760
10000d30:	2000019a 	.word	0x2000019a
10000d34:	0000022d 	.word	0x0000022d
10000d38:	200006b0 	.word	0x200006b0
10000d3c:	20000774 	.word	0x20000774
10000d40:	20000608 	.word	0x20000608
10000d44:	200005d0 	.word	0x200005d0
10000d48:	47ae147b 	.word	0x47ae147b
10000d4c:	3f847ae1 	.word	0x3f847ae1
10000d50:	200008d0 	.word	0x200008d0
10000d54:	20026184 	.word	0x20026184
10000d58:	10007fc0 	.word	0x10007fc0
10000d5c:	000f4240 	.word	0x000f4240
10000d60:	40054000 	.word	0x40054000
10000d64:	20000960 	.word	0x20000960
10000d68:	10000b98 	.word	0x10000b98
10000d6c:	20000198 	.word	0x20000198
10000d70:	10000bb6 	.word	0x10000bb6
10000d74:	20000964 	.word	0x20000964
10000d78:	10000bc8 	.word	0x10000bc8
10000d7c:	2000096c 	.word	0x2000096c
10000d80:	10000c48 	.word	0x10000c48
10000d84:	20000974 	.word	0x20000974
10000d88:	10000ce8 	.word	0x10000ce8
10000d8c:	20000970 	.word	0x20000970
10000d90:	2300      	movs	r3, #0
10000d92:	80eb      	strh	r3, [r5, #6]
10000d94:	4b5a      	ldr	r3, [pc, #360]	@ (10000f00 <protothread_anim1+0x7f0>)
10000d96:	88a9      	ldrh	r1, [r5, #4]
10000d98:	781b      	ldrb	r3, [r3, #0]
10000d9a:	469a      	mov	sl, r3
10000d9c:	2302      	movs	r3, #2
10000d9e:	5ee8      	ldrsh	r0, [r5, r3]
10000da0:	4b58      	ldr	r3, [pc, #352]	@ (10000f04 <protothread_anim1+0x7f4>)
10000da2:	781b      	ldrb	r3, [r3, #0]
10000da4:	2b00      	cmp	r3, #0
10000da6:	d100      	bne.n	10000daa <protothread_anim1+0x69a>
10000da8:	e29b      	b.n	100012e2 <protothread_anim1+0xbd2>
10000daa:	4653      	mov	r3, sl
10000dac:	2b00      	cmp	r3, #0
10000dae:	d113      	bne.n	10000dd8 <protothread_anim1+0x6c8>
10000db0:	2858      	cmp	r0, #88	@ 0x58
10000db2:	dd11      	ble.n	10000dd8 <protothread_anim1+0x6c8>
10000db4:	393c      	subs	r1, #60	@ 0x3c
10000db6:	3854      	subs	r0, #84	@ 0x54
10000db8:	b200      	sxth	r0, r0
10000dba:	9300      	str	r3, [sp, #0]
10000dbc:	22a8      	movs	r2, #168	@ 0xa8
10000dbe:	3387      	adds	r3, #135	@ 0x87
10000dc0:	b209      	sxth	r1, r1
10000dc2:	f001 fddf 	bl	10002984 <fillRect>
10000dc6:	8868      	ldrh	r0, [r5, #2]
10000dc8:	7c2b      	ldrb	r3, [r5, #16]
10000dca:	3805      	subs	r0, #5
10000dcc:	b200      	sxth	r0, r0
10000dce:	8068      	strh	r0, [r5, #2]
10000dd0:	2b00      	cmp	r3, #0
10000dd2:	d001      	beq.n	10000dd8 <protothread_anim1+0x6c8>
10000dd4:	4653      	mov	r3, sl
10000dd6:	742b      	strb	r3, [r5, #16]
10000dd8:	88a9      	ldrh	r1, [r5, #4]
10000dda:	220f      	movs	r2, #15
10000ddc:	391e      	subs	r1, #30
10000dde:	783b      	ldrb	r3, [r7, #0]
10000de0:	b209      	sxth	r1, r1
10000de2:	f001 fbb9 	bl	10002558 <drawCircle>
10000de6:	88a9      	ldrh	r1, [r5, #4]
10000de8:	783b      	ldrb	r3, [r7, #0]
10000dea:	390f      	subs	r1, #15
10000dec:	2202      	movs	r2, #2
10000dee:	5ea8      	ldrsh	r0, [r5, r2]
10000df0:	b209      	sxth	r1, r1
10000df2:	222d      	movs	r2, #45	@ 0x2d
10000df4:	f001 f8e2 	bl	10001fbc <drawVLine>
10000df8:	7c2b      	ldrb	r3, [r5, #16]
10000dfa:	2b00      	cmp	r3, #0
10000dfc:	d000      	beq.n	10000e00 <protothread_anim1+0x6f0>
10000dfe:	e083      	b.n	10000f08 <protothread_anim1+0x7f8>
10000e00:	88a9      	ldrh	r1, [r5, #4]
10000e02:	2302      	movs	r3, #2
10000e04:	5ee8      	ldrsh	r0, [r5, r3]
10000e06:	000b      	movs	r3, r1
10000e08:	3335      	adds	r3, #53	@ 0x35
10000e0a:	0002      	movs	r2, r0
10000e0c:	b21b      	sxth	r3, r3
10000e0e:	469a      	mov	sl, r3
10000e10:	783b      	ldrb	r3, [r7, #0]
10000e12:	3a0f      	subs	r2, #15
10000e14:	311e      	adds	r1, #30
10000e16:	b212      	sxth	r2, r2
10000e18:	b209      	sxth	r1, r1
10000e1a:	9300      	str	r3, [sp, #0]
10000e1c:	4653      	mov	r3, sl
10000e1e:	f001 f96f 	bl	10002100 <drawLine>
10000e22:	88a9      	ldrh	r1, [r5, #4]
10000e24:	8868      	ldrh	r0, [r5, #2]
10000e26:	3135      	adds	r1, #53	@ 0x35
10000e28:	380f      	subs	r0, #15
10000e2a:	783b      	ldrb	r3, [r7, #0]
10000e2c:	2216      	movs	r2, #22
10000e2e:	b209      	sxth	r1, r1
10000e30:	b200      	sxth	r0, r0
10000e32:	f001 f8c3 	bl	10001fbc <drawVLine>
10000e36:	88a9      	ldrh	r1, [r5, #4]
10000e38:	2302      	movs	r3, #2
10000e3a:	5ee8      	ldrsh	r0, [r5, r3]
10000e3c:	000b      	movs	r3, r1
10000e3e:	3335      	adds	r3, #53	@ 0x35
10000e40:	b21b      	sxth	r3, r3
10000e42:	469a      	mov	sl, r3
10000e44:	783b      	ldrb	r3, [r7, #0]
10000e46:	1d82      	adds	r2, r0, #6
10000e48:	311e      	adds	r1, #30
10000e4a:	b212      	sxth	r2, r2
10000e4c:	b209      	sxth	r1, r1
10000e4e:	9300      	str	r3, [sp, #0]
10000e50:	4653      	mov	r3, sl
10000e52:	f001 f955 	bl	10002100 <drawLine>
10000e56:	88a9      	ldrh	r1, [r5, #4]
10000e58:	8868      	ldrh	r0, [r5, #2]
10000e5a:	000b      	movs	r3, r1
10000e5c:	334b      	adds	r3, #75	@ 0x4b
10000e5e:	0002      	movs	r2, r0
10000e60:	b21b      	sxth	r3, r3
10000e62:	469a      	mov	sl, r3
10000e64:	783b      	ldrb	r3, [r7, #0]
10000e66:	320f      	adds	r2, #15
10000e68:	3135      	adds	r1, #53	@ 0x35
10000e6a:	3006      	adds	r0, #6
10000e6c:	b212      	sxth	r2, r2
10000e6e:	b209      	sxth	r1, r1
10000e70:	b200      	sxth	r0, r0
10000e72:	9300      	str	r3, [sp, #0]
10000e74:	4653      	mov	r3, sl
10000e76:	f001 f943 	bl	10002100 <drawLine>
10000e7a:	2304      	movs	r3, #4
10000e7c:	5ee9      	ldrsh	r1, [r5, r3]
10000e7e:	2302      	movs	r3, #2
10000e80:	5ee8      	ldrsh	r0, [r5, r3]
10000e82:	000b      	movs	r3, r1
10000e84:	331e      	adds	r3, #30
10000e86:	0002      	movs	r2, r0
10000e88:	b21b      	sxth	r3, r3
10000e8a:	469a      	mov	sl, r3
10000e8c:	783b      	ldrb	r3, [r7, #0]
10000e8e:	320f      	adds	r2, #15
10000e90:	9300      	str	r3, [sp, #0]
10000e92:	b212      	sxth	r2, r2
10000e94:	4653      	mov	r3, sl
10000e96:	f001 f933 	bl	10002100 <drawLine>
10000e9a:	79eb      	ldrb	r3, [r5, #7]
10000e9c:	2b00      	cmp	r3, #0
10000e9e:	d000      	beq.n	10000ea2 <protothread_anim1+0x792>
10000ea0:	e26e      	b.n	10001380 <protothread_anim1+0xc70>
10000ea2:	79ab      	ldrb	r3, [r5, #6]
10000ea4:	2b00      	cmp	r3, #0
10000ea6:	d100      	bne.n	10000eaa <protothread_anim1+0x79a>
10000ea8:	e26e      	b.n	10001388 <protothread_anim1+0xc78>
10000eaa:	2304      	movs	r3, #4
10000eac:	5ee9      	ldrsh	r1, [r5, r3]
10000eae:	2302      	movs	r3, #2
10000eb0:	5ee8      	ldrsh	r0, [r5, r3]
10000eb2:	1ccb      	adds	r3, r1, #3
10000eb4:	0002      	movs	r2, r0
10000eb6:	b21b      	sxth	r3, r3
10000eb8:	469a      	mov	sl, r3
10000eba:	783b      	ldrb	r3, [r7, #0]
10000ebc:	3a1e      	subs	r2, #30
10000ebe:	9300      	str	r3, [sp, #0]
10000ec0:	b212      	sxth	r2, r2
10000ec2:	4653      	mov	r3, sl
10000ec4:	f001 f91c 	bl	10002100 <drawLine>
10000ec8:	88a9      	ldrh	r1, [r5, #4]
10000eca:	8868      	ldrh	r0, [r5, #2]
10000ecc:	3103      	adds	r1, #3
10000ece:	3854      	subs	r0, #84	@ 0x54
10000ed0:	223c      	movs	r2, #60	@ 0x3c
10000ed2:	783b      	ldrb	r3, [r7, #0]
10000ed4:	b209      	sxth	r1, r1
10000ed6:	b200      	sxth	r0, r0
10000ed8:	f001 f8c0 	bl	1000205c <drawHLine>
10000edc:	8868      	ldrh	r0, [r5, #2]
10000ede:	2204      	movs	r2, #4
10000ee0:	5ea9      	ldrsh	r1, [r5, r2]
10000ee2:	381e      	subs	r0, #30
10000ee4:	2206      	movs	r2, #6
10000ee6:	783b      	ldrb	r3, [r7, #0]
10000ee8:	b200      	sxth	r0, r0
10000eea:	f001 f867 	bl	10001fbc <drawVLine>
10000eee:	e0a5      	b.n	1000103c <protothread_anim1+0x92c>
10000ef0:	330f      	adds	r3, #15
10000ef2:	2b1e      	cmp	r3, #30
10000ef4:	d900      	bls.n	10000ef8 <protothread_anim1+0x7e8>
10000ef6:	e74b      	b.n	10000d90 <protothread_anim1+0x680>
10000ef8:	2380      	movs	r3, #128	@ 0x80
10000efa:	005b      	lsls	r3, r3, #1
10000efc:	80eb      	strh	r3, [r5, #6]
10000efe:	e749      	b.n	10000d94 <protothread_anim1+0x684>
10000f00:	200261b6 	.word	0x200261b6
10000f04:	200261b4 	.word	0x200261b4
10000f08:	88a9      	ldrh	r1, [r5, #4]
10000f0a:	2302      	movs	r3, #2
10000f0c:	5ee8      	ldrsh	r0, [r5, r3]
10000f0e:	000b      	movs	r3, r1
10000f10:	3335      	adds	r3, #53	@ 0x35
10000f12:	b21b      	sxth	r3, r3
10000f14:	469a      	mov	sl, r3
10000f16:	783b      	ldrb	r3, [r7, #0]
10000f18:	1f82      	subs	r2, r0, #6
10000f1a:	311e      	adds	r1, #30
10000f1c:	b212      	sxth	r2, r2
10000f1e:	b209      	sxth	r1, r1
10000f20:	9300      	str	r3, [sp, #0]
10000f22:	4653      	mov	r3, sl
10000f24:	f001 f8ec 	bl	10002100 <drawLine>
10000f28:	88a9      	ldrh	r1, [r5, #4]
10000f2a:	8868      	ldrh	r0, [r5, #2]
10000f2c:	000b      	movs	r3, r1
10000f2e:	334b      	adds	r3, #75	@ 0x4b
10000f30:	0002      	movs	r2, r0
10000f32:	b21b      	sxth	r3, r3
10000f34:	469a      	mov	sl, r3
10000f36:	783b      	ldrb	r3, [r7, #0]
10000f38:	3a0f      	subs	r2, #15
10000f3a:	3135      	adds	r1, #53	@ 0x35
10000f3c:	3806      	subs	r0, #6
10000f3e:	b212      	sxth	r2, r2
10000f40:	b209      	sxth	r1, r1
10000f42:	b200      	sxth	r0, r0
10000f44:	9300      	str	r3, [sp, #0]
10000f46:	4653      	mov	r3, sl
10000f48:	f001 f8da 	bl	10002100 <drawLine>
10000f4c:	88a9      	ldrh	r1, [r5, #4]
10000f4e:	2302      	movs	r3, #2
10000f50:	5ee8      	ldrsh	r0, [r5, r3]
10000f52:	000b      	movs	r3, r1
10000f54:	3335      	adds	r3, #53	@ 0x35
10000f56:	0002      	movs	r2, r0
10000f58:	b21b      	sxth	r3, r3
10000f5a:	469a      	mov	sl, r3
10000f5c:	783b      	ldrb	r3, [r7, #0]
10000f5e:	320f      	adds	r2, #15
10000f60:	311e      	adds	r1, #30
10000f62:	b212      	sxth	r2, r2
10000f64:	b209      	sxth	r1, r1
10000f66:	9300      	str	r3, [sp, #0]
10000f68:	4653      	mov	r3, sl
10000f6a:	f001 f8c9 	bl	10002100 <drawLine>
10000f6e:	88a9      	ldrh	r1, [r5, #4]
10000f70:	8868      	ldrh	r0, [r5, #2]
10000f72:	3135      	adds	r1, #53	@ 0x35
10000f74:	300f      	adds	r0, #15
10000f76:	783b      	ldrb	r3, [r7, #0]
10000f78:	2216      	movs	r2, #22
10000f7a:	b209      	sxth	r1, r1
10000f7c:	b200      	sxth	r0, r0
10000f7e:	f001 f81d 	bl	10001fbc <drawVLine>
10000f82:	2304      	movs	r3, #4
10000f84:	5ee9      	ldrsh	r1, [r5, r3]
10000f86:	2302      	movs	r3, #2
10000f88:	5ee8      	ldrsh	r0, [r5, r3]
10000f8a:	000b      	movs	r3, r1
10000f8c:	331e      	adds	r3, #30
10000f8e:	0002      	movs	r2, r0
10000f90:	b21b      	sxth	r3, r3
10000f92:	469a      	mov	sl, r3
10000f94:	783b      	ldrb	r3, [r7, #0]
10000f96:	3a0f      	subs	r2, #15
10000f98:	9300      	str	r3, [sp, #0]
10000f9a:	b212      	sxth	r2, r2
10000f9c:	4653      	mov	r3, sl
10000f9e:	f001 f8af 	bl	10002100 <drawLine>
10000fa2:	79eb      	ldrb	r3, [r5, #7]
10000fa4:	2b00      	cmp	r3, #0
10000fa6:	d100      	bne.n	10000faa <protothread_anim1+0x89a>
10000fa8:	e22d      	b.n	10001406 <protothread_anim1+0xcf6>
10000faa:	79ab      	ldrb	r3, [r5, #6]
10000fac:	2b00      	cmp	r3, #0
10000fae:	d101      	bne.n	10000fb4 <protothread_anim1+0x8a4>
10000fb0:	f000 fc9e 	bl	100018f0 <protothread_anim1+0x11e0>
10000fb4:	2304      	movs	r3, #4
10000fb6:	5ee9      	ldrsh	r1, [r5, r3]
10000fb8:	2302      	movs	r3, #2
10000fba:	5ee8      	ldrsh	r0, [r5, r3]
10000fbc:	000b      	movs	r3, r1
10000fbe:	330c      	adds	r3, #12
10000fc0:	0002      	movs	r2, r0
10000fc2:	b21b      	sxth	r3, r3
10000fc4:	469a      	mov	sl, r3
10000fc6:	783b      	ldrb	r3, [r7, #0]
10000fc8:	3209      	adds	r2, #9
10000fca:	b212      	sxth	r2, r2
10000fcc:	9300      	str	r3, [sp, #0]
10000fce:	4653      	mov	r3, sl
10000fd0:	f001 f896 	bl	10002100 <drawLine>
10000fd4:	8868      	ldrh	r0, [r5, #2]
10000fd6:	2204      	movs	r2, #4
10000fd8:	5eab      	ldrsh	r3, [r5, r2]
10000fda:	0002      	movs	r2, r0
10000fdc:	321e      	adds	r2, #30
10000fde:	0019      	movs	r1, r3
10000fe0:	b212      	sxth	r2, r2
10000fe2:	4692      	mov	sl, r2
10000fe4:	783a      	ldrb	r2, [r7, #0]
10000fe6:	310c      	adds	r1, #12
10000fe8:	3009      	adds	r0, #9
10000fea:	b209      	sxth	r1, r1
10000fec:	b200      	sxth	r0, r0
10000fee:	9200      	str	r2, [sp, #0]
10000ff0:	4652      	mov	r2, sl
10000ff2:	f001 f885 	bl	10002100 <drawLine>
10000ff6:	88a9      	ldrh	r1, [r5, #4]
10000ff8:	8868      	ldrh	r0, [r5, #2]
10000ffa:	000b      	movs	r3, r1
10000ffc:	3b27      	subs	r3, #39	@ 0x27
10000ffe:	0002      	movs	r2, r0
10001000:	b21b      	sxth	r3, r3
10001002:	469a      	mov	sl, r3
10001004:	783b      	ldrb	r3, [r7, #0]
10001006:	3245      	adds	r2, #69	@ 0x45
10001008:	3106      	adds	r1, #6
1000100a:	3018      	adds	r0, #24
1000100c:	b212      	sxth	r2, r2
1000100e:	b209      	sxth	r1, r1
10001010:	b200      	sxth	r0, r0
10001012:	9300      	str	r3, [sp, #0]
10001014:	4653      	mov	r3, sl
10001016:	f001 f873 	bl	10002100 <drawLine>
1000101a:	8868      	ldrh	r0, [r5, #2]
1000101c:	88a9      	ldrh	r1, [r5, #4]
1000101e:	0002      	movs	r2, r0
10001020:	1c8b      	adds	r3, r1, #2
10001022:	b21b      	sxth	r3, r3
10001024:	469a      	mov	sl, r3
10001026:	3223      	adds	r2, #35	@ 0x23
10001028:	3905      	subs	r1, #5
1000102a:	b212      	sxth	r2, r2
1000102c:	b209      	sxth	r1, r1
1000102e:	301d      	adds	r0, #29
10001030:	783b      	ldrb	r3, [r7, #0]
10001032:	b200      	sxth	r0, r0
10001034:	9300      	str	r3, [sp, #0]
10001036:	4653      	mov	r3, sl
10001038:	f001 f862 	bl	10002100 <drawLine>
1000103c:	4bc7      	ldr	r3, [pc, #796]	@ (1000135c <protothread_anim1+0xc4c>)
1000103e:	2202      	movs	r2, #2
10001040:	5e9b      	ldrsh	r3, [r3, r2]
10001042:	001a      	movs	r2, r3
10001044:	3a4b      	subs	r2, #75	@ 0x4b
10001046:	2a1e      	cmp	r2, #30
10001048:	d900      	bls.n	1000104c <protothread_anim1+0x93c>
1000104a:	e2ab      	b.n	100015a4 <protothread_anim1+0xe94>
1000104c:	4bc4      	ldr	r3, [pc, #784]	@ (10001360 <protothread_anim1+0xc50>)
1000104e:	6858      	ldr	r0, [r3, #4]
10001050:	f006 f962 	bl	10007318 <__wrap___aeabi_i2f>
10001054:	21de      	movs	r1, #222	@ 0xde
10001056:	0589      	lsls	r1, r1, #22
10001058:	f006 f957 	bl	1000730a <__wrap___aeabi_fmul>
1000105c:	f006 f9b6 	bl	100073cc <__wrap___aeabi_f2d>
10001060:	4ac0      	ldr	r2, [pc, #768]	@ (10001364 <protothread_anim1+0xc54>)
10001062:	4bc1      	ldr	r3, [pc, #772]	@ (10001368 <protothread_anim1+0xc58>)
10001064:	f005 fb64 	bl	10006730 <__wrap___aeabi_dcmpgt>
10001068:	2800      	cmp	r0, #0
1000106a:	d100      	bne.n	1000106e <protothread_anim1+0x95e>
1000106c:	e2f7      	b.n	1000165e <protothread_anim1+0xf4e>
1000106e:	21fa      	movs	r1, #250	@ 0xfa
10001070:	4abe      	ldr	r2, [pc, #760]	@ (1000136c <protothread_anim1+0xc5c>)
10001072:	2301      	movs	r3, #1
10001074:	6810      	ldr	r0, [r2, #0]
10001076:	0049      	lsls	r1, r1, #1
10001078:	4288      	cmp	r0, r1
1000107a:	db01      	blt.n	10001080 <protothread_anim1+0x970>
1000107c:	2300      	movs	r3, #0
1000107e:	6013      	str	r3, [r2, #0]
10001080:	71b3      	strb	r3, [r6, #6]
10001082:	2300      	movs	r3, #0
10001084:	71f3      	strb	r3, [r6, #7]
10001086:	4bba      	ldr	r3, [pc, #744]	@ (10001370 <protothread_anim1+0xc60>)
10001088:	88b1      	ldrh	r1, [r6, #4]
1000108a:	781b      	ldrb	r3, [r3, #0]
1000108c:	469a      	mov	sl, r3
1000108e:	2302      	movs	r3, #2
10001090:	5ef0      	ldrsh	r0, [r6, r3]
10001092:	4bb8      	ldr	r3, [pc, #736]	@ (10001374 <protothread_anim1+0xc64>)
10001094:	781b      	ldrb	r3, [r3, #0]
10001096:	2b00      	cmp	r3, #0
10001098:	d100      	bne.n	1000109c <protothread_anim1+0x98c>
1000109a:	e2c3      	b.n	10001624 <protothread_anim1+0xf14>
1000109c:	4653      	mov	r3, sl
1000109e:	2b00      	cmp	r3, #0
100010a0:	d103      	bne.n	100010aa <protothread_anim1+0x99a>
100010a2:	2858      	cmp	r0, #88	@ 0x58
100010a4:	dd01      	ble.n	100010aa <protothread_anim1+0x99a>
100010a6:	f000 fca3 	bl	100019f0 <protothread_anim1+0x12e0>
100010aa:	88b1      	ldrh	r1, [r6, #4]
100010ac:	220f      	movs	r2, #15
100010ae:	391e      	subs	r1, #30
100010b0:	7823      	ldrb	r3, [r4, #0]
100010b2:	b209      	sxth	r1, r1
100010b4:	f001 fa50 	bl	10002558 <drawCircle>
100010b8:	88b1      	ldrh	r1, [r6, #4]
100010ba:	7823      	ldrb	r3, [r4, #0]
100010bc:	390f      	subs	r1, #15
100010be:	2202      	movs	r2, #2
100010c0:	5eb0      	ldrsh	r0, [r6, r2]
100010c2:	b209      	sxth	r1, r1
100010c4:	222d      	movs	r2, #45	@ 0x2d
100010c6:	f000 ff79 	bl	10001fbc <drawVLine>
100010ca:	7c33      	ldrb	r3, [r6, #16]
100010cc:	2b00      	cmp	r3, #0
100010ce:	d000      	beq.n	100010d2 <protothread_anim1+0x9c2>
100010d0:	e1d4      	b.n	1000147c <protothread_anim1+0xd6c>
100010d2:	88b1      	ldrh	r1, [r6, #4]
100010d4:	2302      	movs	r3, #2
100010d6:	5ef0      	ldrsh	r0, [r6, r3]
100010d8:	000b      	movs	r3, r1
100010da:	3335      	adds	r3, #53	@ 0x35
100010dc:	0002      	movs	r2, r0
100010de:	b21b      	sxth	r3, r3
100010e0:	469a      	mov	sl, r3
100010e2:	7823      	ldrb	r3, [r4, #0]
100010e4:	3a0f      	subs	r2, #15
100010e6:	311e      	adds	r1, #30
100010e8:	b212      	sxth	r2, r2
100010ea:	b209      	sxth	r1, r1
100010ec:	9300      	str	r3, [sp, #0]
100010ee:	4653      	mov	r3, sl
100010f0:	f001 f806 	bl	10002100 <drawLine>
100010f4:	88b1      	ldrh	r1, [r6, #4]
100010f6:	8870      	ldrh	r0, [r6, #2]
100010f8:	3135      	adds	r1, #53	@ 0x35
100010fa:	380f      	subs	r0, #15
100010fc:	7823      	ldrb	r3, [r4, #0]
100010fe:	2216      	movs	r2, #22
10001100:	b209      	sxth	r1, r1
10001102:	b200      	sxth	r0, r0
10001104:	f000 ff5a 	bl	10001fbc <drawVLine>
10001108:	88b1      	ldrh	r1, [r6, #4]
1000110a:	2302      	movs	r3, #2
1000110c:	5ef0      	ldrsh	r0, [r6, r3]
1000110e:	000b      	movs	r3, r1
10001110:	3335      	adds	r3, #53	@ 0x35
10001112:	b21b      	sxth	r3, r3
10001114:	469a      	mov	sl, r3
10001116:	7823      	ldrb	r3, [r4, #0]
10001118:	1d82      	adds	r2, r0, #6
1000111a:	311e      	adds	r1, #30
1000111c:	b212      	sxth	r2, r2
1000111e:	b209      	sxth	r1, r1
10001120:	9300      	str	r3, [sp, #0]
10001122:	4653      	mov	r3, sl
10001124:	f000 ffec 	bl	10002100 <drawLine>
10001128:	88b1      	ldrh	r1, [r6, #4]
1000112a:	8870      	ldrh	r0, [r6, #2]
1000112c:	000b      	movs	r3, r1
1000112e:	334b      	adds	r3, #75	@ 0x4b
10001130:	0002      	movs	r2, r0
10001132:	b21b      	sxth	r3, r3
10001134:	469a      	mov	sl, r3
10001136:	7823      	ldrb	r3, [r4, #0]
10001138:	320f      	adds	r2, #15
1000113a:	3135      	adds	r1, #53	@ 0x35
1000113c:	3006      	adds	r0, #6
1000113e:	b212      	sxth	r2, r2
10001140:	b209      	sxth	r1, r1
10001142:	b200      	sxth	r0, r0
10001144:	9300      	str	r3, [sp, #0]
10001146:	4653      	mov	r3, sl
10001148:	f000 ffda 	bl	10002100 <drawLine>
1000114c:	2304      	movs	r3, #4
1000114e:	5ef1      	ldrsh	r1, [r6, r3]
10001150:	2302      	movs	r3, #2
10001152:	5ef0      	ldrsh	r0, [r6, r3]
10001154:	000b      	movs	r3, r1
10001156:	331e      	adds	r3, #30
10001158:	0002      	movs	r2, r0
1000115a:	b21b      	sxth	r3, r3
1000115c:	469a      	mov	sl, r3
1000115e:	7823      	ldrb	r3, [r4, #0]
10001160:	320f      	adds	r2, #15
10001162:	9300      	str	r3, [sp, #0]
10001164:	b212      	sxth	r2, r2
10001166:	4653      	mov	r3, sl
10001168:	f000 ffca 	bl	10002100 <drawLine>
1000116c:	79f3      	ldrb	r3, [r6, #7]
1000116e:	2b00      	cmp	r3, #0
10001170:	d000      	beq.n	10001174 <protothread_anim1+0xa64>
10001172:	e2b2      	b.n	100016da <protothread_anim1+0xfca>
10001174:	79b3      	ldrb	r3, [r6, #6]
10001176:	2b00      	cmp	r3, #0
10001178:	d001      	beq.n	1000117e <protothread_anim1+0xa6e>
1000117a:	f000 fbf1 	bl	10001960 <protothread_anim1+0x1250>
1000117e:	2304      	movs	r3, #4
10001180:	5ef1      	ldrsh	r1, [r6, r3]
10001182:	2302      	movs	r3, #2
10001184:	5ef0      	ldrsh	r0, [r6, r3]
10001186:	000b      	movs	r3, r1
10001188:	330c      	adds	r3, #12
1000118a:	0002      	movs	r2, r0
1000118c:	b21b      	sxth	r3, r3
1000118e:	469a      	mov	sl, r3
10001190:	7823      	ldrb	r3, [r4, #0]
10001192:	3a09      	subs	r2, #9
10001194:	b212      	sxth	r2, r2
10001196:	9300      	str	r3, [sp, #0]
10001198:	4653      	mov	r3, sl
1000119a:	f000 ffb1 	bl	10002100 <drawLine>
1000119e:	8870      	ldrh	r0, [r6, #2]
100011a0:	2204      	movs	r2, #4
100011a2:	5eb3      	ldrsh	r3, [r6, r2]
100011a4:	0002      	movs	r2, r0
100011a6:	3a1e      	subs	r2, #30
100011a8:	0019      	movs	r1, r3
100011aa:	b212      	sxth	r2, r2
100011ac:	4692      	mov	sl, r2
100011ae:	7822      	ldrb	r2, [r4, #0]
100011b0:	310c      	adds	r1, #12
100011b2:	3809      	subs	r0, #9
100011b4:	b209      	sxth	r1, r1
100011b6:	b200      	sxth	r0, r0
100011b8:	9200      	str	r2, [sp, #0]
100011ba:	4652      	mov	r2, sl
100011bc:	f000 ffa0 	bl	10002100 <drawLine>
100011c0:	88b1      	ldrh	r1, [r6, #4]
100011c2:	8870      	ldrh	r0, [r6, #2]
100011c4:	000b      	movs	r3, r1
100011c6:	3b27      	subs	r3, #39	@ 0x27
100011c8:	0002      	movs	r2, r0
100011ca:	b21b      	sxth	r3, r3
100011cc:	469a      	mov	sl, r3
100011ce:	7823      	ldrb	r3, [r4, #0]
100011d0:	3a45      	subs	r2, #69	@ 0x45
100011d2:	3106      	adds	r1, #6
100011d4:	3818      	subs	r0, #24
100011d6:	b212      	sxth	r2, r2
100011d8:	b209      	sxth	r1, r1
100011da:	b200      	sxth	r0, r0
100011dc:	9300      	str	r3, [sp, #0]
100011de:	4653      	mov	r3, sl
100011e0:	f000 ff8e 	bl	10002100 <drawLine>
100011e4:	8870      	ldrh	r0, [r6, #2]
100011e6:	88b1      	ldrh	r1, [r6, #4]
100011e8:	0002      	movs	r2, r0
100011ea:	1c8b      	adds	r3, r1, #2
100011ec:	b21b      	sxth	r3, r3
100011ee:	469a      	mov	sl, r3
100011f0:	3a23      	subs	r2, #35	@ 0x23
100011f2:	3905      	subs	r1, #5
100011f4:	b212      	sxth	r2, r2
100011f6:	b209      	sxth	r1, r1
100011f8:	381d      	subs	r0, #29
100011fa:	7823      	ldrb	r3, [r4, #0]
100011fc:	b200      	sxth	r0, r0
100011fe:	9300      	str	r3, [sp, #0]
10001200:	4653      	mov	r3, sl
10001202:	f000 ff7d 	bl	10002100 <drawLine>
10001206:	79eb      	ldrb	r3, [r5, #7]
10001208:	7a2a      	ldrb	r2, [r5, #8]
1000120a:	429a      	cmp	r2, r3
1000120c:	d104      	bne.n	10001218 <protothread_anim1+0xb08>
1000120e:	79aa      	ldrb	r2, [r5, #6]
10001210:	7a69      	ldrb	r1, [r5, #9]
10001212:	4291      	cmp	r1, r2
10001214:	d100      	bne.n	10001218 <protothread_anim1+0xb08>
10001216:	e2db      	b.n	100017d0 <protothread_anim1+0x10c0>
10001218:	2300      	movs	r3, #0
1000121a:	469a      	mov	sl, r3
1000121c:	88a9      	ldrh	r1, [r5, #4]
1000121e:	8868      	ldrh	r0, [r5, #2]
10001220:	393c      	subs	r1, #60	@ 0x3c
10001222:	3854      	subs	r0, #84	@ 0x54
10001224:	22a8      	movs	r2, #168	@ 0xa8
10001226:	b209      	sxth	r1, r1
10001228:	b200      	sxth	r0, r0
1000122a:	9300      	str	r3, [sp, #0]
1000122c:	3387      	adds	r3, #135	@ 0x87
1000122e:	f001 fba9 	bl	10002984 <fillRect>
10001232:	4653      	mov	r3, sl
10001234:	88b1      	ldrh	r1, [r6, #4]
10001236:	8870      	ldrh	r0, [r6, #2]
10001238:	393c      	subs	r1, #60	@ 0x3c
1000123a:	3854      	subs	r0, #84	@ 0x54
1000123c:	b209      	sxth	r1, r1
1000123e:	b200      	sxth	r0, r0
10001240:	9300      	str	r3, [sp, #0]
10001242:	22a8      	movs	r2, #168	@ 0xa8
10001244:	3387      	adds	r3, #135	@ 0x87
10001246:	f001 fb9d 	bl	10002984 <fillRect>
1000124a:	2302      	movs	r3, #2
1000124c:	5ee8      	ldrsh	r0, [r5, r3]
1000124e:	2302      	movs	r3, #2
10001250:	5ef1      	ldrsh	r1, [r6, r3]
10001252:	4288      	cmp	r0, r1
10001254:	db00      	blt.n	10001258 <protothread_anim1+0xb48>
10001256:	e1ac      	b.n	100015b2 <protothread_anim1+0xea2>
10001258:	7c2a      	ldrb	r2, [r5, #16]
1000125a:	7c33      	ldrb	r3, [r6, #16]
1000125c:	2a00      	cmp	r2, #0
1000125e:	d000      	beq.n	10001262 <protothread_anim1+0xb52>
10001260:	e276      	b.n	10001750 <protothread_anim1+0x1040>
10001262:	2b00      	cmp	r3, #0
10001264:	d001      	beq.n	1000126a <protothread_anim1+0xb5a>
10001266:	f7ff fb55 	bl	10000914 <protothread_anim1+0x204>
1000126a:	79b2      	ldrb	r2, [r6, #6]
1000126c:	4694      	mov	ip, r2
1000126e:	2a00      	cmp	r2, #0
10001270:	d101      	bne.n	10001276 <protothread_anim1+0xb66>
10001272:	f000 fbd3 	bl	10001a1c <protothread_anim1+0x130c>
10001276:	1a09      	subs	r1, r1, r0
10001278:	391e      	subs	r1, #30
1000127a:	2936      	cmp	r1, #54	@ 0x36
1000127c:	d901      	bls.n	10001282 <protothread_anim1+0xb72>
1000127e:	f000 fbcd 	bl	10001a1c <protothread_anim1+0x130c>
10001282:	68ea      	ldr	r2, [r5, #12]
10001284:	1e50      	subs	r0, r2, #1
10001286:	60e8      	str	r0, [r5, #12]
10001288:	0040      	lsls	r0, r0, #1
1000128a:	9203      	str	r2, [sp, #12]
1000128c:	3029      	adds	r0, #41	@ 0x29
1000128e:	b200      	sxth	r0, r0
10001290:	9300      	str	r3, [sp, #0]
10001292:	2202      	movs	r2, #2
10001294:	2308      	movs	r3, #8
10001296:	212b      	movs	r1, #43	@ 0x2b
10001298:	f001 fb74 	bl	10002984 <fillRect>
1000129c:	79eb      	ldrb	r3, [r5, #7]
1000129e:	79aa      	ldrb	r2, [r5, #6]
100012a0:	79f1      	ldrb	r1, [r6, #7]
100012a2:	468a      	mov	sl, r1
100012a4:	79b1      	ldrb	r1, [r6, #6]
100012a6:	468c      	mov	ip, r1
100012a8:	722b      	strb	r3, [r5, #8]
100012aa:	4653      	mov	r3, sl
100012ac:	7233      	strb	r3, [r6, #8]
100012ae:	4663      	mov	r3, ip
100012b0:	7273      	strb	r3, [r6, #9]
100012b2:	68eb      	ldr	r3, [r5, #12]
100012b4:	726a      	strb	r2, [r5, #9]
100012b6:	2b00      	cmp	r3, #0
100012b8:	da00      	bge.n	100012bc <protothread_anim1+0xbac>
100012ba:	e277      	b.n	100017ac <protothread_anim1+0x109c>
100012bc:	68f3      	ldr	r3, [r6, #12]
100012be:	2b00      	cmp	r3, #0
100012c0:	db01      	blt.n	100012c6 <protothread_anim1+0xbb6>
100012c2:	f7ff fb27 	bl	10000914 <protothread_anim1+0x204>
100012c6:	4642      	mov	r2, r8
100012c8:	2300      	movs	r3, #0
100012ca:	20af      	movs	r0, #175	@ 0xaf
100012cc:	8013      	strh	r3, [r2, #0]
100012ce:	7823      	ldrb	r3, [r4, #0]
100012d0:	22ca      	movs	r2, #202	@ 0xca
100012d2:	9300      	str	r3, [sp, #0]
100012d4:	212a      	movs	r1, #42	@ 0x2a
100012d6:	230a      	movs	r3, #10
100012d8:	0040      	lsls	r0, r0, #1
100012da:	f000 ffff 	bl	100022dc <drawRect>
100012de:	f7ff fb19 	bl	10000914 <protothread_anim1+0x204>
100012e2:	4652      	mov	r2, sl
100012e4:	2a00      	cmp	r2, #0
100012e6:	d100      	bne.n	100012ea <protothread_anim1+0xbda>
100012e8:	e576      	b.n	10000dd8 <protothread_anim1+0x6c8>
100012ea:	4a23      	ldr	r2, [pc, #140]	@ (10001378 <protothread_anim1+0xc68>)
100012ec:	4290      	cmp	r0, r2
100012ee:	dd00      	ble.n	100012f2 <protothread_anim1+0xbe2>
100012f0:	e572      	b.n	10000dd8 <protothread_anim1+0x6c8>
100012f2:	393c      	subs	r1, #60	@ 0x3c
100012f4:	3854      	subs	r0, #84	@ 0x54
100012f6:	3a7f      	subs	r2, #127	@ 0x7f
100012f8:	b200      	sxth	r0, r0
100012fa:	9300      	str	r3, [sp, #0]
100012fc:	b209      	sxth	r1, r1
100012fe:	2387      	movs	r3, #135	@ 0x87
10001300:	3aff      	subs	r2, #255	@ 0xff
10001302:	f001 fb3f 	bl	10002984 <fillRect>
10001306:	8868      	ldrh	r0, [r5, #2]
10001308:	7c2b      	ldrb	r3, [r5, #16]
1000130a:	3005      	adds	r0, #5
1000130c:	b200      	sxth	r0, r0
1000130e:	8068      	strh	r0, [r5, #2]
10001310:	2b00      	cmp	r3, #0
10001312:	d000      	beq.n	10001316 <protothread_anim1+0xc06>
10001314:	e560      	b.n	10000dd8 <protothread_anim1+0x6c8>
10001316:	3301      	adds	r3, #1
10001318:	742b      	strb	r3, [r5, #16]
1000131a:	e55d      	b.n	10000dd8 <protothread_anim1+0x6c8>
1000131c:	68f3      	ldr	r3, [r6, #12]
1000131e:	2b63      	cmp	r3, #99	@ 0x63
10001320:	dd01      	ble.n	10001326 <protothread_anim1+0xc16>
10001322:	f7ff fbf2 	bl	10000b0a <protothread_anim1+0x3fa>
10001326:	2300      	movs	r3, #0
10001328:	2206      	movs	r2, #6
1000132a:	9300      	str	r3, [sp, #0]
1000132c:	212b      	movs	r1, #43	@ 0x2b
1000132e:	4813      	ldr	r0, [pc, #76]	@ (1000137c <protothread_anim1+0xc6c>)
10001330:	3308      	adds	r3, #8
10001332:	f001 fb27 	bl	10002984 <fillRect>
10001336:	f7ff fbe8 	bl	10000b0a <protothread_anim1+0x3fa>
1000133a:	68eb      	ldr	r3, [r5, #12]
1000133c:	2b63      	cmp	r3, #99	@ 0x63
1000133e:	dd01      	ble.n	10001344 <protothread_anim1+0xc34>
10001340:	f7ff fbd7 	bl	10000af2 <protothread_anim1+0x3e2>
10001344:	2300      	movs	r3, #0
10001346:	2004      	movs	r0, #4
10001348:	9300      	str	r3, [sp, #0]
1000134a:	2206      	movs	r2, #6
1000134c:	212b      	movs	r1, #43	@ 0x2b
1000134e:	3308      	adds	r3, #8
10001350:	30ff      	adds	r0, #255	@ 0xff
10001352:	f001 fb17 	bl	10002984 <fillRect>
10001356:	f7ff fbcc 	bl	10000af2 <protothread_anim1+0x3e2>
1000135a:	46c0      	nop			@ (mov r8, r8)
1000135c:	2000060c 	.word	0x2000060c
10001360:	200005dc 	.word	0x200005dc
10001364:	47ae147b 	.word	0x47ae147b
10001368:	3f847ae1 	.word	0x3f847ae1
1000136c:	200008d4 	.word	0x200008d4
10001370:	200261b7 	.word	0x200261b7
10001374:	200261b5 	.word	0x200261b5
10001378:	00000226 	.word	0x00000226
1000137c:	00000239 	.word	0x00000239
10001380:	79ab      	ldrb	r3, [r5, #6]
10001382:	2b00      	cmp	r3, #0
10001384:	d100      	bne.n	10001388 <protothread_anim1+0xc78>
10001386:	e27b      	b.n	10001880 <protothread_anim1+0x1170>
10001388:	2304      	movs	r3, #4
1000138a:	5ee9      	ldrsh	r1, [r5, r3]
1000138c:	2302      	movs	r3, #2
1000138e:	5ee8      	ldrsh	r0, [r5, r3]
10001390:	000b      	movs	r3, r1
10001392:	330c      	adds	r3, #12
10001394:	0002      	movs	r2, r0
10001396:	b21b      	sxth	r3, r3
10001398:	469a      	mov	sl, r3
1000139a:	783b      	ldrb	r3, [r7, #0]
1000139c:	3a09      	subs	r2, #9
1000139e:	b212      	sxth	r2, r2
100013a0:	9300      	str	r3, [sp, #0]
100013a2:	4653      	mov	r3, sl
100013a4:	f000 feac 	bl	10002100 <drawLine>
100013a8:	8868      	ldrh	r0, [r5, #2]
100013aa:	2204      	movs	r2, #4
100013ac:	5eab      	ldrsh	r3, [r5, r2]
100013ae:	0002      	movs	r2, r0
100013b0:	3a1e      	subs	r2, #30
100013b2:	0019      	movs	r1, r3
100013b4:	b212      	sxth	r2, r2
100013b6:	4692      	mov	sl, r2
100013b8:	783a      	ldrb	r2, [r7, #0]
100013ba:	310c      	adds	r1, #12
100013bc:	3809      	subs	r0, #9
100013be:	b209      	sxth	r1, r1
100013c0:	b200      	sxth	r0, r0
100013c2:	9200      	str	r2, [sp, #0]
100013c4:	4652      	mov	r2, sl
100013c6:	f000 fe9b 	bl	10002100 <drawLine>
100013ca:	88a9      	ldrh	r1, [r5, #4]
100013cc:	8868      	ldrh	r0, [r5, #2]
100013ce:	000b      	movs	r3, r1
100013d0:	3b27      	subs	r3, #39	@ 0x27
100013d2:	0002      	movs	r2, r0
100013d4:	b21b      	sxth	r3, r3
100013d6:	469a      	mov	sl, r3
100013d8:	783b      	ldrb	r3, [r7, #0]
100013da:	3a45      	subs	r2, #69	@ 0x45
100013dc:	3106      	adds	r1, #6
100013de:	3818      	subs	r0, #24
100013e0:	b212      	sxth	r2, r2
100013e2:	b209      	sxth	r1, r1
100013e4:	b200      	sxth	r0, r0
100013e6:	9300      	str	r3, [sp, #0]
100013e8:	4653      	mov	r3, sl
100013ea:	f000 fe89 	bl	10002100 <drawLine>
100013ee:	8868      	ldrh	r0, [r5, #2]
100013f0:	88a9      	ldrh	r1, [r5, #4]
100013f2:	0002      	movs	r2, r0
100013f4:	1c8b      	adds	r3, r1, #2
100013f6:	b21b      	sxth	r3, r3
100013f8:	3a23      	subs	r2, #35	@ 0x23
100013fa:	3905      	subs	r1, #5
100013fc:	469a      	mov	sl, r3
100013fe:	b212      	sxth	r2, r2
10001400:	b209      	sxth	r1, r1
10001402:	381d      	subs	r0, #29
10001404:	e614      	b.n	10001030 <protothread_anim1+0x920>
10001406:	79ab      	ldrb	r3, [r5, #6]
10001408:	2b00      	cmp	r3, #0
1000140a:	d100      	bne.n	1000140e <protothread_anim1+0xcfe>
1000140c:	e5d2      	b.n	10000fb4 <protothread_anim1+0x8a4>
1000140e:	2304      	movs	r3, #4
10001410:	5ee9      	ldrsh	r1, [r5, r3]
10001412:	2302      	movs	r3, #2
10001414:	5ee8      	ldrsh	r0, [r5, r3]
10001416:	1ccb      	adds	r3, r1, #3
10001418:	0002      	movs	r2, r0
1000141a:	b21b      	sxth	r3, r3
1000141c:	469a      	mov	sl, r3
1000141e:	783b      	ldrb	r3, [r7, #0]
10001420:	321e      	adds	r2, #30
10001422:	9300      	str	r3, [sp, #0]
10001424:	b212      	sxth	r2, r2
10001426:	4653      	mov	r3, sl
10001428:	f000 fe6a 	bl	10002100 <drawLine>
1000142c:	88a9      	ldrh	r1, [r5, #4]
1000142e:	8868      	ldrh	r0, [r5, #2]
10001430:	3103      	adds	r1, #3
10001432:	3018      	adds	r0, #24
10001434:	223c      	movs	r2, #60	@ 0x3c
10001436:	783b      	ldrb	r3, [r7, #0]
10001438:	b209      	sxth	r1, r1
1000143a:	b200      	sxth	r0, r0
1000143c:	f000 fe0e 	bl	1000205c <drawHLine>
10001440:	8868      	ldrh	r0, [r5, #2]
10001442:	2204      	movs	r2, #4
10001444:	5ea9      	ldrsh	r1, [r5, r2]
10001446:	301e      	adds	r0, #30
10001448:	2206      	movs	r2, #6
1000144a:	783b      	ldrb	r3, [r7, #0]
1000144c:	b200      	sxth	r0, r0
1000144e:	f000 fdb5 	bl	10001fbc <drawVLine>
10001452:	e5f3      	b.n	1000103c <protothread_anim1+0x92c>
10001454:	2300      	movs	r3, #0
10001456:	2206      	movs	r2, #6
10001458:	9300      	str	r3, [sp, #0]
1000145a:	212b      	movs	r1, #43	@ 0x2b
1000145c:	48da      	ldr	r0, [pc, #872]	@ (100017c8 <protothread_anim1+0x10b8>)
1000145e:	3308      	adds	r3, #8
10001460:	f001 fa90 	bl	10002984 <fillRect>
10001464:	f7ff fb51 	bl	10000b0a <protothread_anim1+0x3fa>
10001468:	2300      	movs	r3, #0
1000146a:	2206      	movs	r2, #6
1000146c:	9300      	str	r3, [sp, #0]
1000146e:	212b      	movs	r1, #43	@ 0x2b
10001470:	20fd      	movs	r0, #253	@ 0xfd
10001472:	3308      	adds	r3, #8
10001474:	f001 fa86 	bl	10002984 <fillRect>
10001478:	f7ff fb3b 	bl	10000af2 <protothread_anim1+0x3e2>
1000147c:	88b1      	ldrh	r1, [r6, #4]
1000147e:	2302      	movs	r3, #2
10001480:	5ef0      	ldrsh	r0, [r6, r3]
10001482:	000b      	movs	r3, r1
10001484:	3335      	adds	r3, #53	@ 0x35
10001486:	b21b      	sxth	r3, r3
10001488:	469a      	mov	sl, r3
1000148a:	7823      	ldrb	r3, [r4, #0]
1000148c:	1f82      	subs	r2, r0, #6
1000148e:	311e      	adds	r1, #30
10001490:	b212      	sxth	r2, r2
10001492:	b209      	sxth	r1, r1
10001494:	9300      	str	r3, [sp, #0]
10001496:	4653      	mov	r3, sl
10001498:	f000 fe32 	bl	10002100 <drawLine>
1000149c:	88b1      	ldrh	r1, [r6, #4]
1000149e:	8870      	ldrh	r0, [r6, #2]
100014a0:	000b      	movs	r3, r1
100014a2:	334b      	adds	r3, #75	@ 0x4b
100014a4:	0002      	movs	r2, r0
100014a6:	b21b      	sxth	r3, r3
100014a8:	469a      	mov	sl, r3
100014aa:	7823      	ldrb	r3, [r4, #0]
100014ac:	3a0f      	subs	r2, #15
100014ae:	3135      	adds	r1, #53	@ 0x35
100014b0:	3806      	subs	r0, #6
100014b2:	b212      	sxth	r2, r2
100014b4:	b209      	sxth	r1, r1
100014b6:	b200      	sxth	r0, r0
100014b8:	9300      	str	r3, [sp, #0]
100014ba:	4653      	mov	r3, sl
100014bc:	f000 fe20 	bl	10002100 <drawLine>
100014c0:	88b1      	ldrh	r1, [r6, #4]
100014c2:	2302      	movs	r3, #2
100014c4:	5ef0      	ldrsh	r0, [r6, r3]
100014c6:	000b      	movs	r3, r1
100014c8:	3335      	adds	r3, #53	@ 0x35
100014ca:	0002      	movs	r2, r0
100014cc:	b21b      	sxth	r3, r3
100014ce:	469a      	mov	sl, r3
100014d0:	7823      	ldrb	r3, [r4, #0]
100014d2:	320f      	adds	r2, #15
100014d4:	311e      	adds	r1, #30
100014d6:	b212      	sxth	r2, r2
100014d8:	b209      	sxth	r1, r1
100014da:	9300      	str	r3, [sp, #0]
100014dc:	4653      	mov	r3, sl
100014de:	f000 fe0f 	bl	10002100 <drawLine>
100014e2:	88b1      	ldrh	r1, [r6, #4]
100014e4:	8870      	ldrh	r0, [r6, #2]
100014e6:	3135      	adds	r1, #53	@ 0x35
100014e8:	300f      	adds	r0, #15
100014ea:	7823      	ldrb	r3, [r4, #0]
100014ec:	2216      	movs	r2, #22
100014ee:	b209      	sxth	r1, r1
100014f0:	b200      	sxth	r0, r0
100014f2:	f000 fd63 	bl	10001fbc <drawVLine>
100014f6:	2304      	movs	r3, #4
100014f8:	5ef1      	ldrsh	r1, [r6, r3]
100014fa:	2302      	movs	r3, #2
100014fc:	5ef0      	ldrsh	r0, [r6, r3]
100014fe:	000b      	movs	r3, r1
10001500:	331e      	adds	r3, #30
10001502:	0002      	movs	r2, r0
10001504:	b21b      	sxth	r3, r3
10001506:	469a      	mov	sl, r3
10001508:	7823      	ldrb	r3, [r4, #0]
1000150a:	3a0f      	subs	r2, #15
1000150c:	9300      	str	r3, [sp, #0]
1000150e:	b212      	sxth	r2, r2
10001510:	4653      	mov	r3, sl
10001512:	f000 fdf5 	bl	10002100 <drawLine>
10001516:	79f3      	ldrb	r3, [r6, #7]
10001518:	2b00      	cmp	r3, #0
1000151a:	d000      	beq.n	1000151e <protothread_anim1+0xe0e>
1000151c:	e0a2      	b.n	10001664 <protothread_anim1+0xf54>
1000151e:	79b3      	ldrb	r3, [r6, #6]
10001520:	2b00      	cmp	r3, #0
10001522:	d000      	beq.n	10001526 <protothread_anim1+0xe16>
10001524:	e240      	b.n	100019a8 <protothread_anim1+0x1298>
10001526:	2304      	movs	r3, #4
10001528:	5ef1      	ldrsh	r1, [r6, r3]
1000152a:	2302      	movs	r3, #2
1000152c:	5ef0      	ldrsh	r0, [r6, r3]
1000152e:	000b      	movs	r3, r1
10001530:	330c      	adds	r3, #12
10001532:	0002      	movs	r2, r0
10001534:	b21b      	sxth	r3, r3
10001536:	469a      	mov	sl, r3
10001538:	7823      	ldrb	r3, [r4, #0]
1000153a:	3209      	adds	r2, #9
1000153c:	b212      	sxth	r2, r2
1000153e:	9300      	str	r3, [sp, #0]
10001540:	4653      	mov	r3, sl
10001542:	f000 fddd 	bl	10002100 <drawLine>
10001546:	8870      	ldrh	r0, [r6, #2]
10001548:	2204      	movs	r2, #4
1000154a:	5eb3      	ldrsh	r3, [r6, r2]
1000154c:	0002      	movs	r2, r0
1000154e:	321e      	adds	r2, #30
10001550:	0019      	movs	r1, r3
10001552:	b212      	sxth	r2, r2
10001554:	4692      	mov	sl, r2
10001556:	7822      	ldrb	r2, [r4, #0]
10001558:	310c      	adds	r1, #12
1000155a:	3009      	adds	r0, #9
1000155c:	b209      	sxth	r1, r1
1000155e:	b200      	sxth	r0, r0
10001560:	9200      	str	r2, [sp, #0]
10001562:	4652      	mov	r2, sl
10001564:	f000 fdcc 	bl	10002100 <drawLine>
10001568:	88b1      	ldrh	r1, [r6, #4]
1000156a:	8870      	ldrh	r0, [r6, #2]
1000156c:	000b      	movs	r3, r1
1000156e:	3b27      	subs	r3, #39	@ 0x27
10001570:	0002      	movs	r2, r0
10001572:	b21b      	sxth	r3, r3
10001574:	469a      	mov	sl, r3
10001576:	7823      	ldrb	r3, [r4, #0]
10001578:	3245      	adds	r2, #69	@ 0x45
1000157a:	3106      	adds	r1, #6
1000157c:	3018      	adds	r0, #24
1000157e:	b212      	sxth	r2, r2
10001580:	b209      	sxth	r1, r1
10001582:	b200      	sxth	r0, r0
10001584:	9300      	str	r3, [sp, #0]
10001586:	4653      	mov	r3, sl
10001588:	f000 fdba 	bl	10002100 <drawLine>
1000158c:	8870      	ldrh	r0, [r6, #2]
1000158e:	88b1      	ldrh	r1, [r6, #4]
10001590:	0002      	movs	r2, r0
10001592:	1c8b      	adds	r3, r1, #2
10001594:	b21b      	sxth	r3, r3
10001596:	3223      	adds	r2, #35	@ 0x23
10001598:	3905      	subs	r1, #5
1000159a:	469a      	mov	sl, r3
1000159c:	b212      	sxth	r2, r2
1000159e:	b209      	sxth	r1, r1
100015a0:	301d      	adds	r0, #29
100015a2:	e62a      	b.n	100011fa <protothread_anim1+0xaea>
100015a4:	330f      	adds	r3, #15
100015a6:	2b1e      	cmp	r3, #30
100015a8:	d859      	bhi.n	1000165e <protothread_anim1+0xf4e>
100015aa:	2380      	movs	r3, #128	@ 0x80
100015ac:	005b      	lsls	r3, r3, #1
100015ae:	80f3      	strh	r3, [r6, #6]
100015b0:	e569      	b.n	10001086 <protothread_anim1+0x976>
100015b2:	4288      	cmp	r0, r1
100015b4:	dc00      	bgt.n	100015b8 <protothread_anim1+0xea8>
100015b6:	e671      	b.n	1000129c <protothread_anim1+0xb8c>
100015b8:	7c2a      	ldrb	r2, [r5, #16]
100015ba:	7c33      	ldrb	r3, [r6, #16]
100015bc:	2a00      	cmp	r2, #0
100015be:	d000      	beq.n	100015c2 <protothread_anim1+0xeb2>
100015c0:	e145      	b.n	1000184e <protothread_anim1+0x113e>
100015c2:	79aa      	ldrb	r2, [r5, #6]
100015c4:	2b00      	cmp	r3, #0
100015c6:	d100      	bne.n	100015ca <protothread_anim1+0xeba>
100015c8:	e22a      	b.n	10001a20 <protothread_anim1+0x1310>
100015ca:	2a00      	cmp	r2, #0
100015cc:	d014      	beq.n	100015f8 <protothread_anim1+0xee8>
100015ce:	79f2      	ldrb	r2, [r6, #7]
100015d0:	2a00      	cmp	r2, #0
100015d2:	d111      	bne.n	100015f8 <protothread_anim1+0xee8>
100015d4:	1a41      	subs	r1, r0, r1
100015d6:	391e      	subs	r1, #30
100015d8:	2954      	cmp	r1, #84	@ 0x54
100015da:	d80d      	bhi.n	100015f8 <protothread_anim1+0xee8>
100015dc:	68f3      	ldr	r3, [r6, #12]
100015de:	212b      	movs	r1, #43	@ 0x2b
100015e0:	1e58      	subs	r0, r3, #1
100015e2:	60f0      	str	r0, [r6, #12]
100015e4:	0040      	lsls	r0, r0, #1
100015e6:	3060      	adds	r0, #96	@ 0x60
100015e8:	30ff      	adds	r0, #255	@ 0xff
100015ea:	469b      	mov	fp, r3
100015ec:	9200      	str	r2, [sp, #0]
100015ee:	2308      	movs	r3, #8
100015f0:	b200      	sxth	r0, r0
100015f2:	3202      	adds	r2, #2
100015f4:	f001 f9c6 	bl	10002984 <fillRect>
100015f8:	79b3      	ldrb	r3, [r6, #6]
100015fa:	469c      	mov	ip, r3
100015fc:	4662      	mov	r2, ip
100015fe:	79eb      	ldrb	r3, [r5, #7]
10001600:	2a00      	cmp	r2, #0
10001602:	d00b      	beq.n	1000161c <protothread_anim1+0xf0c>
10001604:	2b00      	cmp	r3, #0
10001606:	d000      	beq.n	1000160a <protothread_anim1+0xefa>
10001608:	e217      	b.n	10001a3a <protothread_anim1+0x132a>
1000160a:	2102      	movs	r1, #2
1000160c:	5e6a      	ldrsh	r2, [r5, r1]
1000160e:	2002      	movs	r0, #2
10001610:	5e31      	ldrsh	r1, [r6, r0]
10001612:	1a52      	subs	r2, r2, r1
10001614:	3a1e      	subs	r2, #30
10001616:	2a54      	cmp	r2, #84	@ 0x54
10001618:	d800      	bhi.n	1000161c <protothread_anim1+0xf0c>
1000161a:	e632      	b.n	10001282 <protothread_anim1+0xb72>
1000161c:	79f1      	ldrb	r1, [r6, #7]
1000161e:	79aa      	ldrb	r2, [r5, #6]
10001620:	468a      	mov	sl, r1
10001622:	e641      	b.n	100012a8 <protothread_anim1+0xb98>
10001624:	4652      	mov	r2, sl
10001626:	2a00      	cmp	r2, #0
10001628:	d100      	bne.n	1000162c <protothread_anim1+0xf1c>
1000162a:	e53e      	b.n	100010aa <protothread_anim1+0x99a>
1000162c:	4a67      	ldr	r2, [pc, #412]	@ (100017cc <protothread_anim1+0x10bc>)
1000162e:	4290      	cmp	r0, r2
10001630:	dd00      	ble.n	10001634 <protothread_anim1+0xf24>
10001632:	e53a      	b.n	100010aa <protothread_anim1+0x99a>
10001634:	393c      	subs	r1, #60	@ 0x3c
10001636:	3854      	subs	r0, #84	@ 0x54
10001638:	3a7f      	subs	r2, #127	@ 0x7f
1000163a:	b200      	sxth	r0, r0
1000163c:	9300      	str	r3, [sp, #0]
1000163e:	b209      	sxth	r1, r1
10001640:	2387      	movs	r3, #135	@ 0x87
10001642:	3aff      	subs	r2, #255	@ 0xff
10001644:	f001 f99e 	bl	10002984 <fillRect>
10001648:	8870      	ldrh	r0, [r6, #2]
1000164a:	7c33      	ldrb	r3, [r6, #16]
1000164c:	3005      	adds	r0, #5
1000164e:	b200      	sxth	r0, r0
10001650:	8070      	strh	r0, [r6, #2]
10001652:	2b00      	cmp	r3, #0
10001654:	d000      	beq.n	10001658 <protothread_anim1+0xf48>
10001656:	e528      	b.n	100010aa <protothread_anim1+0x99a>
10001658:	3301      	adds	r3, #1
1000165a:	7433      	strb	r3, [r6, #16]
1000165c:	e525      	b.n	100010aa <protothread_anim1+0x99a>
1000165e:	2300      	movs	r3, #0
10001660:	80f3      	strh	r3, [r6, #6]
10001662:	e510      	b.n	10001086 <protothread_anim1+0x976>
10001664:	79b3      	ldrb	r3, [r6, #6]
10001666:	2b00      	cmp	r3, #0
10001668:	d000      	beq.n	1000166c <protothread_anim1+0xf5c>
1000166a:	e75c      	b.n	10001526 <protothread_anim1+0xe16>
1000166c:	2304      	movs	r3, #4
1000166e:	5ef1      	ldrsh	r1, [r6, r3]
10001670:	2302      	movs	r3, #2
10001672:	5ef0      	ldrsh	r0, [r6, r3]
10001674:	000b      	movs	r3, r1
10001676:	3317      	adds	r3, #23
10001678:	0002      	movs	r2, r0
1000167a:	b21b      	sxth	r3, r3
1000167c:	469a      	mov	sl, r3
1000167e:	7823      	ldrb	r3, [r4, #0]
10001680:	320b      	adds	r2, #11
10001682:	9300      	str	r3, [sp, #0]
10001684:	b212      	sxth	r2, r2
10001686:	4653      	mov	r3, sl
10001688:	f000 fd3a 	bl	10002100 <drawLine>
1000168c:	88b1      	ldrh	r1, [r6, #4]
1000168e:	8870      	ldrh	r0, [r6, #2]
10001690:	000b      	movs	r3, r1
10001692:	330f      	adds	r3, #15
10001694:	0002      	movs	r2, r0
10001696:	b21b      	sxth	r3, r3
10001698:	469a      	mov	sl, r3
1000169a:	7823      	ldrb	r3, [r4, #0]
1000169c:	3218      	adds	r2, #24
1000169e:	3117      	adds	r1, #23
100016a0:	300b      	adds	r0, #11
100016a2:	9300      	str	r3, [sp, #0]
100016a4:	b212      	sxth	r2, r2
100016a6:	4653      	mov	r3, sl
100016a8:	b209      	sxth	r1, r1
100016aa:	b200      	sxth	r0, r0
100016ac:	f000 fd28 	bl	10002100 <drawLine>
100016b0:	88b1      	ldrh	r1, [r6, #4]
100016b2:	8870      	ldrh	r0, [r6, #2]
100016b4:	3925      	subs	r1, #37	@ 0x25
100016b6:	3018      	adds	r0, #24
100016b8:	7823      	ldrb	r3, [r4, #0]
100016ba:	223c      	movs	r2, #60	@ 0x3c
100016bc:	b209      	sxth	r1, r1
100016be:	b200      	sxth	r0, r0
100016c0:	f000 fc7c 	bl	10001fbc <drawVLine>
100016c4:	88b1      	ldrh	r1, [r6, #4]
100016c6:	8870      	ldrh	r0, [r6, #2]
100016c8:	310c      	adds	r1, #12
100016ca:	3013      	adds	r0, #19
100016cc:	220a      	movs	r2, #10
100016ce:	7823      	ldrb	r3, [r4, #0]
100016d0:	b209      	sxth	r1, r1
100016d2:	b200      	sxth	r0, r0
100016d4:	f000 fcc2 	bl	1000205c <drawHLine>
100016d8:	e595      	b.n	10001206 <protothread_anim1+0xaf6>
100016da:	79b3      	ldrb	r3, [r6, #6]
100016dc:	2b00      	cmp	r3, #0
100016de:	d000      	beq.n	100016e2 <protothread_anim1+0xfd2>
100016e0:	e54d      	b.n	1000117e <protothread_anim1+0xa6e>
100016e2:	2304      	movs	r3, #4
100016e4:	5ef1      	ldrsh	r1, [r6, r3]
100016e6:	2302      	movs	r3, #2
100016e8:	5ef0      	ldrsh	r0, [r6, r3]
100016ea:	000b      	movs	r3, r1
100016ec:	3317      	adds	r3, #23
100016ee:	0002      	movs	r2, r0
100016f0:	b21b      	sxth	r3, r3
100016f2:	469a      	mov	sl, r3
100016f4:	7823      	ldrb	r3, [r4, #0]
100016f6:	3a0b      	subs	r2, #11
100016f8:	9300      	str	r3, [sp, #0]
100016fa:	b212      	sxth	r2, r2
100016fc:	4653      	mov	r3, sl
100016fe:	f000 fcff 	bl	10002100 <drawLine>
10001702:	88b1      	ldrh	r1, [r6, #4]
10001704:	8870      	ldrh	r0, [r6, #2]
10001706:	000b      	movs	r3, r1
10001708:	330f      	adds	r3, #15
1000170a:	0002      	movs	r2, r0
1000170c:	b21b      	sxth	r3, r3
1000170e:	469a      	mov	sl, r3
10001710:	7823      	ldrb	r3, [r4, #0]
10001712:	3a18      	subs	r2, #24
10001714:	3117      	adds	r1, #23
10001716:	380b      	subs	r0, #11
10001718:	9300      	str	r3, [sp, #0]
1000171a:	b212      	sxth	r2, r2
1000171c:	4653      	mov	r3, sl
1000171e:	b209      	sxth	r1, r1
10001720:	b200      	sxth	r0, r0
10001722:	f000 fced 	bl	10002100 <drawLine>
10001726:	88b1      	ldrh	r1, [r6, #4]
10001728:	8870      	ldrh	r0, [r6, #2]
1000172a:	3925      	subs	r1, #37	@ 0x25
1000172c:	3818      	subs	r0, #24
1000172e:	7823      	ldrb	r3, [r4, #0]
10001730:	223c      	movs	r2, #60	@ 0x3c
10001732:	b209      	sxth	r1, r1
10001734:	b200      	sxth	r0, r0
10001736:	f000 fc41 	bl	10001fbc <drawVLine>
1000173a:	88b1      	ldrh	r1, [r6, #4]
1000173c:	8870      	ldrh	r0, [r6, #2]
1000173e:	310c      	adds	r1, #12
10001740:	381d      	subs	r0, #29
10001742:	220a      	movs	r2, #10
10001744:	7823      	ldrb	r3, [r4, #0]
10001746:	b209      	sxth	r1, r1
10001748:	b200      	sxth	r0, r0
1000174a:	f000 fc87 	bl	1000205c <drawHLine>
1000174e:	e55a      	b.n	10001206 <protothread_anim1+0xaf6>
10001750:	79aa      	ldrb	r2, [r5, #6]
10001752:	2b00      	cmp	r3, #0
10001754:	d149      	bne.n	100017ea <protothread_anim1+0x10da>
10001756:	2a00      	cmp	r2, #0
10001758:	d014      	beq.n	10001784 <protothread_anim1+0x1074>
1000175a:	79f3      	ldrb	r3, [r6, #7]
1000175c:	2b00      	cmp	r3, #0
1000175e:	d111      	bne.n	10001784 <protothread_anim1+0x1074>
10001760:	1a09      	subs	r1, r1, r0
10001762:	391e      	subs	r1, #30
10001764:	2954      	cmp	r1, #84	@ 0x54
10001766:	d80d      	bhi.n	10001784 <protothread_anim1+0x1074>
10001768:	68f2      	ldr	r2, [r6, #12]
1000176a:	212b      	movs	r1, #43	@ 0x2b
1000176c:	1e50      	subs	r0, r2, #1
1000176e:	60f0      	str	r0, [r6, #12]
10001770:	0040      	lsls	r0, r0, #1
10001772:	3060      	adds	r0, #96	@ 0x60
10001774:	30ff      	adds	r0, #255	@ 0xff
10001776:	4693      	mov	fp, r2
10001778:	9300      	str	r3, [sp, #0]
1000177a:	2202      	movs	r2, #2
1000177c:	b200      	sxth	r0, r0
1000177e:	3308      	adds	r3, #8
10001780:	f001 f900 	bl	10002984 <fillRect>
10001784:	79b3      	ldrb	r3, [r6, #6]
10001786:	469c      	mov	ip, r3
10001788:	4662      	mov	r2, ip
1000178a:	79eb      	ldrb	r3, [r5, #7]
1000178c:	2a00      	cmp	r2, #0
1000178e:	d100      	bne.n	10001792 <protothread_anim1+0x1082>
10001790:	e744      	b.n	1000161c <protothread_anim1+0xf0c>
10001792:	2b00      	cmp	r3, #0
10001794:	d000      	beq.n	10001798 <protothread_anim1+0x1088>
10001796:	e150      	b.n	10001a3a <protothread_anim1+0x132a>
10001798:	2102      	movs	r1, #2
1000179a:	5e72      	ldrsh	r2, [r6, r1]
1000179c:	2002      	movs	r0, #2
1000179e:	5e29      	ldrsh	r1, [r5, r0]
100017a0:	1a52      	subs	r2, r2, r1
100017a2:	3a1e      	subs	r2, #30
100017a4:	2a54      	cmp	r2, #84	@ 0x54
100017a6:	d800      	bhi.n	100017aa <protothread_anim1+0x109a>
100017a8:	e56b      	b.n	10001282 <protothread_anim1+0xb72>
100017aa:	e737      	b.n	1000161c <protothread_anim1+0xf0c>
100017ac:	4642      	mov	r2, r8
100017ae:	2301      	movs	r3, #1
100017b0:	8013      	strh	r3, [r2, #0]
100017b2:	783b      	ldrb	r3, [r7, #0]
100017b4:	22ca      	movs	r2, #202	@ 0xca
100017b6:	9300      	str	r3, [sp, #0]
100017b8:	212a      	movs	r1, #42	@ 0x2a
100017ba:	230a      	movs	r3, #10
100017bc:	2028      	movs	r0, #40	@ 0x28
100017be:	f000 fd8d 	bl	100022dc <drawRect>
100017c2:	f7ff f8a7 	bl	10000914 <protothread_anim1+0x204>
100017c6:	46c0      	nop			@ (mov r8, r8)
100017c8:	00000233 	.word	0x00000233
100017cc:	00000226 	.word	0x00000226
100017d0:	79f1      	ldrb	r1, [r6, #7]
100017d2:	468a      	mov	sl, r1
100017d4:	7a31      	ldrb	r1, [r6, #8]
100017d6:	4551      	cmp	r1, sl
100017d8:	d000      	beq.n	100017dc <protothread_anim1+0x10cc>
100017da:	e51d      	b.n	10001218 <protothread_anim1+0xb08>
100017dc:	7a71      	ldrb	r1, [r6, #9]
100017de:	468c      	mov	ip, r1
100017e0:	79b1      	ldrb	r1, [r6, #6]
100017e2:	4561      	cmp	r1, ip
100017e4:	d000      	beq.n	100017e8 <protothread_anim1+0x10d8>
100017e6:	e517      	b.n	10001218 <protothread_anim1+0xb08>
100017e8:	e55e      	b.n	100012a8 <protothread_anim1+0xb98>
100017ea:	2a00      	cmp	r2, #0
100017ec:	d042      	beq.n	10001874 <protothread_anim1+0x1164>
100017ee:	1a09      	subs	r1, r1, r0
100017f0:	391e      	subs	r1, #30
100017f2:	2936      	cmp	r1, #54	@ 0x36
100017f4:	d83e      	bhi.n	10001874 <protothread_anim1+0x1164>
100017f6:	68f3      	ldr	r3, [r6, #12]
100017f8:	1e58      	subs	r0, r3, #1
100017fa:	60f0      	str	r0, [r6, #12]
100017fc:	0040      	lsls	r0, r0, #1
100017fe:	3060      	adds	r0, #96	@ 0x60
10001800:	30ff      	adds	r0, #255	@ 0xff
10001802:	469b      	mov	fp, r3
10001804:	b200      	sxth	r0, r0
10001806:	4653      	mov	r3, sl
10001808:	e542      	b.n	10001290 <protothread_anim1+0xb80>
1000180a:	2100      	movs	r1, #0
1000180c:	2007      	movs	r0, #7
1000180e:	9c02      	ldr	r4, [sp, #8]
10001810:	f001 fabc 	bl	10002d8c <setTextColor2>
10001814:	21c8      	movs	r1, #200	@ 0xc8
10001816:	20c8      	movs	r0, #200	@ 0xc8
10001818:	f001 faa4 	bl	10002d64 <setCursor>
1000181c:	2003      	movs	r0, #3
1000181e:	f001 faab 	bl	10002d78 <setTextSize>
10001822:	489e      	ldr	r0, [pc, #632]	@ (10001a9c <protothread_anim1+0x138c>)
10001824:	4b9e      	ldr	r3, [pc, #632]	@ (10001aa0 <protothread_anim1+0x1390>)
10001826:	0002      	movs	r2, r0
10001828:	cb62      	ldmia	r3!, {r1, r5, r6}
1000182a:	c262      	stmia	r2!, {r1, r5, r6}
1000182c:	8819      	ldrh	r1, [r3, #0]
1000182e:	8011      	strh	r1, [r2, #0]
10001830:	789b      	ldrb	r3, [r3, #2]
10001832:	7093      	strb	r3, [r2, #2]
10001834:	f001 fab4 	bl	10002da0 <writeString>
10001838:	499a      	ldr	r1, [pc, #616]	@ (10001aa4 <protothread_anim1+0x1394>)
1000183a:	4b9b      	ldr	r3, [pc, #620]	@ (10001aa8 <protothread_anim1+0x1398>)
1000183c:	468c      	mov	ip, r1
1000183e:	6a9b      	ldr	r3, [r3, #40]	@ 0x28
10001840:	4a9a      	ldr	r2, [pc, #616]	@ (10001aac <protothread_anim1+0x139c>)
10001842:	4463      	add	r3, ip
10001844:	6013      	str	r3, [r2, #0]
10001846:	4b9a      	ldr	r3, [pc, #616]	@ (10001ab0 <protothread_anim1+0x13a0>)
10001848:	6023      	str	r3, [r4, #0]
1000184a:	f7fe ffa6 	bl	1000079a <protothread_anim1+0x8a>
1000184e:	79f2      	ldrb	r2, [r6, #7]
10001850:	4692      	mov	sl, r2
10001852:	79b2      	ldrb	r2, [r6, #6]
10001854:	4694      	mov	ip, r2
10001856:	2b00      	cmp	r3, #0
10001858:	d009      	beq.n	1000186e <protothread_anim1+0x115e>
1000185a:	2a00      	cmp	r2, #0
1000185c:	d007      	beq.n	1000186e <protothread_anim1+0x115e>
1000185e:	4653      	mov	r3, sl
10001860:	2b00      	cmp	r3, #0
10001862:	d100      	bne.n	10001866 <protothread_anim1+0x1156>
10001864:	e0fb      	b.n	10001a5e <protothread_anim1+0x134e>
10001866:	46d4      	mov	ip, sl
10001868:	79eb      	ldrb	r3, [r5, #7]
1000186a:	79aa      	ldrb	r2, [r5, #6]
1000186c:	e51c      	b.n	100012a8 <protothread_anim1+0xb98>
1000186e:	79eb      	ldrb	r3, [r5, #7]
10001870:	79aa      	ldrb	r2, [r5, #6]
10001872:	e519      	b.n	100012a8 <protothread_anim1+0xb98>
10001874:	79f1      	ldrb	r1, [r6, #7]
10001876:	79eb      	ldrb	r3, [r5, #7]
10001878:	468a      	mov	sl, r1
1000187a:	79b1      	ldrb	r1, [r6, #6]
1000187c:	468c      	mov	ip, r1
1000187e:	e513      	b.n	100012a8 <protothread_anim1+0xb98>
10001880:	2304      	movs	r3, #4
10001882:	5ee9      	ldrsh	r1, [r5, r3]
10001884:	2302      	movs	r3, #2
10001886:	5ee8      	ldrsh	r0, [r5, r3]
10001888:	000b      	movs	r3, r1
1000188a:	3317      	adds	r3, #23
1000188c:	0002      	movs	r2, r0
1000188e:	b21b      	sxth	r3, r3
10001890:	469a      	mov	sl, r3
10001892:	783b      	ldrb	r3, [r7, #0]
10001894:	3a0b      	subs	r2, #11
10001896:	9300      	str	r3, [sp, #0]
10001898:	b212      	sxth	r2, r2
1000189a:	4653      	mov	r3, sl
1000189c:	f000 fc30 	bl	10002100 <drawLine>
100018a0:	88a9      	ldrh	r1, [r5, #4]
100018a2:	8868      	ldrh	r0, [r5, #2]
100018a4:	000b      	movs	r3, r1
100018a6:	330f      	adds	r3, #15
100018a8:	0002      	movs	r2, r0
100018aa:	b21b      	sxth	r3, r3
100018ac:	469a      	mov	sl, r3
100018ae:	783b      	ldrb	r3, [r7, #0]
100018b0:	3a18      	subs	r2, #24
100018b2:	3117      	adds	r1, #23
100018b4:	380b      	subs	r0, #11
100018b6:	9300      	str	r3, [sp, #0]
100018b8:	b212      	sxth	r2, r2
100018ba:	4653      	mov	r3, sl
100018bc:	b209      	sxth	r1, r1
100018be:	b200      	sxth	r0, r0
100018c0:	f000 fc1e 	bl	10002100 <drawLine>
100018c4:	88a9      	ldrh	r1, [r5, #4]
100018c6:	8868      	ldrh	r0, [r5, #2]
100018c8:	3925      	subs	r1, #37	@ 0x25
100018ca:	3818      	subs	r0, #24
100018cc:	783b      	ldrb	r3, [r7, #0]
100018ce:	223c      	movs	r2, #60	@ 0x3c
100018d0:	b209      	sxth	r1, r1
100018d2:	b200      	sxth	r0, r0
100018d4:	f000 fb72 	bl	10001fbc <drawVLine>
100018d8:	88a9      	ldrh	r1, [r5, #4]
100018da:	8868      	ldrh	r0, [r5, #2]
100018dc:	310c      	adds	r1, #12
100018de:	381d      	subs	r0, #29
100018e0:	220a      	movs	r2, #10
100018e2:	783b      	ldrb	r3, [r7, #0]
100018e4:	b209      	sxth	r1, r1
100018e6:	b200      	sxth	r0, r0
100018e8:	f000 fbb8 	bl	1000205c <drawHLine>
100018ec:	f7ff fba6 	bl	1000103c <protothread_anim1+0x92c>
100018f0:	2304      	movs	r3, #4
100018f2:	5ee9      	ldrsh	r1, [r5, r3]
100018f4:	2302      	movs	r3, #2
100018f6:	5ee8      	ldrsh	r0, [r5, r3]
100018f8:	000b      	movs	r3, r1
100018fa:	3317      	adds	r3, #23
100018fc:	0002      	movs	r2, r0
100018fe:	b21b      	sxth	r3, r3
10001900:	469a      	mov	sl, r3
10001902:	783b      	ldrb	r3, [r7, #0]
10001904:	320b      	adds	r2, #11
10001906:	9300      	str	r3, [sp, #0]
10001908:	b212      	sxth	r2, r2
1000190a:	4653      	mov	r3, sl
1000190c:	f000 fbf8 	bl	10002100 <drawLine>
10001910:	88a9      	ldrh	r1, [r5, #4]
10001912:	8868      	ldrh	r0, [r5, #2]
10001914:	000b      	movs	r3, r1
10001916:	330f      	adds	r3, #15
10001918:	0002      	movs	r2, r0
1000191a:	b21b      	sxth	r3, r3
1000191c:	469a      	mov	sl, r3
1000191e:	783b      	ldrb	r3, [r7, #0]
10001920:	3218      	adds	r2, #24
10001922:	3117      	adds	r1, #23
10001924:	300b      	adds	r0, #11
10001926:	9300      	str	r3, [sp, #0]
10001928:	b212      	sxth	r2, r2
1000192a:	4653      	mov	r3, sl
1000192c:	b209      	sxth	r1, r1
1000192e:	b200      	sxth	r0, r0
10001930:	f000 fbe6 	bl	10002100 <drawLine>
10001934:	88a9      	ldrh	r1, [r5, #4]
10001936:	8868      	ldrh	r0, [r5, #2]
10001938:	3925      	subs	r1, #37	@ 0x25
1000193a:	3018      	adds	r0, #24
1000193c:	783b      	ldrb	r3, [r7, #0]
1000193e:	223c      	movs	r2, #60	@ 0x3c
10001940:	b209      	sxth	r1, r1
10001942:	b200      	sxth	r0, r0
10001944:	f000 fb3a 	bl	10001fbc <drawVLine>
10001948:	88a9      	ldrh	r1, [r5, #4]
1000194a:	8868      	ldrh	r0, [r5, #2]
1000194c:	310c      	adds	r1, #12
1000194e:	3013      	adds	r0, #19
10001950:	220a      	movs	r2, #10
10001952:	783b      	ldrb	r3, [r7, #0]
10001954:	b209      	sxth	r1, r1
10001956:	b200      	sxth	r0, r0
10001958:	f000 fb80 	bl	1000205c <drawHLine>
1000195c:	f7ff fb6e 	bl	1000103c <protothread_anim1+0x92c>
10001960:	2304      	movs	r3, #4
10001962:	5ef1      	ldrsh	r1, [r6, r3]
10001964:	2302      	movs	r3, #2
10001966:	5ef0      	ldrsh	r0, [r6, r3]
10001968:	1ccb      	adds	r3, r1, #3
1000196a:	0002      	movs	r2, r0
1000196c:	b21b      	sxth	r3, r3
1000196e:	469a      	mov	sl, r3
10001970:	7823      	ldrb	r3, [r4, #0]
10001972:	3a1e      	subs	r2, #30
10001974:	9300      	str	r3, [sp, #0]
10001976:	b212      	sxth	r2, r2
10001978:	4653      	mov	r3, sl
1000197a:	f000 fbc1 	bl	10002100 <drawLine>
1000197e:	88b1      	ldrh	r1, [r6, #4]
10001980:	8870      	ldrh	r0, [r6, #2]
10001982:	3103      	adds	r1, #3
10001984:	3854      	subs	r0, #84	@ 0x54
10001986:	223c      	movs	r2, #60	@ 0x3c
10001988:	7823      	ldrb	r3, [r4, #0]
1000198a:	b209      	sxth	r1, r1
1000198c:	b200      	sxth	r0, r0
1000198e:	f000 fb65 	bl	1000205c <drawHLine>
10001992:	8870      	ldrh	r0, [r6, #2]
10001994:	2204      	movs	r2, #4
10001996:	5eb1      	ldrsh	r1, [r6, r2]
10001998:	381e      	subs	r0, #30
1000199a:	2206      	movs	r2, #6
1000199c:	7823      	ldrb	r3, [r4, #0]
1000199e:	b200      	sxth	r0, r0
100019a0:	f000 fb0c 	bl	10001fbc <drawVLine>
100019a4:	f7ff fc2f 	bl	10001206 <protothread_anim1+0xaf6>
100019a8:	2304      	movs	r3, #4
100019aa:	5ef1      	ldrsh	r1, [r6, r3]
100019ac:	2302      	movs	r3, #2
100019ae:	5ef0      	ldrsh	r0, [r6, r3]
100019b0:	1ccb      	adds	r3, r1, #3
100019b2:	0002      	movs	r2, r0
100019b4:	b21b      	sxth	r3, r3
100019b6:	469a      	mov	sl, r3
100019b8:	7823      	ldrb	r3, [r4, #0]
100019ba:	321e      	adds	r2, #30
100019bc:	9300      	str	r3, [sp, #0]
100019be:	b212      	sxth	r2, r2
100019c0:	4653      	mov	r3, sl
100019c2:	f000 fb9d 	bl	10002100 <drawLine>
100019c6:	88b1      	ldrh	r1, [r6, #4]
100019c8:	8870      	ldrh	r0, [r6, #2]
100019ca:	3103      	adds	r1, #3
100019cc:	3018      	adds	r0, #24
100019ce:	223c      	movs	r2, #60	@ 0x3c
100019d0:	7823      	ldrb	r3, [r4, #0]
100019d2:	b209      	sxth	r1, r1
100019d4:	b200      	sxth	r0, r0
100019d6:	f000 fb41 	bl	1000205c <drawHLine>
100019da:	8870      	ldrh	r0, [r6, #2]
100019dc:	2204      	movs	r2, #4
100019de:	5eb1      	ldrsh	r1, [r6, r2]
100019e0:	301e      	adds	r0, #30
100019e2:	2206      	movs	r2, #6
100019e4:	7823      	ldrb	r3, [r4, #0]
100019e6:	b200      	sxth	r0, r0
100019e8:	f000 fae8 	bl	10001fbc <drawVLine>
100019ec:	f7ff fc0b 	bl	10001206 <protothread_anim1+0xaf6>
100019f0:	393c      	subs	r1, #60	@ 0x3c
100019f2:	3854      	subs	r0, #84	@ 0x54
100019f4:	b200      	sxth	r0, r0
100019f6:	9300      	str	r3, [sp, #0]
100019f8:	22a8      	movs	r2, #168	@ 0xa8
100019fa:	3387      	adds	r3, #135	@ 0x87
100019fc:	b209      	sxth	r1, r1
100019fe:	f000 ffc1 	bl	10002984 <fillRect>
10001a02:	8870      	ldrh	r0, [r6, #2]
10001a04:	7c33      	ldrb	r3, [r6, #16]
10001a06:	3805      	subs	r0, #5
10001a08:	b200      	sxth	r0, r0
10001a0a:	8070      	strh	r0, [r6, #2]
10001a0c:	2b00      	cmp	r3, #0
10001a0e:	d101      	bne.n	10001a14 <protothread_anim1+0x1304>
10001a10:	f7ff fb4b 	bl	100010aa <protothread_anim1+0x99a>
10001a14:	4653      	mov	r3, sl
10001a16:	7433      	strb	r3, [r6, #16]
10001a18:	f7ff fb47 	bl	100010aa <protothread_anim1+0x99a>
10001a1c:	79eb      	ldrb	r3, [r5, #7]
10001a1e:	e5fd      	b.n	1000161c <protothread_anim1+0xf0c>
10001a20:	79eb      	ldrb	r3, [r5, #7]
10001a22:	2a00      	cmp	r2, #0
10001a24:	d100      	bne.n	10001a28 <protothread_anim1+0x1318>
10001a26:	e43b      	b.n	100012a0 <protothread_anim1+0xb90>
10001a28:	2b00      	cmp	r3, #0
10001a2a:	d027      	beq.n	10001a7c <protothread_anim1+0x136c>
10001a2c:	79f2      	ldrb	r2, [r6, #7]
10001a2e:	4692      	mov	sl, r2
10001a30:	79b2      	ldrb	r2, [r6, #6]
10001a32:	4694      	mov	ip, r2
10001a34:	001a      	movs	r2, r3
10001a36:	f7ff fc37 	bl	100012a8 <protothread_anim1+0xb98>
10001a3a:	79f1      	ldrb	r1, [r6, #7]
10001a3c:	469c      	mov	ip, r3
10001a3e:	468a      	mov	sl, r1
10001a40:	79aa      	ldrb	r2, [r5, #6]
10001a42:	f7ff fc31 	bl	100012a8 <protothread_anim1+0xb98>
10001a46:	491b      	ldr	r1, [pc, #108]	@ (10001ab4 <protothread_anim1+0x13a4>)
10001a48:	4b17      	ldr	r3, [pc, #92]	@ (10001aa8 <protothread_anim1+0x1398>)
10001a4a:	468c      	mov	ip, r1
10001a4c:	6a9b      	ldr	r3, [r3, #40]	@ 0x28
10001a4e:	4a1a      	ldr	r2, [pc, #104]	@ (10001ab8 <protothread_anim1+0x13a8>)
10001a50:	4463      	add	r3, ip
10001a52:	9c02      	ldr	r4, [sp, #8]
10001a54:	6013      	str	r3, [r2, #0]
10001a56:	4b19      	ldr	r3, [pc, #100]	@ (10001abc <protothread_anim1+0x13ac>)
10001a58:	6023      	str	r3, [r4, #0]
10001a5a:	f7fe fe9e 	bl	1000079a <protothread_anim1+0x8a>
10001a5e:	1a41      	subs	r1, r0, r1
10001a60:	391e      	subs	r1, #30
10001a62:	2936      	cmp	r1, #54	@ 0x36
10001a64:	d900      	bls.n	10001a68 <protothread_anim1+0x1358>
10001a66:	e702      	b.n	1000186e <protothread_anim1+0x115e>
10001a68:	68eb      	ldr	r3, [r5, #12]
10001a6a:	1e58      	subs	r0, r3, #1
10001a6c:	60e8      	str	r0, [r5, #12]
10001a6e:	0040      	lsls	r0, r0, #1
10001a70:	3029      	adds	r0, #41	@ 0x29
10001a72:	9303      	str	r3, [sp, #12]
10001a74:	b200      	sxth	r0, r0
10001a76:	4653      	mov	r3, sl
10001a78:	f7ff fc0a 	bl	10001290 <protothread_anim1+0xb80>
10001a7c:	1a40      	subs	r0, r0, r1
10001a7e:	381e      	subs	r0, #30
10001a80:	2836      	cmp	r0, #54	@ 0x36
10001a82:	d901      	bls.n	10001a88 <protothread_anim1+0x1378>
10001a84:	f7ff fc0c 	bl	100012a0 <protothread_anim1+0xb90>
10001a88:	68f2      	ldr	r2, [r6, #12]
10001a8a:	1e50      	subs	r0, r2, #1
10001a8c:	60f0      	str	r0, [r6, #12]
10001a8e:	0040      	lsls	r0, r0, #1
10001a90:	3060      	adds	r0, #96	@ 0x60
10001a92:	4693      	mov	fp, r2
10001a94:	30ff      	adds	r0, #255	@ 0xff
10001a96:	f7ff fbfa 	bl	1000128e <protothread_anim1+0xb7e>
10001a9a:	46c0      	nop			@ (mov r8, r8)
10001a9c:	20026184 	.word	0x20026184
10001aa0:	10007fb0 	.word	0x10007fb0
10001aa4:	000f4240 	.word	0x000f4240
10001aa8:	40054000 	.word	0x40054000
10001aac:	20000964 	.word	0x20000964
10001ab0:	10000bb6 	.word	0x10000bb6
10001ab4:	000186a0 	.word	0x000186a0
10001ab8:	2000096c 	.word	0x2000096c
10001abc:	10000bc8 	.word	0x10000bc8

10001ac0 <protothread_sched.constprop.0.isra.0>:
10001ac0:	b5f0      	push	{r4, r5, r6, r7, lr}
10001ac2:	46c6      	mov	lr, r8
10001ac4:	4b13      	ldr	r3, [pc, #76]	@ (10001b14 <protothread_sched.constprop.0.isra.0+0x54>)
10001ac6:	b500      	push	{lr}
10001ac8:	681b      	ldr	r3, [r3, #0]
10001aca:	2b00      	cmp	r3, #0
10001acc:	d121      	bne.n	10001b12 <protothread_sched.constprop.0.isra.0+0x52>
10001ace:	4b12      	ldr	r3, [pc, #72]	@ (10001b18 <protothread_sched.constprop.0.isra.0+0x58>)
10001ad0:	681b      	ldr	r3, [r3, #0]
10001ad2:	2b00      	cmp	r3, #0
10001ad4:	d11a      	bne.n	10001b0c <protothread_sched.constprop.0.isra.0+0x4c>
10001ad6:	4698      	mov	r8, r3
10001ad8:	4d10      	ldr	r5, [pc, #64]	@ (10001b1c <protothread_sched.constprop.0.isra.0+0x5c>)
10001ada:	4e11      	ldr	r6, [pc, #68]	@ (10001b20 <protothread_sched.constprop.0.isra.0+0x60>)
10001adc:	4f11      	ldr	r7, [pc, #68]	@ (10001b24 <protothread_sched.constprop.0.isra.0+0x64>)
10001ade:	e00f      	b.n	10001b00 <protothread_sched.constprop.0.isra.0+0x40>
10001ae0:	2200      	movs	r2, #0
10001ae2:	003c      	movs	r4, r7
10001ae4:	0053      	lsls	r3, r2, #1
10001ae6:	189b      	adds	r3, r3, r2
10001ae8:	009b      	lsls	r3, r3, #2
10001aea:	18fb      	adds	r3, r7, r3
10001aec:	0020      	movs	r0, r4
10001aee:	689b      	ldr	r3, [r3, #8]
10001af0:	4798      	blx	r3
10001af2:	682a      	ldr	r2, [r5, #0]
10001af4:	6833      	ldr	r3, [r6, #0]
10001af6:	3201      	adds	r2, #1
10001af8:	602a      	str	r2, [r5, #0]
10001afa:	340c      	adds	r4, #12
10001afc:	429a      	cmp	r2, r3
10001afe:	dbf1      	blt.n	10001ae4 <protothread_sched.constprop.0.isra.0+0x24>
10001b00:	4643      	mov	r3, r8
10001b02:	602b      	str	r3, [r5, #0]
10001b04:	6833      	ldr	r3, [r6, #0]
10001b06:	2b00      	cmp	r3, #0
10001b08:	dcea      	bgt.n	10001ae0 <protothread_sched.constprop.0.isra.0+0x20>
10001b0a:	e7fe      	b.n	10001b0a <protothread_sched.constprop.0.isra.0+0x4a>
10001b0c:	bc80      	pop	{r7}
10001b0e:	46b8      	mov	r8, r7
10001b10:	bdf0      	pop	{r4, r5, r6, r7, pc}
10001b12:	469f      	mov	pc, r3
10001b14:	20000798 	.word	0x20000798
10001b18:	200007a0 	.word	0x200007a0
10001b1c:	200006d8 	.word	0x200006d8
10001b20:	200007a4 	.word	0x200007a4
10001b24:	200007ac 	.word	0x200007ac

10001b28 <protothread_sched1.constprop.0.isra.0>:
10001b28:	b5f0      	push	{r4, r5, r6, r7, lr}
10001b2a:	46c6      	mov	lr, r8
10001b2c:	4b13      	ldr	r3, [pc, #76]	@ (10001b7c <protothread_sched1.constprop.0.isra.0+0x54>)
10001b2e:	b500      	push	{lr}
10001b30:	681b      	ldr	r3, [r3, #0]
10001b32:	2b00      	cmp	r3, #0
10001b34:	d121      	bne.n	10001b7a <protothread_sched1.constprop.0.isra.0+0x52>
10001b36:	4b12      	ldr	r3, [pc, #72]	@ (10001b80 <protothread_sched1.constprop.0.isra.0+0x58>)
10001b38:	681b      	ldr	r3, [r3, #0]
10001b3a:	2b00      	cmp	r3, #0
10001b3c:	d11a      	bne.n	10001b74 <protothread_sched1.constprop.0.isra.0+0x4c>
10001b3e:	4698      	mov	r8, r3
10001b40:	4d10      	ldr	r5, [pc, #64]	@ (10001b84 <protothread_sched1.constprop.0.isra.0+0x5c>)
10001b42:	4e11      	ldr	r6, [pc, #68]	@ (10001b88 <protothread_sched1.constprop.0.isra.0+0x60>)
10001b44:	4f11      	ldr	r7, [pc, #68]	@ (10001b8c <protothread_sched1.constprop.0.isra.0+0x64>)
10001b46:	e00f      	b.n	10001b68 <protothread_sched1.constprop.0.isra.0+0x40>
10001b48:	2200      	movs	r2, #0
10001b4a:	003c      	movs	r4, r7
10001b4c:	0053      	lsls	r3, r2, #1
10001b4e:	189b      	adds	r3, r3, r2
10001b50:	009b      	lsls	r3, r3, #2
10001b52:	18fb      	adds	r3, r7, r3
10001b54:	0020      	movs	r0, r4
10001b56:	689b      	ldr	r3, [r3, #8]
10001b58:	4798      	blx	r3
10001b5a:	682a      	ldr	r2, [r5, #0]
10001b5c:	6833      	ldr	r3, [r6, #0]
10001b5e:	3201      	adds	r2, #1
10001b60:	602a      	str	r2, [r5, #0]
10001b62:	340c      	adds	r4, #12
10001b64:	429a      	cmp	r2, r3
10001b66:	dbf1      	blt.n	10001b4c <protothread_sched1.constprop.0.isra.0+0x24>
10001b68:	4643      	mov	r3, r8
10001b6a:	602b      	str	r3, [r5, #0]
10001b6c:	6833      	ldr	r3, [r6, #0]
10001b6e:	2b00      	cmp	r3, #0
10001b70:	dcea      	bgt.n	10001b48 <protothread_sched1.constprop.0.isra.0+0x20>
10001b72:	e7fe      	b.n	10001b72 <protothread_sched1.constprop.0.isra.0+0x4a>
10001b74:	bc80      	pop	{r7}
10001b76:	46b8      	mov	r8, r7
10001b78:	bdf0      	pop	{r4, r5, r6, r7, pc}
10001b7a:	469f      	mov	pc, r3
10001b7c:	2000079c 	.word	0x2000079c
10001b80:	200007a0 	.word	0x200007a0
10001b84:	200006dc 	.word	0x200006dc
10001b88:	200007a8 	.word	0x200007a8
10001b8c:	20000824 	.word	0x20000824

10001b90 <core1_entry>:
10001b90:	23d0      	movs	r3, #208	@ 0xd0
10001b92:	061b      	lsls	r3, r3, #24
10001b94:	681b      	ldr	r3, [r3, #0]
10001b96:	b570      	push	{r4, r5, r6, lr}
10001b98:	2b01      	cmp	r3, #1
10001b9a:	d016      	beq.n	10001bca <core1_entry+0x3a>
10001b9c:	4916      	ldr	r1, [pc, #88]	@ (10001bf8 <core1_entry+0x68>)
10001b9e:	680b      	ldr	r3, [r1, #0]
10001ba0:	2b09      	cmp	r3, #9
10001ba2:	dd05      	ble.n	10001bb0 <core1_entry+0x20>
10001ba4:	2200      	movs	r2, #0
10001ba6:	4b15      	ldr	r3, [pc, #84]	@ (10001bfc <core1_entry+0x6c>)
10001ba8:	601a      	str	r2, [r3, #0]
10001baa:	f7ff ff89 	bl	10001ac0 <protothread_sched.constprop.0.isra.0>
10001bae:	bd70      	pop	{r4, r5, r6, pc}
10001bb0:	005a      	lsls	r2, r3, #1
10001bb2:	4813      	ldr	r0, [pc, #76]	@ (10001c00 <core1_entry+0x70>)
10001bb4:	18d2      	adds	r2, r2, r3
10001bb6:	0092      	lsls	r2, r2, #2
10001bb8:	4d12      	ldr	r5, [pc, #72]	@ (10001c04 <core1_entry+0x74>)
10001bba:	1884      	adds	r4, r0, r2
10001bbc:	6063      	str	r3, [r4, #4]
10001bbe:	60a5      	str	r5, [r4, #8]
10001bc0:	2400      	movs	r4, #0
10001bc2:	3301      	adds	r3, #1
10001bc4:	5084      	str	r4, [r0, r2]
10001bc6:	600b      	str	r3, [r1, #0]
10001bc8:	e7ec      	b.n	10001ba4 <core1_entry+0x14>
10001bca:	490f      	ldr	r1, [pc, #60]	@ (10001c08 <core1_entry+0x78>)
10001bcc:	680b      	ldr	r3, [r1, #0]
10001bce:	2b09      	cmp	r3, #9
10001bd0:	dc0b      	bgt.n	10001bea <core1_entry+0x5a>
10001bd2:	005a      	lsls	r2, r3, #1
10001bd4:	480d      	ldr	r0, [pc, #52]	@ (10001c0c <core1_entry+0x7c>)
10001bd6:	18d2      	adds	r2, r2, r3
10001bd8:	0092      	lsls	r2, r2, #2
10001bda:	4d0a      	ldr	r5, [pc, #40]	@ (10001c04 <core1_entry+0x74>)
10001bdc:	1884      	adds	r4, r0, r2
10001bde:	6063      	str	r3, [r4, #4]
10001be0:	60a5      	str	r5, [r4, #8]
10001be2:	2400      	movs	r4, #0
10001be4:	3301      	adds	r3, #1
10001be6:	5084      	str	r4, [r0, r2]
10001be8:	600b      	str	r3, [r1, #0]
10001bea:	2200      	movs	r2, #0
10001bec:	4b08      	ldr	r3, [pc, #32]	@ (10001c10 <core1_entry+0x80>)
10001bee:	601a      	str	r2, [r3, #0]
10001bf0:	f7ff ff9a 	bl	10001b28 <protothread_sched1.constprop.0.isra.0>
10001bf4:	e7db      	b.n	10001bae <core1_entry+0x1e>
10001bf6:	46c0      	nop			@ (mov r8, r8)
10001bf8:	200007a4 	.word	0x200007a4
10001bfc:	20000798 	.word	0x20000798
10001c00:	200007ac 	.word	0x200007ac
10001c04:	10000711 	.word	0x10000711
10001c08:	200007a8 	.word	0x200007a8
10001c0c:	20000824 	.word	0x20000824
10001c10:	2000079c 	.word	0x2000079c

10001c14 <main>:
10001c14:	b5f8      	push	{r3, r4, r5, r6, r7, lr}
10001c16:	f005 fd7b 	bl	10007710 <stdio_init_all>
10001c1a:	24d0      	movs	r4, #208	@ 0xd0
10001c1c:	f000 f8cc 	bl	10001db8 <initVGA>
10001c20:	2002      	movs	r0, #2
10001c22:	f001 fb1b 	bl	1000325c <gpio_init>
10001c26:	2304      	movs	r3, #4
10001c28:	0624      	lsls	r4, r4, #24
10001c2a:	2200      	movs	r2, #0
10001c2c:	2101      	movs	r1, #1
10001c2e:	62a3      	str	r3, [r4, #40]	@ 0x28
10001c30:	2002      	movs	r0, #2
10001c32:	f001 fb01 	bl	10003238 <gpio_set_pulls>
10001c36:	2004      	movs	r0, #4
10001c38:	f001 fb10 	bl	1000325c <gpio_init>
10001c3c:	2310      	movs	r3, #16
10001c3e:	2200      	movs	r2, #0
10001c40:	2101      	movs	r1, #1
10001c42:	62a3      	str	r3, [r4, #40]	@ 0x28
10001c44:	2004      	movs	r0, #4
10001c46:	f001 faf7 	bl	10003238 <gpio_set_pulls>
10001c4a:	2009      	movs	r0, #9
10001c4c:	f001 fb06 	bl	1000325c <gpio_init>
10001c50:	2380      	movs	r3, #128	@ 0x80
10001c52:	009b      	lsls	r3, r3, #2
10001c54:	2200      	movs	r2, #0
10001c56:	2101      	movs	r1, #1
10001c58:	62a3      	str	r3, [r4, #40]	@ 0x28
10001c5a:	2009      	movs	r0, #9
10001c5c:	f001 faec 	bl	10003238 <gpio_set_pulls>
10001c60:	200b      	movs	r0, #11
10001c62:	f001 fafb 	bl	1000325c <gpio_init>
10001c66:	2380      	movs	r3, #128	@ 0x80
10001c68:	011b      	lsls	r3, r3, #4
10001c6a:	2200      	movs	r2, #0
10001c6c:	2101      	movs	r1, #1
10001c6e:	62a3      	str	r3, [r4, #40]	@ 0x28
10001c70:	200b      	movs	r0, #11
10001c72:	f001 fae1 	bl	10003238 <gpio_set_pulls>
10001c76:	2008      	movs	r0, #8
10001c78:	f001 faf0 	bl	1000325c <gpio_init>
10001c7c:	2380      	movs	r3, #128	@ 0x80
10001c7e:	2501      	movs	r5, #1
10001c80:	005b      	lsls	r3, r3, #1
10001c82:	62a3      	str	r3, [r4, #40]	@ 0x28
10001c84:	2200      	movs	r2, #0
10001c86:	2101      	movs	r1, #1
10001c88:	2008      	movs	r0, #8
10001c8a:	f001 fad5 	bl	10003238 <gpio_set_pulls>
10001c8e:	493a      	ldr	r1, [pc, #232]	@ (10001d78 <main+0x164>)
10001c90:	483a      	ldr	r0, [pc, #232]	@ (10001d7c <main+0x168>)
10001c92:	f006 f861 	bl	10007d58 <i2c_init>
10001c96:	2103      	movs	r1, #3
10001c98:	200c      	movs	r0, #12
10001c9a:	f001 fab5 	bl	10003208 <gpio_set_function>
10001c9e:	2103      	movs	r1, #3
10001ca0:	200d      	movs	r0, #13
10001ca2:	f001 fab1 	bl	10003208 <gpio_set_function>
10001ca6:	2200      	movs	r2, #0
10001ca8:	2101      	movs	r1, #1
10001caa:	200c      	movs	r0, #12
10001cac:	f001 fac4 	bl	10003238 <gpio_set_pulls>
10001cb0:	2200      	movs	r2, #0
10001cb2:	2101      	movs	r1, #1
10001cb4:	200d      	movs	r0, #13
10001cb6:	f001 fabf 	bl	10003238 <gpio_set_pulls>
10001cba:	492f      	ldr	r1, [pc, #188]	@ (10001d78 <main+0x164>)
10001cbc:	4830      	ldr	r0, [pc, #192]	@ (10001d80 <main+0x16c>)
10001cbe:	f006 f84b 	bl	10007d58 <i2c_init>
10001cc2:	2103      	movs	r1, #3
10001cc4:	200e      	movs	r0, #14
10001cc6:	f001 fa9f 	bl	10003208 <gpio_set_function>
10001cca:	2103      	movs	r1, #3
10001ccc:	200f      	movs	r0, #15
10001cce:	f001 fa9b 	bl	10003208 <gpio_set_function>
10001cd2:	2200      	movs	r2, #0
10001cd4:	2101      	movs	r1, #1
10001cd6:	200e      	movs	r0, #14
10001cd8:	f001 faae 	bl	10003238 <gpio_set_pulls>
10001cdc:	2200      	movs	r2, #0
10001cde:	2101      	movs	r1, #1
10001ce0:	200f      	movs	r0, #15
10001ce2:	f001 faa9 	bl	10003238 <gpio_set_pulls>
10001ce6:	f001 f8c3 	bl	10002e70 <mpu6050_reset>
10001cea:	4926      	ldr	r1, [pc, #152]	@ (10001d84 <main+0x170>)
10001cec:	4826      	ldr	r0, [pc, #152]	@ (10001d88 <main+0x174>)
10001cee:	f001 f937 	bl	10002f60 <mpu6050_read_raw0>
10001cf2:	4926      	ldr	r1, [pc, #152]	@ (10001d8c <main+0x178>)
10001cf4:	4826      	ldr	r0, [pc, #152]	@ (10001d90 <main+0x17c>)
10001cf6:	f001 f9dd 	bl	100030b4 <mpu6050_read_raw1>
10001cfa:	002a      	movs	r2, r5
10001cfc:	4f25      	ldr	r7, [pc, #148]	@ (10001d94 <main+0x180>)
10001cfe:	4e26      	ldr	r6, [pc, #152]	@ (10001d98 <main+0x184>)
10001d00:	683b      	ldr	r3, [r7, #0]
10001d02:	2004      	movs	r0, #4
10001d04:	409a      	lsls	r2, r3
10001d06:	0013      	movs	r3, r2
10001d08:	22a4      	movs	r2, #164	@ 0xa4
10001d0a:	50b3      	str	r3, [r6, r2]
10001d0c:	4a23      	ldr	r2, [pc, #140]	@ (10001d9c <main+0x188>)
10001d0e:	4924      	ldr	r1, [pc, #144]	@ (10001da0 <main+0x18c>)
10001d10:	6013      	str	r3, [r2, #0]
10001d12:	f001 fb41 	bl	10003398 <irq_set_exclusive_handler>
10001d16:	2101      	movs	r1, #1
10001d18:	2004      	movs	r0, #4
10001d1a:	f001 fb17 	bl	1000334c <irq_set_enabled>
10001d1e:	6839      	ldr	r1, [r7, #0]
10001d20:	4820      	ldr	r0, [pc, #128]	@ (10001da4 <main+0x190>)
10001d22:	008b      	lsls	r3, r1, #2
10001d24:	185b      	adds	r3, r3, r1
10001d26:	009b      	lsls	r3, r3, #2
10001d28:	199a      	adds	r2, r3, r6
10001d2a:	6110      	str	r0, [r2, #16]
10001d2c:	20c8      	movs	r0, #200	@ 0xc8
10001d2e:	0040      	lsls	r0, r0, #1
10001d30:	6050      	str	r0, [r2, #4]
10001d32:	4a1d      	ldr	r2, [pc, #116]	@ (10001da8 <main+0x194>)
10001d34:	2080      	movs	r0, #128	@ 0x80
10001d36:	4694      	mov	ip, r2
10001d38:	4463      	add	r3, ip
10001d3a:	681a      	ldr	r2, [r3, #0]
10001d3c:	0140      	lsls	r0, r0, #5
10001d3e:	0c12      	lsrs	r2, r2, #16
10001d40:	4303      	orrs	r3, r0
10001d42:	0412      	lsls	r2, r2, #16
10001d44:	601a      	str	r2, [r3, #0]
10001d46:	408d      	lsls	r5, r1
10001d48:	23a0      	movs	r3, #160	@ 0xa0
10001d4a:	50f5      	str	r5, [r6, r3]
10001d4c:	f005 fe0a 	bl	10007964 <multicore_reset_core1>
10001d50:	4816      	ldr	r0, [pc, #88]	@ (10001dac <main+0x198>)
10001d52:	f005 fe5b 	bl	10007a0c <multicore_launch_core1>
10001d56:	6823      	ldr	r3, [r4, #0]
10001d58:	2b01      	cmp	r3, #1
10001d5a:	d006      	beq.n	10001d6a <main+0x156>
10001d5c:	2200      	movs	r2, #0
10001d5e:	4b14      	ldr	r3, [pc, #80]	@ (10001db0 <main+0x19c>)
10001d60:	601a      	str	r2, [r3, #0]
10001d62:	f7ff fead 	bl	10001ac0 <protothread_sched.constprop.0.isra.0>
10001d66:	2000      	movs	r0, #0
10001d68:	bdf8      	pop	{r3, r4, r5, r6, r7, pc}
10001d6a:	2200      	movs	r2, #0
10001d6c:	4b11      	ldr	r3, [pc, #68]	@ (10001db4 <main+0x1a0>)
10001d6e:	601a      	str	r2, [r3, #0]
10001d70:	f7ff feda 	bl	10001b28 <protothread_sched1.constprop.0.isra.0>
10001d74:	e7f7      	b.n	10001d66 <main+0x152>
10001d76:	46c0      	nop			@ (mov r8, r8)
10001d78:	00030d40 	.word	0x00030d40
10001d7c:	20000260 	.word	0x20000260
10001d80:	20000258 	.word	0x20000258
10001d84:	20000668 	.word	0x20000668
10001d88:	200005d0 	.word	0x200005d0
10001d8c:	20000674 	.word	0x20000674
10001d90:	200005dc 	.word	0x200005dc
10001d94:	200008cc 	.word	0x200008cc
10001d98:	40050000 	.word	0x40050000
10001d9c:	400520a8 	.word	0x400520a8
10001da0:	10000309 	.word	0x10000309
10001da4:	00001388 	.word	0x00001388
10001da8:	4005000c 	.word	0x4005000c
10001dac:	10001b91 	.word	0x10001b91
10001db0:	20000798 	.word	0x20000798
10001db4:	2000079c 	.word	0x2000079c

10001db8 <initVGA>:
10001db8:	b5f0      	push	{r4, r5, r6, r7, lr}
10001dba:	46d6      	mov	lr, sl
10001dbc:	464f      	mov	r7, r9
10001dbe:	4646      	mov	r6, r8
10001dc0:	b5c0      	push	{r6, r7, lr}
10001dc2:	496d      	ldr	r1, [pc, #436]	@ (10001f78 <initVGA+0x1c0>)
10001dc4:	b08a      	sub	sp, #40	@ 0x28
10001dc6:	486d      	ldr	r0, [pc, #436]	@ (10001f7c <initVGA+0x1c4>)
10001dc8:	f005 fe4c 	bl	10007a64 <pio_add_program>
10001dcc:	496c      	ldr	r1, [pc, #432]	@ (10001f80 <initVGA+0x1c8>)
10001dce:	0006      	movs	r6, r0
10001dd0:	486a      	ldr	r0, [pc, #424]	@ (10001f7c <initVGA+0x1c4>)
10001dd2:	f005 fe47 	bl	10007a64 <pio_add_program>
10001dd6:	496b      	ldr	r1, [pc, #428]	@ (10001f84 <initVGA+0x1cc>)
10001dd8:	0005      	movs	r5, r0
10001dda:	4868      	ldr	r0, [pc, #416]	@ (10001f7c <initVGA+0x1c4>)
10001ddc:	f005 fe42 	bl	10007a64 <pio_add_program>
10001de0:	2300      	movs	r3, #0
10001de2:	2280      	movs	r2, #128	@ 0x80
10001de4:	4699      	mov	r9, r3
10001de6:	9305      	str	r3, [sp, #20]
10001de8:	23f8      	movs	r3, #248	@ 0xf8
10001dea:	0252      	lsls	r2, r2, #9
10001dec:	025b      	lsls	r3, r3, #9
10001dee:	9202      	str	r2, [sp, #8]
10001df0:	9303      	str	r3, [sp, #12]
10001df2:	23c0      	movs	r3, #192	@ 0xc0
10001df4:	0004      	movs	r4, r0
10001df6:	031b      	lsls	r3, r3, #12
10001df8:	2210      	movs	r2, #16
10001dfa:	a902      	add	r1, sp, #8
10001dfc:	a806      	add	r0, sp, #24
10001dfe:	4698      	mov	r8, r3
10001e00:	9304      	str	r3, [sp, #16]
10001e02:	f005 fb61 	bl	100074c8 <__wrap___aeabi_memcpy>
10001e06:	0031      	movs	r1, r6
10001e08:	1c73      	adds	r3, r6, #1
10001e0a:	3108      	adds	r1, #8
10001e0c:	030a      	lsls	r2, r1, #12
10001e0e:	01db      	lsls	r3, r3, #7
10001e10:	4313      	orrs	r3, r2
10001e12:	a906      	add	r1, sp, #24
10001e14:	2210      	movs	r2, #16
10001e16:	a802      	add	r0, sp, #8
10001e18:	9307      	str	r3, [sp, #28]
10001e1a:	f005 fb55 	bl	100074c8 <__wrap___aeabi_memcpy>
10001e1e:	4b5a      	ldr	r3, [pc, #360]	@ (10001f88 <initVGA+0x1d0>)
10001e20:	2701      	movs	r7, #1
10001e22:	9305      	str	r3, [sp, #20]
10001e24:	23a0      	movs	r3, #160	@ 0xa0
10001e26:	2106      	movs	r1, #6
10001e28:	02db      	lsls	r3, r3, #11
10001e2a:	2010      	movs	r0, #16
10001e2c:	469a      	mov	sl, r3
10001e2e:	9302      	str	r3, [sp, #8]
10001e30:	f001 f9ea 	bl	10003208 <gpio_set_function>
10001e34:	2301      	movs	r3, #1
10001e36:	2210      	movs	r2, #16
10001e38:	2100      	movs	r1, #0
10001e3a:	4850      	ldr	r0, [pc, #320]	@ (10001f7c <initVGA+0x1c4>)
10001e3c:	9700      	str	r7, [sp, #0]
10001e3e:	f005 fe89 	bl	10007b54 <pio_sm_set_consecutive_pindirs>
10001e42:	0032      	movs	r2, r6
10001e44:	2100      	movs	r1, #0
10001e46:	484d      	ldr	r0, [pc, #308]	@ (10001f7c <initVGA+0x1c4>)
10001e48:	ab02      	add	r3, sp, #8
10001e4a:	f005 fed7 	bl	10007bfc <pio_sm_init>
10001e4e:	0029      	movs	r1, r5
10001e50:	1c6b      	adds	r3, r5, #1
10001e52:	310d      	adds	r1, #13
10001e54:	030a      	lsls	r2, r1, #12
10001e56:	01db      	lsls	r3, r3, #7
10001e58:	4313      	orrs	r3, r2
10001e5a:	4a4c      	ldr	r2, [pc, #304]	@ (10001f8c <initVGA+0x1d4>)
10001e5c:	2106      	movs	r1, #6
10001e5e:	4013      	ands	r3, r2
10001e60:	2280      	movs	r2, #128	@ 0x80
10001e62:	05d2      	lsls	r2, r2, #23
10001e64:	4313      	orrs	r3, r2
10001e66:	9307      	str	r3, [sp, #28]
10001e68:	4643      	mov	r3, r8
10001e6a:	9308      	str	r3, [sp, #32]
10001e6c:	4b48      	ldr	r3, [pc, #288]	@ (10001f90 <initVGA+0x1d8>)
10001e6e:	2011      	movs	r0, #17
10001e70:	9309      	str	r3, [sp, #36]	@ 0x24
10001e72:	4653      	mov	r3, sl
10001e74:	9306      	str	r3, [sp, #24]
10001e76:	f001 f9c7 	bl	10003208 <gpio_set_function>
10001e7a:	2301      	movs	r3, #1
10001e7c:	2211      	movs	r2, #17
10001e7e:	2101      	movs	r1, #1
10001e80:	483e      	ldr	r0, [pc, #248]	@ (10001f7c <initVGA+0x1c4>)
10001e82:	9700      	str	r7, [sp, #0]
10001e84:	f005 fe66 	bl	10007b54 <pio_sm_set_consecutive_pindirs>
10001e88:	002a      	movs	r2, r5
10001e8a:	2101      	movs	r1, #1
10001e8c:	483b      	ldr	r0, [pc, #236]	@ (10001f7c <initVGA+0x1c4>)
10001e8e:	ab06      	add	r3, sp, #24
10001e90:	f005 feb4 	bl	10007bfc <pio_sm_init>
10001e94:	464b      	mov	r3, r9
10001e96:	2280      	movs	r2, #128	@ 0x80
10001e98:	9305      	str	r3, [sp, #20]
10001e9a:	23f8      	movs	r3, #248	@ 0xf8
10001e9c:	0252      	lsls	r2, r2, #9
10001e9e:	025b      	lsls	r3, r3, #9
10001ea0:	9202      	str	r2, [sp, #8]
10001ea2:	9303      	str	r3, [sp, #12]
10001ea4:	4643      	mov	r3, r8
10001ea6:	2210      	movs	r2, #16
10001ea8:	a902      	add	r1, sp, #8
10001eaa:	a806      	add	r0, sp, #24
10001eac:	9304      	str	r3, [sp, #16]
10001eae:	f005 fb0b 	bl	100074c8 <__wrap___aeabi_memcpy>
10001eb2:	0022      	movs	r2, r4
10001eb4:	1ca3      	adds	r3, r4, #2
10001eb6:	3208      	adds	r2, #8
10001eb8:	0312      	lsls	r2, r2, #12
10001eba:	01db      	lsls	r3, r3, #7
10001ebc:	4313      	orrs	r3, r2
10001ebe:	a906      	add	r1, sp, #24
10001ec0:	2210      	movs	r2, #16
10001ec2:	a802      	add	r0, sp, #8
10001ec4:	9307      	str	r3, [sp, #28]
10001ec6:	f005 faff 	bl	100074c8 <__wrap___aeabi_memcpy>
10001eca:	4b32      	ldr	r3, [pc, #200]	@ (10001f94 <initVGA+0x1dc>)
10001ecc:	2106      	movs	r1, #6
10001ece:	2012      	movs	r0, #18
10001ed0:	9305      	str	r3, [sp, #20]
10001ed2:	f001 f999 	bl	10003208 <gpio_set_function>
10001ed6:	2106      	movs	r1, #6
10001ed8:	2013      	movs	r0, #19
10001eda:	f001 f995 	bl	10003208 <gpio_set_function>
10001ede:	2106      	movs	r1, #6
10001ee0:	2014      	movs	r0, #20
10001ee2:	f001 f991 	bl	10003208 <gpio_set_function>
10001ee6:	2303      	movs	r3, #3
10001ee8:	2212      	movs	r2, #18
10001eea:	2102      	movs	r1, #2
10001eec:	4823      	ldr	r0, [pc, #140]	@ (10001f7c <initVGA+0x1c4>)
10001eee:	9700      	str	r7, [sp, #0]
10001ef0:	f005 fe30 	bl	10007b54 <pio_sm_set_consecutive_pindirs>
10001ef4:	0022      	movs	r2, r4
10001ef6:	2102      	movs	r1, #2
10001ef8:	ab02      	add	r3, sp, #8
10001efa:	4820      	ldr	r0, [pc, #128]	@ (10001f7c <initVGA+0x1c4>)
10001efc:	f005 fe7e 	bl	10007bfc <pio_sm_init>
10001f00:	23a0      	movs	r3, #160	@ 0xa0
10001f02:	4a25      	ldr	r2, [pc, #148]	@ (10001f98 <initVGA+0x1e0>)
10001f04:	05db      	lsls	r3, r3, #23
10001f06:	601a      	str	r2, [r3, #0]
10001f08:	4a24      	ldr	r2, [pc, #144]	@ (10001f9c <initVGA+0x1e4>)
10001f0a:	4925      	ldr	r1, [pc, #148]	@ (10001fa0 <initVGA+0x1e8>)
10001f0c:	605a      	str	r2, [r3, #4]
10001f0e:	2296      	movs	r2, #150	@ 0x96
10001f10:	0292      	lsls	r2, r2, #10
10001f12:	609a      	str	r2, [r3, #8]
10001f14:	4a23      	ldr	r2, [pc, #140]	@ (10001fa4 <initVGA+0x1ec>)
10001f16:	611a      	str	r2, [r3, #16]
10001f18:	4a23      	ldr	r2, [pc, #140]	@ (10001fa8 <initVGA+0x1f0>)
10001f1a:	6011      	str	r1, [r2, #0]
10001f1c:	2180      	movs	r1, #128	@ 0x80
10001f1e:	6053      	str	r3, [r2, #4]
10001f20:	4b22      	ldr	r3, [pc, #136]	@ (10001fac <initVGA+0x1f4>)
10001f22:	6097      	str	r7, [r2, #8]
10001f24:	6113      	str	r3, [r2, #16]
10001f26:	4a15      	ldr	r2, [pc, #84]	@ (10001f7c <initVGA+0x1c4>)
10001f28:	0249      	lsls	r1, r1, #9
10001f2a:	6853      	ldr	r3, [r2, #4]
10001f2c:	420b      	tst	r3, r1
10001f2e:	d1fc      	bne.n	10001f2a <initVGA+0x172>
10001f30:	2180      	movs	r1, #128	@ 0x80
10001f32:	4b1f      	ldr	r3, [pc, #124]	@ (10001fb0 <initVGA+0x1f8>)
10001f34:	0289      	lsls	r1, r1, #10
10001f36:	6113      	str	r3, [r2, #16]
10001f38:	4a10      	ldr	r2, [pc, #64]	@ (10001f7c <initVGA+0x1c4>)
10001f3a:	6853      	ldr	r3, [r2, #4]
10001f3c:	420b      	tst	r3, r1
10001f3e:	d1fc      	bne.n	10001f3a <initVGA+0x182>
10001f40:	23e0      	movs	r3, #224	@ 0xe0
10001f42:	2180      	movs	r1, #128	@ 0x80
10001f44:	33ff      	adds	r3, #255	@ 0xff
10001f46:	6153      	str	r3, [r2, #20]
10001f48:	4a0c      	ldr	r2, [pc, #48]	@ (10001f7c <initVGA+0x1c4>)
10001f4a:	02c9      	lsls	r1, r1, #11
10001f4c:	6853      	ldr	r3, [r2, #4]
10001f4e:	420b      	tst	r3, r1
10001f50:	d1fc      	bne.n	10001f4c <initVGA+0x194>
10001f52:	2340      	movs	r3, #64	@ 0x40
10001f54:	33ff      	adds	r3, #255	@ 0xff
10001f56:	6193      	str	r3, [r2, #24]
10001f58:	4b16      	ldr	r3, [pc, #88]	@ (10001fb4 <initVGA+0x1fc>)
10001f5a:	4a17      	ldr	r2, [pc, #92]	@ (10001fb8 <initVGA+0x200>)
10001f5c:	2101      	movs	r1, #1
10001f5e:	601a      	str	r2, [r3, #0]
10001f60:	22a0      	movs	r2, #160	@ 0xa0
10001f62:	2386      	movs	r3, #134	@ 0x86
10001f64:	05d2      	lsls	r2, r2, #23
10001f66:	00db      	lsls	r3, r3, #3
10001f68:	50d1      	str	r1, [r2, r3]
10001f6a:	b00a      	add	sp, #40	@ 0x28
10001f6c:	bce0      	pop	{r5, r6, r7}
10001f6e:	46ba      	mov	sl, r7
10001f70:	46b1      	mov	r9, r6
10001f72:	46a8      	mov	r8, r5
10001f74:	bdf0      	pop	{r4, r5, r6, r7, pc}
10001f76:	46c0      	nop			@ (mov r8, r8)
10001f78:	10008670 	.word	0x10008670
10001f7c:	50200000 	.word	0x50200000
10001f80:	1000864c 	.word	0x1000864c
10001f84:	10008630 	.word	0x10008630
10001f88:	04000200 	.word	0x04000200
10001f8c:	9fffffff 	.word	0x9fffffff
10001f90:	44004620 	.word	0x44004620
10001f94:	0c300252 	.word	0x0c300252
10001f98:	20000980 	.word	0x20000980
10001f9c:	50200018 	.word	0x50200018
10001fa0:	2000019c 	.word	0x2000019c
10001fa4:	00010811 	.word	0x00010811
10001fa8:	50000040 	.word	0x50000040
10001fac:	001f8009 	.word	0x001f8009
10001fb0:	0000028f 	.word	0x0000028f
10001fb4:	50202000 	.word	0x50202000
10001fb8:	00000707 	.word	0x00000707

10001fbc <drawVLine>:
10001fbc:	b5f0      	push	{r4, r5, r6, r7, lr}
10001fbe:	46de      	mov	lr, fp
10001fc0:	4645      	mov	r5, r8
10001fc2:	4657      	mov	r7, sl
10001fc4:	464e      	mov	r6, r9
10001fc6:	b5e0      	push	{r5, r6, r7, lr}
10001fc8:	1855      	adds	r5, r2, r1
10001fca:	0004      	movs	r4, r0
10001fcc:	469b      	mov	fp, r3
10001fce:	42a9      	cmp	r1, r5
10001fd0:	da38      	bge.n	10002044 <drawVLine+0x88>
10001fd2:	00da      	lsls	r2, r3, #3
10001fd4:	43c0      	mvns	r0, r0
10001fd6:	b2d3      	uxtb	r3, r2
10001fd8:	22a0      	movs	r2, #160	@ 0xa0
10001fda:	17c0      	asrs	r0, r0, #31
10001fdc:	469c      	mov	ip, r3
10001fde:	0092      	lsls	r2, r2, #2
10001fe0:	4020      	ands	r0, r4
10001fe2:	4290      	cmp	r0, r2
10001fe4:	da34      	bge.n	10002050 <drawVLine+0x94>
10001fe6:	2307      	movs	r3, #7
10001fe8:	27f0      	movs	r7, #240	@ 0xf0
10001fea:	4699      	mov	r9, r3
10001fec:	3331      	adds	r3, #49	@ 0x31
10001fee:	4698      	mov	r8, r3
10001ff0:	4c18      	ldr	r4, [pc, #96]	@ (10002054 <drawVLine+0x98>)
10001ff2:	007f      	lsls	r7, r7, #1
10001ff4:	e009      	b.n	1000200a <drawVLine+0x4e>
10001ff6:	4646      	mov	r6, r8
10001ff8:	4652      	mov	r2, sl
10001ffa:	43b2      	bics	r2, r6
10001ffc:	4666      	mov	r6, ip
10001ffe:	3101      	adds	r1, #1
10002000:	4332      	orrs	r2, r6
10002002:	b209      	sxth	r1, r1
10002004:	54e2      	strb	r2, [r4, r3]
10002006:	42a9      	cmp	r1, r5
10002008:	da1c      	bge.n	10002044 <drawVLine+0x88>
1000200a:	1c0b      	adds	r3, r1, #0
1000200c:	42b9      	cmp	r1, r7
1000200e:	db01      	blt.n	10002014 <drawVLine+0x58>
10002010:	23e0      	movs	r3, #224	@ 0xe0
10002012:	33ff      	adds	r3, #255	@ 0xff
10002014:	b21b      	sxth	r3, r3
10002016:	43da      	mvns	r2, r3
10002018:	17d2      	asrs	r2, r2, #31
1000201a:	4013      	ands	r3, r2
1000201c:	009a      	lsls	r2, r3, #2
1000201e:	18d2      	adds	r2, r2, r3
10002020:	01d2      	lsls	r2, r2, #7
10002022:	1812      	adds	r2, r2, r0
10002024:	1053      	asrs	r3, r2, #1
10002026:	5ce6      	ldrb	r6, [r4, r3]
10002028:	46b2      	mov	sl, r6
1000202a:	2601      	movs	r6, #1
1000202c:	4216      	tst	r6, r2
1000202e:	d1e2      	bne.n	10001ff6 <drawVLine+0x3a>
10002030:	464e      	mov	r6, r9
10002032:	4652      	mov	r2, sl
10002034:	43b2      	bics	r2, r6
10002036:	465e      	mov	r6, fp
10002038:	3101      	adds	r1, #1
1000203a:	4332      	orrs	r2, r6
1000203c:	b209      	sxth	r1, r1
1000203e:	54e2      	strb	r2, [r4, r3]
10002040:	42a9      	cmp	r1, r5
10002042:	dbe2      	blt.n	1000200a <drawVLine+0x4e>
10002044:	bcf0      	pop	{r4, r5, r6, r7}
10002046:	46bb      	mov	fp, r7
10002048:	46b2      	mov	sl, r6
1000204a:	46a9      	mov	r9, r5
1000204c:	46a0      	mov	r8, r4
1000204e:	bdf0      	pop	{r4, r5, r6, r7, pc}
10002050:	4801      	ldr	r0, [pc, #4]	@ (10002058 <drawVLine+0x9c>)
10002052:	e7c8      	b.n	10001fe6 <drawVLine+0x2a>
10002054:	20000980 	.word	0x20000980
10002058:	0000027f 	.word	0x0000027f

1000205c <drawHLine>:
1000205c:	b5f0      	push	{r4, r5, r6, r7, lr}
1000205e:	46de      	mov	lr, fp
10002060:	4645      	mov	r5, r8
10002062:	4657      	mov	r7, sl
10002064:	464e      	mov	r6, r9
10002066:	b5e0      	push	{r5, r6, r7, lr}
10002068:	1815      	adds	r5, r2, r0
1000206a:	469b      	mov	fp, r3
1000206c:	42a8      	cmp	r0, r5
1000206e:	da38      	bge.n	100020e2 <drawHLine+0x86>
10002070:	24f0      	movs	r4, #240	@ 0xf0
10002072:	1c0a      	adds	r2, r1, #0
10002074:	0064      	lsls	r4, r4, #1
10002076:	42a1      	cmp	r1, r4
10002078:	da39      	bge.n	100020ee <drawHLine+0x92>
1000207a:	b212      	sxth	r2, r2
1000207c:	43d1      	mvns	r1, r2
1000207e:	465b      	mov	r3, fp
10002080:	17c9      	asrs	r1, r1, #31
10002082:	400a      	ands	r2, r1
10002084:	0094      	lsls	r4, r2, #2
10002086:	18a4      	adds	r4, r4, r2
10002088:	00da      	lsls	r2, r3, #3
1000208a:	b2d3      	uxtb	r3, r2
1000208c:	469c      	mov	ip, r3
1000208e:	2307      	movs	r3, #7
10002090:	27a0      	movs	r7, #160	@ 0xa0
10002092:	4699      	mov	r9, r3
10002094:	3331      	adds	r3, #49	@ 0x31
10002096:	4698      	mov	r8, r3
10002098:	4a17      	ldr	r2, [pc, #92]	@ (100020f8 <drawHLine+0x9c>)
1000209a:	01e4      	lsls	r4, r4, #7
1000209c:	00bf      	lsls	r7, r7, #2
1000209e:	e009      	b.n	100020b4 <drawHLine+0x58>
100020a0:	4646      	mov	r6, r8
100020a2:	4651      	mov	r1, sl
100020a4:	43b1      	bics	r1, r6
100020a6:	4666      	mov	r6, ip
100020a8:	3001      	adds	r0, #1
100020aa:	4331      	orrs	r1, r6
100020ac:	b200      	sxth	r0, r0
100020ae:	54d1      	strb	r1, [r2, r3]
100020b0:	42a8      	cmp	r0, r5
100020b2:	da16      	bge.n	100020e2 <drawHLine+0x86>
100020b4:	43c1      	mvns	r1, r0
100020b6:	17c9      	asrs	r1, r1, #31
100020b8:	4001      	ands	r1, r0
100020ba:	42b9      	cmp	r1, r7
100020bc:	db00      	blt.n	100020c0 <drawHLine+0x64>
100020be:	490f      	ldr	r1, [pc, #60]	@ (100020fc <drawHLine+0xa0>)
100020c0:	1909      	adds	r1, r1, r4
100020c2:	104b      	asrs	r3, r1, #1
100020c4:	5cd6      	ldrb	r6, [r2, r3]
100020c6:	46b2      	mov	sl, r6
100020c8:	2601      	movs	r6, #1
100020ca:	420e      	tst	r6, r1
100020cc:	d1e8      	bne.n	100020a0 <drawHLine+0x44>
100020ce:	464e      	mov	r6, r9
100020d0:	4651      	mov	r1, sl
100020d2:	43b1      	bics	r1, r6
100020d4:	465e      	mov	r6, fp
100020d6:	3001      	adds	r0, #1
100020d8:	4331      	orrs	r1, r6
100020da:	b200      	sxth	r0, r0
100020dc:	54d1      	strb	r1, [r2, r3]
100020de:	42a8      	cmp	r0, r5
100020e0:	dbe8      	blt.n	100020b4 <drawHLine+0x58>
100020e2:	bcf0      	pop	{r4, r5, r6, r7}
100020e4:	46bb      	mov	fp, r7
100020e6:	46b2      	mov	sl, r6
100020e8:	46a9      	mov	r9, r5
100020ea:	46a0      	mov	r8, r4
100020ec:	bdf0      	pop	{r4, r5, r6, r7, pc}
100020ee:	23e0      	movs	r3, #224	@ 0xe0
100020f0:	33ff      	adds	r3, #255	@ 0xff
100020f2:	1c1a      	adds	r2, r3, #0
100020f4:	e7c1      	b.n	1000207a <drawHLine+0x1e>
100020f6:	46c0      	nop			@ (mov r8, r8)
100020f8:	20000980 	.word	0x20000980
100020fc:	0000027f 	.word	0x0000027f

10002100 <drawLine>:
10002100:	b5f0      	push	{r4, r5, r6, r7, lr}
10002102:	4657      	mov	r7, sl
10002104:	464e      	mov	r6, r9
10002106:	4645      	mov	r5, r8
10002108:	46de      	mov	lr, fp
1000210a:	b5e0      	push	{r5, r6, r7, lr}
1000210c:	1a5d      	subs	r5, r3, r1
1000210e:	b087      	sub	sp, #28
10002110:	17ee      	asrs	r6, r5, #31
10002112:	ac10      	add	r4, sp, #64	@ 0x40
10002114:	7824      	ldrb	r4, [r4, #0]
10002116:	19ad      	adds	r5, r5, r6
10002118:	4075      	eors	r5, r6
1000211a:	1a16      	subs	r6, r2, r0
1000211c:	9403      	str	r4, [sp, #12]
1000211e:	17f4      	asrs	r4, r6, #31
10002120:	1936      	adds	r6, r6, r4
10002122:	001f      	movs	r7, r3
10002124:	468a      	mov	sl, r1
10002126:	4691      	mov	r9, r2
10002128:	4680      	mov	r8, r0
1000212a:	46ac      	mov	ip, r5
1000212c:	4066      	eors	r6, r4
1000212e:	42b5      	cmp	r5, r6
10002130:	dd06      	ble.n	10002140 <drawLine+0x40>
10002132:	0017      	movs	r7, r2
10002134:	4682      	mov	sl, r0
10002136:	001a      	movs	r2, r3
10002138:	0008      	movs	r0, r1
1000213a:	46b4      	mov	ip, r6
1000213c:	464b      	mov	r3, r9
1000213e:	4641      	mov	r1, r8
10002140:	4290      	cmp	r0, r2
10002142:	dd11      	ble.n	10002168 <drawLine+0x68>
10002144:	4654      	mov	r4, sl
10002146:	1be4      	subs	r4, r4, r7
10002148:	17e7      	asrs	r7, r4, #31
1000214a:	19e4      	adds	r4, r4, r7
1000214c:	407c      	eors	r4, r7
1000214e:	1a87      	subs	r7, r0, r2
10002150:	46a4      	mov	ip, r4
10002152:	b2bc      	uxth	r4, r7
10002154:	b23f      	sxth	r7, r7
10002156:	46a0      	mov	r8, r4
10002158:	0ffc      	lsrs	r4, r7, #31
1000215a:	19e4      	adds	r4, r4, r7
1000215c:	1064      	asrs	r4, r4, #1
1000215e:	4299      	cmp	r1, r3
10002160:	dd6e      	ble.n	10002240 <drawLine+0x140>
10002162:	2101      	movs	r1, #1
10002164:	9102      	str	r1, [sp, #8]
10002166:	e00e      	b.n	10002186 <drawLine+0x86>
10002168:	1a17      	subs	r7, r2, r0
1000216a:	b2bc      	uxth	r4, r7
1000216c:	b23f      	sxth	r7, r7
1000216e:	46a0      	mov	r8, r4
10002170:	0ffc      	lsrs	r4, r7, #31
10002172:	19e4      	adds	r4, r4, r7
10002174:	1064      	asrs	r4, r4, #1
10002176:	4299      	cmp	r1, r3
10002178:	db53      	blt.n	10002222 <drawLine+0x122>
1000217a:	000b      	movs	r3, r1
1000217c:	0011      	movs	r1, r2
1000217e:	0002      	movs	r2, r0
10002180:	0008      	movs	r0, r1
10002182:	4953      	ldr	r1, [pc, #332]	@ (100022d0 <drawLine+0x1d0>)
10002184:	9102      	str	r1, [sp, #8]
10002186:	9903      	ldr	r1, [sp, #12]
10002188:	00c9      	lsls	r1, r1, #3
1000218a:	b2c9      	uxtb	r1, r1
1000218c:	9104      	str	r1, [sp, #16]
1000218e:	4661      	mov	r1, ip
10002190:	b289      	uxth	r1, r1
10002192:	468c      	mov	ip, r1
10002194:	42b5      	cmp	r5, r6
10002196:	dd56      	ble.n	10002246 <drawLine+0x146>
10002198:	21f0      	movs	r1, #240	@ 0xf0
1000219a:	0049      	lsls	r1, r1, #1
1000219c:	468b      	mov	fp, r1
1000219e:	31a0      	adds	r1, #160	@ 0xa0
100021a0:	468a      	mov	sl, r1
100021a2:	2101      	movs	r1, #1
100021a4:	4689      	mov	r9, r1
100021a6:	4641      	mov	r1, r8
100021a8:	9105      	str	r1, [sp, #20]
100021aa:	0001      	movs	r1, r0
100021ac:	4660      	mov	r0, ip
100021ae:	4d49      	ldr	r5, [pc, #292]	@ (100022d4 <drawLine+0x1d4>)
100021b0:	468c      	mov	ip, r1
100021b2:	9001      	str	r0, [sp, #4]
100021b4:	e016      	b.n	100021e4 <drawLine+0xe4>
100021b6:	2107      	movs	r1, #7
100021b8:	438e      	bics	r6, r1
100021ba:	9903      	ldr	r1, [sp, #12]
100021bc:	430e      	orrs	r6, r1
100021be:	9901      	ldr	r1, [sp, #4]
100021c0:	55ee      	strb	r6, [r5, r7]
100021c2:	1a61      	subs	r1, r4, r1
100021c4:	b28e      	uxth	r6, r1
100021c6:	b20c      	sxth	r4, r1
100021c8:	0409      	lsls	r1, r1, #16
100021ca:	d507      	bpl.n	100021dc <drawLine+0xdc>
100021cc:	9902      	ldr	r1, [sp, #8]
100021ce:	4688      	mov	r8, r1
100021d0:	9905      	ldr	r1, [sp, #20]
100021d2:	4443      	add	r3, r8
100021d4:	4688      	mov	r8, r1
100021d6:	4446      	add	r6, r8
100021d8:	b21b      	sxth	r3, r3
100021da:	b234      	sxth	r4, r6
100021dc:	3201      	adds	r2, #1
100021de:	b212      	sxth	r2, r2
100021e0:	4594      	cmp	ip, r2
100021e2:	db26      	blt.n	10002232 <drawLine+0x132>
100021e4:	1c16      	adds	r6, r2, #0
100021e6:	455a      	cmp	r2, fp
100021e8:	db02      	blt.n	100021f0 <drawLine+0xf0>
100021ea:	21e0      	movs	r1, #224	@ 0xe0
100021ec:	31ff      	adds	r1, #255	@ 0xff
100021ee:	1c0e      	adds	r6, r1, #0
100021f0:	b236      	sxth	r6, r6
100021f2:	43f1      	mvns	r1, r6
100021f4:	17c9      	asrs	r1, r1, #31
100021f6:	400e      	ands	r6, r1
100021f8:	00b1      	lsls	r1, r6, #2
100021fa:	1989      	adds	r1, r1, r6
100021fc:	43de      	mvns	r6, r3
100021fe:	17f6      	asrs	r6, r6, #31
10002200:	401e      	ands	r6, r3
10002202:	b236      	sxth	r6, r6
10002204:	01c9      	lsls	r1, r1, #7
10002206:	4556      	cmp	r6, sl
10002208:	db00      	blt.n	1000220c <drawLine+0x10c>
1000220a:	4e33      	ldr	r6, [pc, #204]	@ (100022d8 <drawLine+0x1d8>)
1000220c:	4648      	mov	r0, r9
1000220e:	1989      	adds	r1, r1, r6
10002210:	104f      	asrs	r7, r1, #1
10002212:	5dee      	ldrb	r6, [r5, r7]
10002214:	4208      	tst	r0, r1
10002216:	d0ce      	beq.n	100021b6 <drawLine+0xb6>
10002218:	2138      	movs	r1, #56	@ 0x38
1000221a:	438e      	bics	r6, r1
1000221c:	9904      	ldr	r1, [sp, #16]
1000221e:	430e      	orrs	r6, r1
10002220:	e7cd      	b.n	100021be <drawLine+0xbe>
10002222:	000b      	movs	r3, r1
10002224:	0011      	movs	r1, r2
10002226:	0002      	movs	r2, r0
10002228:	0008      	movs	r0, r1
1000222a:	2101      	movs	r1, #1
1000222c:	9102      	str	r1, [sp, #8]
1000222e:	4282      	cmp	r2, r0
10002230:	dda9      	ble.n	10002186 <drawLine+0x86>
10002232:	b007      	add	sp, #28
10002234:	bcf0      	pop	{r4, r5, r6, r7}
10002236:	46bb      	mov	fp, r7
10002238:	46b2      	mov	sl, r6
1000223a:	46a9      	mov	r9, r5
1000223c:	46a0      	mov	r8, r4
1000223e:	bdf0      	pop	{r4, r5, r6, r7, pc}
10002240:	4923      	ldr	r1, [pc, #140]	@ (100022d0 <drawLine+0x1d0>)
10002242:	9102      	str	r1, [sp, #8]
10002244:	e7f3      	b.n	1000222e <drawLine+0x12e>
10002246:	21f0      	movs	r1, #240	@ 0xf0
10002248:	0049      	lsls	r1, r1, #1
1000224a:	468b      	mov	fp, r1
1000224c:	31a0      	adds	r1, #160	@ 0xa0
1000224e:	468a      	mov	sl, r1
10002250:	2101      	movs	r1, #1
10002252:	4689      	mov	r9, r1
10002254:	4641      	mov	r1, r8
10002256:	9105      	str	r1, [sp, #20]
10002258:	0001      	movs	r1, r0
1000225a:	4660      	mov	r0, ip
1000225c:	4d1d      	ldr	r5, [pc, #116]	@ (100022d4 <drawLine+0x1d4>)
1000225e:	468c      	mov	ip, r1
10002260:	9001      	str	r0, [sp, #4]
10002262:	e016      	b.n	10002292 <drawLine+0x192>
10002264:	2138      	movs	r1, #56	@ 0x38
10002266:	438e      	bics	r6, r1
10002268:	9904      	ldr	r1, [sp, #16]
1000226a:	430e      	orrs	r6, r1
1000226c:	9901      	ldr	r1, [sp, #4]
1000226e:	55ee      	strb	r6, [r5, r7]
10002270:	1a61      	subs	r1, r4, r1
10002272:	b28e      	uxth	r6, r1
10002274:	b20c      	sxth	r4, r1
10002276:	0409      	lsls	r1, r1, #16
10002278:	d507      	bpl.n	1000228a <drawLine+0x18a>
1000227a:	9902      	ldr	r1, [sp, #8]
1000227c:	4688      	mov	r8, r1
1000227e:	9905      	ldr	r1, [sp, #20]
10002280:	4443      	add	r3, r8
10002282:	4688      	mov	r8, r1
10002284:	4446      	add	r6, r8
10002286:	b21b      	sxth	r3, r3
10002288:	b234      	sxth	r4, r6
1000228a:	3201      	adds	r2, #1
1000228c:	b212      	sxth	r2, r2
1000228e:	4562      	cmp	r2, ip
10002290:	dccf      	bgt.n	10002232 <drawLine+0x132>
10002292:	1c1e      	adds	r6, r3, #0
10002294:	455b      	cmp	r3, fp
10002296:	db02      	blt.n	1000229e <drawLine+0x19e>
10002298:	21e0      	movs	r1, #224	@ 0xe0
1000229a:	31ff      	adds	r1, #255	@ 0xff
1000229c:	1c0e      	adds	r6, r1, #0
1000229e:	b236      	sxth	r6, r6
100022a0:	43f1      	mvns	r1, r6
100022a2:	17c9      	asrs	r1, r1, #31
100022a4:	400e      	ands	r6, r1
100022a6:	00b1      	lsls	r1, r6, #2
100022a8:	1989      	adds	r1, r1, r6
100022aa:	43d6      	mvns	r6, r2
100022ac:	17f6      	asrs	r6, r6, #31
100022ae:	4016      	ands	r6, r2
100022b0:	b236      	sxth	r6, r6
100022b2:	01c9      	lsls	r1, r1, #7
100022b4:	4556      	cmp	r6, sl
100022b6:	db00      	blt.n	100022ba <drawLine+0x1ba>
100022b8:	4e07      	ldr	r6, [pc, #28]	@ (100022d8 <drawLine+0x1d8>)
100022ba:	4648      	mov	r0, r9
100022bc:	1989      	adds	r1, r1, r6
100022be:	104f      	asrs	r7, r1, #1
100022c0:	5dee      	ldrb	r6, [r5, r7]
100022c2:	4208      	tst	r0, r1
100022c4:	d1ce      	bne.n	10002264 <drawLine+0x164>
100022c6:	2107      	movs	r1, #7
100022c8:	438e      	bics	r6, r1
100022ca:	9903      	ldr	r1, [sp, #12]
100022cc:	430e      	orrs	r6, r1
100022ce:	e7cd      	b.n	1000226c <drawLine+0x16c>
100022d0:	0000ffff 	.word	0x0000ffff
100022d4:	20000980 	.word	0x20000980
100022d8:	0000027f 	.word	0x0000027f

100022dc <drawRect>:
100022dc:	b5f0      	push	{r4, r5, r6, r7, lr}
100022de:	4657      	mov	r7, sl
100022e0:	464e      	mov	r6, r9
100022e2:	4645      	mov	r5, r8
100022e4:	46de      	mov	lr, fp
100022e6:	b5e0      	push	{r5, r6, r7, lr}
100022e8:	b087      	sub	sp, #28
100022ea:	001c      	movs	r4, r3
100022ec:	1816      	adds	r6, r2, r0
100022ee:	ab10      	add	r3, sp, #64	@ 0x40
100022f0:	0005      	movs	r5, r0
100022f2:	781f      	ldrb	r7, [r3, #0]
100022f4:	9203      	str	r2, [sp, #12]
100022f6:	42b0      	cmp	r0, r6
100022f8:	db00      	blt.n	100022fc <drawRect+0x20>
100022fa:	e084      	b.n	10002406 <drawRect+0x12a>
100022fc:	22f0      	movs	r2, #240	@ 0xf0
100022fe:	1c0b      	adds	r3, r1, #0
10002300:	0052      	lsls	r2, r2, #1
10002302:	4291      	cmp	r1, r2
10002304:	db00      	blt.n	10002308 <drawRect+0x2c>
10002306:	e111      	b.n	1000252c <drawRect+0x250>
10002308:	b21b      	sxth	r3, r3
1000230a:	43da      	mvns	r2, r3
1000230c:	17d2      	asrs	r2, r2, #31
1000230e:	4013      	ands	r3, r2
10002310:	009a      	lsls	r2, r3, #2
10002312:	18d3      	adds	r3, r2, r3
10002314:	01db      	lsls	r3, r3, #7
10002316:	469c      	mov	ip, r3
10002318:	00fb      	lsls	r3, r7, #3
1000231a:	b2db      	uxtb	r3, r3
1000231c:	9301      	str	r3, [sp, #4]
1000231e:	23a0      	movs	r3, #160	@ 0xa0
10002320:	009b      	lsls	r3, r3, #2
10002322:	4699      	mov	r9, r3
10002324:	2301      	movs	r3, #1
10002326:	4698      	mov	r8, r3
10002328:	3306      	adds	r3, #6
1000232a:	469b      	mov	fp, r3
1000232c:	3331      	adds	r3, #49	@ 0x31
1000232e:	9405      	str	r4, [sp, #20]
10002330:	0028      	movs	r0, r5
10002332:	4664      	mov	r4, ip
10002334:	469a      	mov	sl, r3
10002336:	46ac      	mov	ip, r5
10002338:	4a85      	ldr	r2, [pc, #532]	@ (10002550 <drawRect+0x274>)
1000233a:	9702      	str	r7, [sp, #8]
1000233c:	9104      	str	r1, [sp, #16]
1000233e:	43c3      	mvns	r3, r0
10002340:	17db      	asrs	r3, r3, #31
10002342:	4003      	ands	r3, r0
10002344:	454b      	cmp	r3, r9
10002346:	db00      	blt.n	1000234a <drawRect+0x6e>
10002348:	4b82      	ldr	r3, [pc, #520]	@ (10002554 <drawRect+0x278>)
1000234a:	4647      	mov	r7, r8
1000234c:	191b      	adds	r3, r3, r4
1000234e:	105d      	asrs	r5, r3, #1
10002350:	5d51      	ldrb	r1, [r2, r5]
10002352:	421f      	tst	r7, r3
10002354:	d00d      	beq.n	10002372 <drawRect+0x96>
10002356:	4653      	mov	r3, sl
10002358:	4399      	bics	r1, r3
1000235a:	9b01      	ldr	r3, [sp, #4]
1000235c:	3001      	adds	r0, #1
1000235e:	4319      	orrs	r1, r3
10002360:	b200      	sxth	r0, r0
10002362:	5551      	strb	r1, [r2, r5]
10002364:	42b0      	cmp	r0, r6
10002366:	dbea      	blt.n	1000233e <drawRect+0x62>
10002368:	4665      	mov	r5, ip
1000236a:	9904      	ldr	r1, [sp, #16]
1000236c:	9c05      	ldr	r4, [sp, #20]
1000236e:	9f02      	ldr	r7, [sp, #8]
10002370:	e00c      	b.n	1000238c <drawRect+0xb0>
10002372:	465b      	mov	r3, fp
10002374:	4399      	bics	r1, r3
10002376:	9b02      	ldr	r3, [sp, #8]
10002378:	3001      	adds	r0, #1
1000237a:	4319      	orrs	r1, r3
1000237c:	b200      	sxth	r0, r0
1000237e:	5551      	strb	r1, [r2, r5]
10002380:	42b0      	cmp	r0, r6
10002382:	dbdc      	blt.n	1000233e <drawRect+0x62>
10002384:	4665      	mov	r5, ip
10002386:	001f      	movs	r7, r3
10002388:	9904      	ldr	r1, [sp, #16]
1000238a:	9c05      	ldr	r4, [sp, #20]
1000238c:	23f0      	movs	r3, #240	@ 0xf0
1000238e:	1e60      	subs	r0, r4, #1
10002390:	1840      	adds	r0, r0, r1
10002392:	4680      	mov	r8, r0
10002394:	b200      	sxth	r0, r0
10002396:	005b      	lsls	r3, r3, #1
10002398:	4298      	cmp	r0, r3
1000239a:	db02      	blt.n	100023a2 <drawRect+0xc6>
1000239c:	23e0      	movs	r3, #224	@ 0xe0
1000239e:	33ff      	adds	r3, #255	@ 0xff
100023a0:	4698      	mov	r8, r3
100023a2:	4643      	mov	r3, r8
100023a4:	b21b      	sxth	r3, r3
100023a6:	43d8      	mvns	r0, r3
100023a8:	17c0      	asrs	r0, r0, #31
100023aa:	4003      	ands	r3, r0
100023ac:	0098      	lsls	r0, r3, #2
100023ae:	18c3      	adds	r3, r0, r3
100023b0:	01db      	lsls	r3, r3, #7
100023b2:	469c      	mov	ip, r3
100023b4:	23a0      	movs	r3, #160	@ 0xa0
100023b6:	009b      	lsls	r3, r3, #2
100023b8:	4699      	mov	r9, r3
100023ba:	2301      	movs	r3, #1
100023bc:	4698      	mov	r8, r3
100023be:	3306      	adds	r3, #6
100023c0:	469b      	mov	fp, r3
100023c2:	3331      	adds	r3, #49	@ 0x31
100023c4:	9405      	str	r4, [sp, #20]
100023c6:	0028      	movs	r0, r5
100023c8:	4664      	mov	r4, ip
100023ca:	469a      	mov	sl, r3
100023cc:	46ac      	mov	ip, r5
100023ce:	9702      	str	r7, [sp, #8]
100023d0:	9104      	str	r1, [sp, #16]
100023d2:	43c3      	mvns	r3, r0
100023d4:	17db      	asrs	r3, r3, #31
100023d6:	4003      	ands	r3, r0
100023d8:	454b      	cmp	r3, r9
100023da:	db00      	blt.n	100023de <drawRect+0x102>
100023dc:	4b5d      	ldr	r3, [pc, #372]	@ (10002554 <drawRect+0x278>)
100023de:	4647      	mov	r7, r8
100023e0:	191b      	adds	r3, r3, r4
100023e2:	105d      	asrs	r5, r3, #1
100023e4:	5d51      	ldrb	r1, [r2, r5]
100023e6:	421f      	tst	r7, r3
100023e8:	d100      	bne.n	100023ec <drawRect+0x110>
100023ea:	e0a2      	b.n	10002532 <drawRect+0x256>
100023ec:	4653      	mov	r3, sl
100023ee:	4399      	bics	r1, r3
100023f0:	9b01      	ldr	r3, [sp, #4]
100023f2:	3001      	adds	r0, #1
100023f4:	4319      	orrs	r1, r3
100023f6:	b200      	sxth	r0, r0
100023f8:	5551      	strb	r1, [r2, r5]
100023fa:	42b0      	cmp	r0, r6
100023fc:	dbe9      	blt.n	100023d2 <drawRect+0xf6>
100023fe:	4665      	mov	r5, ip
10002400:	9904      	ldr	r1, [sp, #16]
10002402:	9c05      	ldr	r4, [sp, #20]
10002404:	9f02      	ldr	r7, [sp, #8]
10002406:	1866      	adds	r6, r4, r1
10002408:	42b1      	cmp	r1, r6
1000240a:	db00      	blt.n	1000240e <drawRect+0x132>
1000240c:	e084      	b.n	10002518 <drawRect+0x23c>
1000240e:	00fb      	lsls	r3, r7, #3
10002410:	b2db      	uxtb	r3, r3
10002412:	4698      	mov	r8, r3
10002414:	43eb      	mvns	r3, r5
10002416:	22a0      	movs	r2, #160	@ 0xa0
10002418:	17db      	asrs	r3, r3, #31
1000241a:	402b      	ands	r3, r5
1000241c:	469c      	mov	ip, r3
1000241e:	0092      	lsls	r2, r2, #2
10002420:	4293      	cmp	r3, r2
10002422:	db00      	blt.n	10002426 <drawRect+0x14a>
10002424:	e07f      	b.n	10002526 <drawRect+0x24a>
10002426:	23f0      	movs	r3, #240	@ 0xf0
10002428:	005b      	lsls	r3, r3, #1
1000242a:	469a      	mov	sl, r3
1000242c:	3be0      	subs	r3, #224	@ 0xe0
1000242e:	3bff      	subs	r3, #255	@ 0xff
10002430:	4699      	mov	r9, r3
10002432:	3306      	adds	r3, #6
10002434:	469b      	mov	fp, r3
10002436:	4643      	mov	r3, r8
10002438:	0008      	movs	r0, r1
1000243a:	4a45      	ldr	r2, [pc, #276]	@ (10002550 <drawRect+0x274>)
1000243c:	9301      	str	r3, [sp, #4]
1000243e:	9502      	str	r5, [sp, #8]
10002440:	9104      	str	r1, [sp, #16]
10002442:	1c04      	adds	r4, r0, #0
10002444:	4550      	cmp	r0, sl
10002446:	db02      	blt.n	1000244e <drawRect+0x172>
10002448:	23e0      	movs	r3, #224	@ 0xe0
1000244a:	33ff      	adds	r3, #255	@ 0xff
1000244c:	1c1c      	adds	r4, r3, #0
1000244e:	b224      	sxth	r4, r4
10002450:	43e3      	mvns	r3, r4
10002452:	4649      	mov	r1, r9
10002454:	17db      	asrs	r3, r3, #31
10002456:	401c      	ands	r4, r3
10002458:	00a3      	lsls	r3, r4, #2
1000245a:	191b      	adds	r3, r3, r4
1000245c:	01db      	lsls	r3, r3, #7
1000245e:	4463      	add	r3, ip
10002460:	105d      	asrs	r5, r3, #1
10002462:	5d54      	ldrb	r4, [r2, r5]
10002464:	4219      	tst	r1, r3
10002466:	d00c      	beq.n	10002482 <drawRect+0x1a6>
10002468:	2338      	movs	r3, #56	@ 0x38
1000246a:	439c      	bics	r4, r3
1000246c:	9b01      	ldr	r3, [sp, #4]
1000246e:	3001      	adds	r0, #1
10002470:	431c      	orrs	r4, r3
10002472:	b200      	sxth	r0, r0
10002474:	5554      	strb	r4, [r2, r5]
10002476:	4286      	cmp	r6, r0
10002478:	dce3      	bgt.n	10002442 <drawRect+0x166>
1000247a:	4698      	mov	r8, r3
1000247c:	9d02      	ldr	r5, [sp, #8]
1000247e:	9904      	ldr	r1, [sp, #16]
10002480:	e00b      	b.n	1000249a <drawRect+0x1be>
10002482:	465b      	mov	r3, fp
10002484:	3001      	adds	r0, #1
10002486:	439c      	bics	r4, r3
10002488:	433c      	orrs	r4, r7
1000248a:	b200      	sxth	r0, r0
1000248c:	5554      	strb	r4, [r2, r5]
1000248e:	42b0      	cmp	r0, r6
10002490:	dbd7      	blt.n	10002442 <drawRect+0x166>
10002492:	9b01      	ldr	r3, [sp, #4]
10002494:	9d02      	ldr	r5, [sp, #8]
10002496:	4698      	mov	r8, r3
10002498:	9904      	ldr	r1, [sp, #16]
1000249a:	9b03      	ldr	r3, [sp, #12]
1000249c:	3b01      	subs	r3, #1
1000249e:	195b      	adds	r3, r3, r5
100024a0:	b218      	sxth	r0, r3
100024a2:	43c0      	mvns	r0, r0
100024a4:	17c0      	asrs	r0, r0, #31
100024a6:	4018      	ands	r0, r3
100024a8:	23a0      	movs	r3, #160	@ 0xa0
100024aa:	b200      	sxth	r0, r0
100024ac:	009b      	lsls	r3, r3, #2
100024ae:	4298      	cmp	r0, r3
100024b0:	db00      	blt.n	100024b4 <drawRect+0x1d8>
100024b2:	4828      	ldr	r0, [pc, #160]	@ (10002554 <drawRect+0x278>)
100024b4:	2301      	movs	r3, #1
100024b6:	25f0      	movs	r5, #240	@ 0xf0
100024b8:	469b      	mov	fp, r3
100024ba:	3306      	adds	r3, #6
100024bc:	4699      	mov	r9, r3
100024be:	3331      	adds	r3, #49	@ 0x31
100024c0:	469c      	mov	ip, r3
100024c2:	006d      	lsls	r5, r5, #1
100024c4:	9701      	str	r7, [sp, #4]
100024c6:	e009      	b.n	100024dc <drawRect+0x200>
100024c8:	4663      	mov	r3, ip
100024ca:	439c      	bics	r4, r3
100024cc:	4643      	mov	r3, r8
100024ce:	431c      	orrs	r4, r3
100024d0:	4653      	mov	r3, sl
100024d2:	3101      	adds	r1, #1
100024d4:	b209      	sxth	r1, r1
100024d6:	54d4      	strb	r4, [r2, r3]
100024d8:	42b1      	cmp	r1, r6
100024da:	da1d      	bge.n	10002518 <drawRect+0x23c>
100024dc:	1c0c      	adds	r4, r1, #0
100024de:	42a9      	cmp	r1, r5
100024e0:	db02      	blt.n	100024e8 <drawRect+0x20c>
100024e2:	23e0      	movs	r3, #224	@ 0xe0
100024e4:	33ff      	adds	r3, #255	@ 0xff
100024e6:	1c1c      	adds	r4, r3, #0
100024e8:	b224      	sxth	r4, r4
100024ea:	43e3      	mvns	r3, r4
100024ec:	465f      	mov	r7, fp
100024ee:	17db      	asrs	r3, r3, #31
100024f0:	401c      	ands	r4, r3
100024f2:	00a3      	lsls	r3, r4, #2
100024f4:	191b      	adds	r3, r3, r4
100024f6:	01db      	lsls	r3, r3, #7
100024f8:	181b      	adds	r3, r3, r0
100024fa:	105c      	asrs	r4, r3, #1
100024fc:	46a2      	mov	sl, r4
100024fe:	5d14      	ldrb	r4, [r2, r4]
10002500:	421f      	tst	r7, r3
10002502:	d1e1      	bne.n	100024c8 <drawRect+0x1ec>
10002504:	464b      	mov	r3, r9
10002506:	439c      	bics	r4, r3
10002508:	9b01      	ldr	r3, [sp, #4]
1000250a:	3101      	adds	r1, #1
1000250c:	431c      	orrs	r4, r3
1000250e:	4653      	mov	r3, sl
10002510:	b209      	sxth	r1, r1
10002512:	54d4      	strb	r4, [r2, r3]
10002514:	42b1      	cmp	r1, r6
10002516:	dbe1      	blt.n	100024dc <drawRect+0x200>
10002518:	b007      	add	sp, #28
1000251a:	bcf0      	pop	{r4, r5, r6, r7}
1000251c:	46bb      	mov	fp, r7
1000251e:	46b2      	mov	sl, r6
10002520:	46a9      	mov	r9, r5
10002522:	46a0      	mov	r8, r4
10002524:	bdf0      	pop	{r4, r5, r6, r7, pc}
10002526:	4b0b      	ldr	r3, [pc, #44]	@ (10002554 <drawRect+0x278>)
10002528:	469c      	mov	ip, r3
1000252a:	e77c      	b.n	10002426 <drawRect+0x14a>
1000252c:	23e0      	movs	r3, #224	@ 0xe0
1000252e:	33ff      	adds	r3, #255	@ 0xff
10002530:	e6ea      	b.n	10002308 <drawRect+0x2c>
10002532:	465b      	mov	r3, fp
10002534:	4399      	bics	r1, r3
10002536:	9b02      	ldr	r3, [sp, #8]
10002538:	3001      	adds	r0, #1
1000253a:	4319      	orrs	r1, r3
1000253c:	b200      	sxth	r0, r0
1000253e:	5551      	strb	r1, [r2, r5]
10002540:	42b0      	cmp	r0, r6
10002542:	da00      	bge.n	10002546 <drawRect+0x26a>
10002544:	e745      	b.n	100023d2 <drawRect+0xf6>
10002546:	4665      	mov	r5, ip
10002548:	001f      	movs	r7, r3
1000254a:	9904      	ldr	r1, [sp, #16]
1000254c:	9c05      	ldr	r4, [sp, #20]
1000254e:	e75a      	b.n	10002406 <drawRect+0x12a>
10002550:	20000980 	.word	0x20000980
10002554:	0000027f 	.word	0x0000027f

10002558 <drawCircle>:
10002558:	b5f0      	push	{r4, r5, r6, r7, lr}
1000255a:	464e      	mov	r6, r9
1000255c:	4645      	mov	r5, r8
1000255e:	46de      	mov	lr, fp
10002560:	4657      	mov	r7, sl
10002562:	b5e0      	push	{r5, r6, r7, lr}
10002564:	b087      	sub	sp, #28
10002566:	b295      	uxth	r5, r2
10002568:	9203      	str	r2, [sp, #12]
1000256a:	2201      	movs	r2, #1
1000256c:	1b52      	subs	r2, r2, r5
1000256e:	b212      	sxth	r2, r2
10002570:	9204      	str	r2, [sp, #16]
10002572:	03ea      	lsls	r2, r5, #15
10002574:	1b52      	subs	r2, r2, r5
10002576:	0052      	lsls	r2, r2, #1
10002578:	b212      	sxth	r2, r2
1000257a:	43c6      	mvns	r6, r0
1000257c:	9205      	str	r2, [sp, #20]
1000257e:	b28a      	uxth	r2, r1
10002580:	4694      	mov	ip, r2
10002582:	22a0      	movs	r2, #160	@ 0xa0
10002584:	17f6      	asrs	r6, r6, #31
10002586:	0092      	lsls	r2, r2, #2
10002588:	4006      	ands	r6, r0
1000258a:	4296      	cmp	r6, r2
1000258c:	db00      	blt.n	10002590 <drawCircle+0x38>
1000258e:	4edd      	ldr	r6, [pc, #884]	@ (10002904 <drawCircle+0x3ac>)
10002590:	4662      	mov	r2, ip
10002592:	27f0      	movs	r7, #240	@ 0xf0
10002594:	18ac      	adds	r4, r5, r2
10002596:	1c22      	adds	r2, r4, #0
10002598:	b224      	sxth	r4, r4
1000259a:	007f      	lsls	r7, r7, #1
1000259c:	42bc      	cmp	r4, r7
1000259e:	db01      	blt.n	100025a4 <drawCircle+0x4c>
100025a0:	22e0      	movs	r2, #224	@ 0xe0
100025a2:	32ff      	adds	r2, #255	@ 0xff
100025a4:	b212      	sxth	r2, r2
100025a6:	43d4      	mvns	r4, r2
100025a8:	17e4      	asrs	r4, r4, #31
100025aa:	4022      	ands	r2, r4
100025ac:	0094      	lsls	r4, r2, #2
100025ae:	18a4      	adds	r4, r4, r2
100025b0:	01e4      	lsls	r4, r4, #7
100025b2:	19a4      	adds	r4, r4, r6
100025b4:	1062      	asrs	r2, r4, #1
100025b6:	4690      	mov	r8, r2
100025b8:	4647      	mov	r7, r8
100025ba:	4ad3      	ldr	r2, [pc, #844]	@ (10002908 <drawCircle+0x3b0>)
100025bc:	5dd7      	ldrb	r7, [r2, r7]
100025be:	07e4      	lsls	r4, r4, #31
100025c0:	d400      	bmi.n	100025c4 <drawCircle+0x6c>
100025c2:	e1db      	b.n	1000297c <drawCircle+0x424>
100025c4:	2438      	movs	r4, #56	@ 0x38
100025c6:	43a7      	bics	r7, r4
100025c8:	00dc      	lsls	r4, r3, #3
100025ca:	4327      	orrs	r7, r4
100025cc:	b2ff      	uxtb	r7, r7
100025ce:	4644      	mov	r4, r8
100025d0:	5517      	strb	r7, [r2, r4]
100025d2:	4664      	mov	r4, ip
100025d4:	27f0      	movs	r7, #240	@ 0xf0
100025d6:	1b64      	subs	r4, r4, r5
100025d8:	46a1      	mov	r9, r4
100025da:	b224      	sxth	r4, r4
100025dc:	007f      	lsls	r7, r7, #1
100025de:	42bc      	cmp	r4, r7
100025e0:	db02      	blt.n	100025e8 <drawCircle+0x90>
100025e2:	24e0      	movs	r4, #224	@ 0xe0
100025e4:	34ff      	adds	r4, #255	@ 0xff
100025e6:	46a1      	mov	r9, r4
100025e8:	464c      	mov	r4, r9
100025ea:	b227      	sxth	r7, r4
100025ec:	43fc      	mvns	r4, r7
100025ee:	17e4      	asrs	r4, r4, #31
100025f0:	4027      	ands	r7, r4
100025f2:	00bc      	lsls	r4, r7, #2
100025f4:	19e4      	adds	r4, r4, r7
100025f6:	01e4      	lsls	r4, r4, #7
100025f8:	19a4      	adds	r4, r4, r6
100025fa:	1066      	asrs	r6, r4, #1
100025fc:	5d97      	ldrb	r7, [r2, r6]
100025fe:	07e4      	lsls	r4, r4, #31
10002600:	d400      	bmi.n	10002604 <drawCircle+0xac>
10002602:	e1b6      	b.n	10002972 <drawCircle+0x41a>
10002604:	2438      	movs	r4, #56	@ 0x38
10002606:	43a7      	bics	r7, r4
10002608:	00dc      	lsls	r4, r3, #3
1000260a:	433c      	orrs	r4, r7
1000260c:	b2e4      	uxtb	r4, r4
1000260e:	5594      	strb	r4, [r2, r6]
10002610:	26f0      	movs	r6, #240	@ 0xf0
10002612:	b280      	uxth	r0, r0
10002614:	1c0c      	adds	r4, r1, #0
10002616:	0076      	lsls	r6, r6, #1
10002618:	42b1      	cmp	r1, r6
1000261a:	db02      	blt.n	10002622 <drawCircle+0xca>
1000261c:	21e0      	movs	r1, #224	@ 0xe0
1000261e:	31ff      	adds	r1, #255	@ 0xff
10002620:	1c0c      	adds	r4, r1, #0
10002622:	b221      	sxth	r1, r4
10002624:	43cc      	mvns	r4, r1
10002626:	17e4      	asrs	r4, r4, #31
10002628:	4021      	ands	r1, r4
1000262a:	182e      	adds	r6, r5, r0
1000262c:	008c      	lsls	r4, r1, #2
1000262e:	1864      	adds	r4, r4, r1
10002630:	b231      	sxth	r1, r6
10002632:	43c9      	mvns	r1, r1
10002634:	17c9      	asrs	r1, r1, #31
10002636:	4031      	ands	r1, r6
10002638:	26a0      	movs	r6, #160	@ 0xa0
1000263a:	b209      	sxth	r1, r1
1000263c:	01e4      	lsls	r4, r4, #7
1000263e:	00b6      	lsls	r6, r6, #2
10002640:	42b1      	cmp	r1, r6
10002642:	db00      	blt.n	10002646 <drawCircle+0xee>
10002644:	49af      	ldr	r1, [pc, #700]	@ (10002904 <drawCircle+0x3ac>)
10002646:	1909      	adds	r1, r1, r4
10002648:	104e      	asrs	r6, r1, #1
1000264a:	5d97      	ldrb	r7, [r2, r6]
1000264c:	07c9      	lsls	r1, r1, #31
1000264e:	d400      	bmi.n	10002652 <drawCircle+0xfa>
10002650:	e18a      	b.n	10002968 <drawCircle+0x410>
10002652:	2138      	movs	r1, #56	@ 0x38
10002654:	438f      	bics	r7, r1
10002656:	00d9      	lsls	r1, r3, #3
10002658:	4339      	orrs	r1, r7
1000265a:	b2c9      	uxtb	r1, r1
1000265c:	5591      	strb	r1, [r2, r6]
1000265e:	1b46      	subs	r6, r0, r5
10002660:	b231      	sxth	r1, r6
10002662:	43c9      	mvns	r1, r1
10002664:	17c9      	asrs	r1, r1, #31
10002666:	4031      	ands	r1, r6
10002668:	26a0      	movs	r6, #160	@ 0xa0
1000266a:	b209      	sxth	r1, r1
1000266c:	00b6      	lsls	r6, r6, #2
1000266e:	42b1      	cmp	r1, r6
10002670:	db00      	blt.n	10002674 <drawCircle+0x11c>
10002672:	49a4      	ldr	r1, [pc, #656]	@ (10002904 <drawCircle+0x3ac>)
10002674:	1909      	adds	r1, r1, r4
10002676:	104e      	asrs	r6, r1, #1
10002678:	5d94      	ldrb	r4, [r2, r6]
1000267a:	07c9      	lsls	r1, r1, #31
1000267c:	d400      	bmi.n	10002680 <drawCircle+0x128>
1000267e:	e16e      	b.n	1000295e <drawCircle+0x406>
10002680:	2138      	movs	r1, #56	@ 0x38
10002682:	438c      	bics	r4, r1
10002684:	00d9      	lsls	r1, r3, #3
10002686:	4321      	orrs	r1, r4
10002688:	b2c9      	uxtb	r1, r1
1000268a:	5591      	strb	r1, [r2, r6]
1000268c:	9903      	ldr	r1, [sp, #12]
1000268e:	2900      	cmp	r1, #0
10002690:	dc00      	bgt.n	10002694 <drawCircle+0x13c>
10002692:	e130      	b.n	100028f6 <drawCircle+0x39e>
10002694:	00d9      	lsls	r1, r3, #3
10002696:	b2c9      	uxtb	r1, r1
10002698:	4688      	mov	r8, r1
1000269a:	2100      	movs	r1, #0
1000269c:	9101      	str	r1, [sp, #4]
1000269e:	4661      	mov	r1, ip
100026a0:	2701      	movs	r7, #1
100026a2:	469c      	mov	ip, r3
100026a4:	9100      	str	r1, [sp, #0]
100026a6:	e0d5      	b.n	10002854 <drawCircle+0x2fc>
100026a8:	464b      	mov	r3, r9
100026aa:	2438      	movs	r4, #56	@ 0x38
100026ac:	43a3      	bics	r3, r4
100026ae:	4644      	mov	r4, r8
100026b0:	4323      	orrs	r3, r4
100026b2:	4699      	mov	r9, r3
100026b4:	4653      	mov	r3, sl
100026b6:	464c      	mov	r4, r9
100026b8:	54d4      	strb	r4, [r2, r3]
100026ba:	1b83      	subs	r3, r0, r6
100026bc:	469a      	mov	sl, r3
100026be:	b21b      	sxth	r3, r3
100026c0:	43db      	mvns	r3, r3
100026c2:	17db      	asrs	r3, r3, #31
100026c4:	4699      	mov	r9, r3
100026c6:	4653      	mov	r3, sl
100026c8:	464c      	mov	r4, r9
100026ca:	4023      	ands	r3, r4
100026cc:	b21b      	sxth	r3, r3
100026ce:	4699      	mov	r9, r3
100026d0:	23a0      	movs	r3, #160	@ 0xa0
100026d2:	009b      	lsls	r3, r3, #2
100026d4:	4599      	cmp	r9, r3
100026d6:	db01      	blt.n	100026dc <drawCircle+0x184>
100026d8:	4b8a      	ldr	r3, [pc, #552]	@ (10002904 <drawCircle+0x3ac>)
100026da:	4699      	mov	r9, r3
100026dc:	9c02      	ldr	r4, [sp, #8]
100026de:	444c      	add	r4, r9
100026e0:	46a2      	mov	sl, r4
100026e2:	1063      	asrs	r3, r4, #1
100026e4:	469b      	mov	fp, r3
100026e6:	5cd4      	ldrb	r4, [r2, r3]
100026e8:	4653      	mov	r3, sl
100026ea:	421f      	tst	r7, r3
100026ec:	d100      	bne.n	100026f0 <drawCircle+0x198>
100026ee:	e125      	b.n	1000293c <drawCircle+0x3e4>
100026f0:	2338      	movs	r3, #56	@ 0x38
100026f2:	439c      	bics	r4, r3
100026f4:	4643      	mov	r3, r8
100026f6:	431c      	orrs	r4, r3
100026f8:	465b      	mov	r3, fp
100026fa:	54d4      	strb	r4, [r2, r3]
100026fc:	9b00      	ldr	r3, [sp, #0]
100026fe:	1b5b      	subs	r3, r3, r5
10002700:	1c1c      	adds	r4, r3, #0
10002702:	b21b      	sxth	r3, r3
10002704:	469a      	mov	sl, r3
10002706:	23f0      	movs	r3, #240	@ 0xf0
10002708:	005b      	lsls	r3, r3, #1
1000270a:	459a      	cmp	sl, r3
1000270c:	db02      	blt.n	10002714 <drawCircle+0x1bc>
1000270e:	23e0      	movs	r3, #224	@ 0xe0
10002710:	33ff      	adds	r3, #255	@ 0xff
10002712:	1c1c      	adds	r4, r3, #0
10002714:	b224      	sxth	r4, r4
10002716:	43e3      	mvns	r3, r4
10002718:	17db      	asrs	r3, r3, #31
1000271a:	401c      	ands	r4, r3
1000271c:	00a3      	lsls	r3, r4, #2
1000271e:	469a      	mov	sl, r3
10002720:	4454      	add	r4, sl
10002722:	01e4      	lsls	r4, r4, #7
10002724:	1909      	adds	r1, r1, r4
10002726:	104b      	asrs	r3, r1, #1
10002728:	469b      	mov	fp, r3
1000272a:	5cd3      	ldrb	r3, [r2, r3]
1000272c:	420f      	tst	r7, r1
1000272e:	d100      	bne.n	10002732 <drawCircle+0x1da>
10002730:	e0f1      	b.n	10002916 <drawCircle+0x3be>
10002732:	0019      	movs	r1, r3
10002734:	2338      	movs	r3, #56	@ 0x38
10002736:	4399      	bics	r1, r3
10002738:	4643      	mov	r3, r8
1000273a:	4319      	orrs	r1, r3
1000273c:	465b      	mov	r3, fp
1000273e:	444c      	add	r4, r9
10002740:	54d1      	strb	r1, [r2, r3]
10002742:	1063      	asrs	r3, r4, #1
10002744:	4699      	mov	r9, r3
10002746:	5cd1      	ldrb	r1, [r2, r3]
10002748:	4227      	tst	r7, r4
1000274a:	d100      	bne.n	1000274e <drawCircle+0x1f6>
1000274c:	e0f1      	b.n	10002932 <drawCircle+0x3da>
1000274e:	2338      	movs	r3, #56	@ 0x38
10002750:	4399      	bics	r1, r3
10002752:	4643      	mov	r3, r8
10002754:	4319      	orrs	r1, r3
10002756:	464b      	mov	r3, r9
10002758:	54d1      	strb	r1, [r2, r3]
1000275a:	9b00      	ldr	r3, [sp, #0]
1000275c:	199c      	adds	r4, r3, r6
1000275e:	23f0      	movs	r3, #240	@ 0xf0
10002760:	1c21      	adds	r1, r4, #0
10002762:	b224      	sxth	r4, r4
10002764:	005b      	lsls	r3, r3, #1
10002766:	429c      	cmp	r4, r3
10002768:	db02      	blt.n	10002770 <drawCircle+0x218>
1000276a:	23e0      	movs	r3, #224	@ 0xe0
1000276c:	33ff      	adds	r3, #255	@ 0xff
1000276e:	1c19      	adds	r1, r3, #0
10002770:	b209      	sxth	r1, r1
10002772:	43cc      	mvns	r4, r1
10002774:	17e4      	asrs	r4, r4, #31
10002776:	4021      	ands	r1, r4
10002778:	008c      	lsls	r4, r1, #2
1000277a:	1864      	adds	r4, r4, r1
1000277c:	01e3      	lsls	r3, r4, #7
1000277e:	9302      	str	r3, [sp, #8]
10002780:	1943      	adds	r3, r0, r5
10002782:	b219      	sxth	r1, r3
10002784:	43c9      	mvns	r1, r1
10002786:	17c9      	asrs	r1, r1, #31
10002788:	4019      	ands	r1, r3
1000278a:	23a0      	movs	r3, #160	@ 0xa0
1000278c:	b209      	sxth	r1, r1
1000278e:	009b      	lsls	r3, r3, #2
10002790:	4299      	cmp	r1, r3
10002792:	db00      	blt.n	10002796 <drawCircle+0x23e>
10002794:	495b      	ldr	r1, [pc, #364]	@ (10002904 <drawCircle+0x3ac>)
10002796:	9b02      	ldr	r3, [sp, #8]
10002798:	18cb      	adds	r3, r1, r3
1000279a:	469b      	mov	fp, r3
1000279c:	105b      	asrs	r3, r3, #1
1000279e:	469a      	mov	sl, r3
100027a0:	5cd3      	ldrb	r3, [r2, r3]
100027a2:	4699      	mov	r9, r3
100027a4:	465b      	mov	r3, fp
100027a6:	421f      	tst	r7, r3
100027a8:	d100      	bne.n	100027ac <drawCircle+0x254>
100027aa:	e0cc      	b.n	10002946 <drawCircle+0x3ee>
100027ac:	464b      	mov	r3, r9
100027ae:	2438      	movs	r4, #56	@ 0x38
100027b0:	43a3      	bics	r3, r4
100027b2:	4644      	mov	r4, r8
100027b4:	4323      	orrs	r3, r4
100027b6:	4699      	mov	r9, r3
100027b8:	4653      	mov	r3, sl
100027ba:	464c      	mov	r4, r9
100027bc:	54d4      	strb	r4, [r2, r3]
100027be:	1b43      	subs	r3, r0, r5
100027c0:	b21d      	sxth	r5, r3
100027c2:	43ed      	mvns	r5, r5
100027c4:	17ed      	asrs	r5, r5, #31
100027c6:	401d      	ands	r5, r3
100027c8:	23a0      	movs	r3, #160	@ 0xa0
100027ca:	b22d      	sxth	r5, r5
100027cc:	009b      	lsls	r3, r3, #2
100027ce:	429d      	cmp	r5, r3
100027d0:	db00      	blt.n	100027d4 <drawCircle+0x27c>
100027d2:	4d4c      	ldr	r5, [pc, #304]	@ (10002904 <drawCircle+0x3ac>)
100027d4:	9b02      	ldr	r3, [sp, #8]
100027d6:	4699      	mov	r9, r3
100027d8:	44a9      	add	r9, r5
100027da:	464b      	mov	r3, r9
100027dc:	105b      	asrs	r3, r3, #1
100027de:	469a      	mov	sl, r3
100027e0:	5cd4      	ldrb	r4, [r2, r3]
100027e2:	464b      	mov	r3, r9
100027e4:	421f      	tst	r7, r3
100027e6:	d100      	bne.n	100027ea <drawCircle+0x292>
100027e8:	e0b4      	b.n	10002954 <drawCircle+0x3fc>
100027ea:	2338      	movs	r3, #56	@ 0x38
100027ec:	439c      	bics	r4, r3
100027ee:	4643      	mov	r3, r8
100027f0:	431c      	orrs	r4, r3
100027f2:	4653      	mov	r3, sl
100027f4:	54d4      	strb	r4, [r2, r3]
100027f6:	9b00      	ldr	r3, [sp, #0]
100027f8:	1b9e      	subs	r6, r3, r6
100027fa:	23f0      	movs	r3, #240	@ 0xf0
100027fc:	1c34      	adds	r4, r6, #0
100027fe:	b236      	sxth	r6, r6
10002800:	005b      	lsls	r3, r3, #1
10002802:	429e      	cmp	r6, r3
10002804:	db02      	blt.n	1000280c <drawCircle+0x2b4>
10002806:	23e0      	movs	r3, #224	@ 0xe0
10002808:	33ff      	adds	r3, #255	@ 0xff
1000280a:	1c1c      	adds	r4, r3, #0
1000280c:	b224      	sxth	r4, r4
1000280e:	43e6      	mvns	r6, r4
10002810:	17f6      	asrs	r6, r6, #31
10002812:	4034      	ands	r4, r6
10002814:	00a6      	lsls	r6, r4, #2
10002816:	1934      	adds	r4, r6, r4
10002818:	01e4      	lsls	r4, r4, #7
1000281a:	1861      	adds	r1, r4, r1
1000281c:	104b      	asrs	r3, r1, #1
1000281e:	4699      	mov	r9, r3
10002820:	5cd6      	ldrb	r6, [r2, r3]
10002822:	420f      	tst	r7, r1
10002824:	d100      	bne.n	10002828 <drawCircle+0x2d0>
10002826:	e071      	b.n	1000290c <drawCircle+0x3b4>
10002828:	2338      	movs	r3, #56	@ 0x38
1000282a:	439e      	bics	r6, r3
1000282c:	4643      	mov	r3, r8
1000282e:	431e      	orrs	r6, r3
10002830:	464b      	mov	r3, r9
10002832:	1964      	adds	r4, r4, r5
10002834:	54d6      	strb	r6, [r2, r3]
10002836:	1065      	asrs	r5, r4, #1
10002838:	5d51      	ldrb	r1, [r2, r5]
1000283a:	4227      	tst	r7, r4
1000283c:	d052      	beq.n	100028e4 <drawCircle+0x38c>
1000283e:	2338      	movs	r3, #56	@ 0x38
10002840:	4399      	bics	r1, r3
10002842:	4643      	mov	r3, r8
10002844:	4319      	orrs	r1, r3
10002846:	5551      	strb	r1, [r2, r5]
10002848:	9b03      	ldr	r3, [sp, #12]
1000284a:	9901      	ldr	r1, [sp, #4]
1000284c:	428b      	cmp	r3, r1
1000284e:	dd52      	ble.n	100028f6 <drawCircle+0x39e>
10002850:	466b      	mov	r3, sp
10002852:	899d      	ldrh	r5, [r3, #12]
10002854:	9b04      	ldr	r3, [sp, #16]
10002856:	b299      	uxth	r1, r3
10002858:	2b00      	cmp	r3, #0
1000285a:	db09      	blt.n	10002870 <drawCircle+0x318>
1000285c:	1e6c      	subs	r4, r5, #1
1000285e:	b223      	sxth	r3, r4
10002860:	b2a5      	uxth	r5, r4
10002862:	9c05      	ldr	r4, [sp, #20]
10002864:	9303      	str	r3, [sp, #12]
10002866:	3402      	adds	r4, #2
10002868:	b223      	sxth	r3, r4
1000286a:	1861      	adds	r1, r4, r1
1000286c:	9305      	str	r3, [sp, #20]
1000286e:	b289      	uxth	r1, r1
10002870:	9c01      	ldr	r4, [sp, #4]
10002872:	3401      	adds	r4, #1
10002874:	b2a6      	uxth	r6, r4
10002876:	b223      	sxth	r3, r4
10002878:	0074      	lsls	r4, r6, #1
1000287a:	3401      	adds	r4, #1
1000287c:	1909      	adds	r1, r1, r4
1000287e:	9301      	str	r3, [sp, #4]
10002880:	b20b      	sxth	r3, r1
10002882:	9304      	str	r3, [sp, #16]
10002884:	9b00      	ldr	r3, [sp, #0]
10002886:	195c      	adds	r4, r3, r5
10002888:	23f0      	movs	r3, #240	@ 0xf0
1000288a:	1c21      	adds	r1, r4, #0
1000288c:	b224      	sxth	r4, r4
1000288e:	005b      	lsls	r3, r3, #1
10002890:	429c      	cmp	r4, r3
10002892:	db02      	blt.n	1000289a <drawCircle+0x342>
10002894:	23e0      	movs	r3, #224	@ 0xe0
10002896:	33ff      	adds	r3, #255	@ 0xff
10002898:	1c19      	adds	r1, r3, #0
1000289a:	b209      	sxth	r1, r1
1000289c:	43cc      	mvns	r4, r1
1000289e:	17e4      	asrs	r4, r4, #31
100028a0:	4021      	ands	r1, r4
100028a2:	008c      	lsls	r4, r1, #2
100028a4:	1864      	adds	r4, r4, r1
100028a6:	01e3      	lsls	r3, r4, #7
100028a8:	9302      	str	r3, [sp, #8]
100028aa:	1983      	adds	r3, r0, r6
100028ac:	b219      	sxth	r1, r3
100028ae:	43c9      	mvns	r1, r1
100028b0:	17c9      	asrs	r1, r1, #31
100028b2:	4019      	ands	r1, r3
100028b4:	23a0      	movs	r3, #160	@ 0xa0
100028b6:	b209      	sxth	r1, r1
100028b8:	009b      	lsls	r3, r3, #2
100028ba:	4299      	cmp	r1, r3
100028bc:	db00      	blt.n	100028c0 <drawCircle+0x368>
100028be:	4911      	ldr	r1, [pc, #68]	@ (10002904 <drawCircle+0x3ac>)
100028c0:	9b02      	ldr	r3, [sp, #8]
100028c2:	185b      	adds	r3, r3, r1
100028c4:	469b      	mov	fp, r3
100028c6:	105b      	asrs	r3, r3, #1
100028c8:	469a      	mov	sl, r3
100028ca:	5cd3      	ldrb	r3, [r2, r3]
100028cc:	4699      	mov	r9, r3
100028ce:	465b      	mov	r3, fp
100028d0:	421f      	tst	r7, r3
100028d2:	d000      	beq.n	100028d6 <drawCircle+0x37e>
100028d4:	e6e8      	b.n	100026a8 <drawCircle+0x150>
100028d6:	464b      	mov	r3, r9
100028d8:	2407      	movs	r4, #7
100028da:	43a3      	bics	r3, r4
100028dc:	4664      	mov	r4, ip
100028de:	4323      	orrs	r3, r4
100028e0:	4699      	mov	r9, r3
100028e2:	e6e7      	b.n	100026b4 <drawCircle+0x15c>
100028e4:	2307      	movs	r3, #7
100028e6:	4399      	bics	r1, r3
100028e8:	4663      	mov	r3, ip
100028ea:	4319      	orrs	r1, r3
100028ec:	5551      	strb	r1, [r2, r5]
100028ee:	9b03      	ldr	r3, [sp, #12]
100028f0:	9901      	ldr	r1, [sp, #4]
100028f2:	428b      	cmp	r3, r1
100028f4:	dcac      	bgt.n	10002850 <drawCircle+0x2f8>
100028f6:	b007      	add	sp, #28
100028f8:	bcf0      	pop	{r4, r5, r6, r7}
100028fa:	46bb      	mov	fp, r7
100028fc:	46b2      	mov	sl, r6
100028fe:	46a9      	mov	r9, r5
10002900:	46a0      	mov	r8, r4
10002902:	bdf0      	pop	{r4, r5, r6, r7, pc}
10002904:	0000027f 	.word	0x0000027f
10002908:	20000980 	.word	0x20000980
1000290c:	2307      	movs	r3, #7
1000290e:	439e      	bics	r6, r3
10002910:	4663      	mov	r3, ip
10002912:	431e      	orrs	r6, r3
10002914:	e78c      	b.n	10002830 <drawCircle+0x2d8>
10002916:	0019      	movs	r1, r3
10002918:	2307      	movs	r3, #7
1000291a:	4399      	bics	r1, r3
1000291c:	4663      	mov	r3, ip
1000291e:	4319      	orrs	r1, r3
10002920:	465b      	mov	r3, fp
10002922:	444c      	add	r4, r9
10002924:	54d1      	strb	r1, [r2, r3]
10002926:	1063      	asrs	r3, r4, #1
10002928:	4699      	mov	r9, r3
1000292a:	5cd1      	ldrb	r1, [r2, r3]
1000292c:	4227      	tst	r7, r4
1000292e:	d000      	beq.n	10002932 <drawCircle+0x3da>
10002930:	e70d      	b.n	1000274e <drawCircle+0x1f6>
10002932:	2307      	movs	r3, #7
10002934:	4399      	bics	r1, r3
10002936:	4663      	mov	r3, ip
10002938:	4319      	orrs	r1, r3
1000293a:	e70c      	b.n	10002756 <drawCircle+0x1fe>
1000293c:	2307      	movs	r3, #7
1000293e:	439c      	bics	r4, r3
10002940:	4663      	mov	r3, ip
10002942:	431c      	orrs	r4, r3
10002944:	e6d8      	b.n	100026f8 <drawCircle+0x1a0>
10002946:	464b      	mov	r3, r9
10002948:	2407      	movs	r4, #7
1000294a:	43a3      	bics	r3, r4
1000294c:	4664      	mov	r4, ip
1000294e:	4323      	orrs	r3, r4
10002950:	4699      	mov	r9, r3
10002952:	e731      	b.n	100027b8 <drawCircle+0x260>
10002954:	2307      	movs	r3, #7
10002956:	439c      	bics	r4, r3
10002958:	4663      	mov	r3, ip
1000295a:	431c      	orrs	r4, r3
1000295c:	e749      	b.n	100027f2 <drawCircle+0x29a>
1000295e:	2107      	movs	r1, #7
10002960:	438c      	bics	r4, r1
10002962:	0021      	movs	r1, r4
10002964:	4319      	orrs	r1, r3
10002966:	e690      	b.n	1000268a <drawCircle+0x132>
10002968:	2107      	movs	r1, #7
1000296a:	438f      	bics	r7, r1
1000296c:	0039      	movs	r1, r7
1000296e:	4319      	orrs	r1, r3
10002970:	e674      	b.n	1000265c <drawCircle+0x104>
10002972:	2407      	movs	r4, #7
10002974:	43a7      	bics	r7, r4
10002976:	003c      	movs	r4, r7
10002978:	431c      	orrs	r4, r3
1000297a:	e648      	b.n	1000260e <drawCircle+0xb6>
1000297c:	2407      	movs	r4, #7
1000297e:	43a7      	bics	r7, r4
10002980:	431f      	orrs	r7, r3
10002982:	e624      	b.n	100025ce <drawCircle+0x76>

10002984 <fillRect>:
10002984:	b5f0      	push	{r4, r5, r6, r7, lr}
10002986:	4657      	mov	r7, sl
10002988:	464e      	mov	r6, r9
1000298a:	46de      	mov	lr, fp
1000298c:	4645      	mov	r5, r8
1000298e:	b5e0      	push	{r5, r6, r7, lr}
10002990:	b085      	sub	sp, #20
10002992:	001f      	movs	r7, r3
10002994:	ab0e      	add	r3, sp, #56	@ 0x38
10002996:	781b      	ldrb	r3, [r3, #0]
10002998:	1812      	adds	r2, r2, r0
1000299a:	4699      	mov	r9, r3
1000299c:	9103      	str	r1, [sp, #12]
1000299e:	0003      	movs	r3, r0
100029a0:	4290      	cmp	r0, r2
100029a2:	da45      	bge.n	10002a30 <fillRect+0xac>
100029a4:	468c      	mov	ip, r1
100029a6:	0008      	movs	r0, r1
100029a8:	4649      	mov	r1, r9
100029aa:	00c9      	lsls	r1, r1, #3
100029ac:	b2c9      	uxtb	r1, r1
100029ae:	4467      	add	r7, ip
100029b0:	4688      	mov	r8, r1
100029b2:	42b8      	cmp	r0, r7
100029b4:	da3c      	bge.n	10002a30 <fillRect+0xac>
100029b6:	21f0      	movs	r1, #240	@ 0xf0
100029b8:	0049      	lsls	r1, r1, #1
100029ba:	468c      	mov	ip, r1
100029bc:	39a9      	subs	r1, #169	@ 0xa9
100029be:	39ff      	subs	r1, #255	@ 0xff
100029c0:	468a      	mov	sl, r1
100029c2:	3931      	subs	r1, #49	@ 0x31
100029c4:	468b      	mov	fp, r1
100029c6:	4641      	mov	r1, r8
100029c8:	9100      	str	r1, [sp, #0]
100029ca:	0011      	movs	r1, r2
100029cc:	001a      	movs	r2, r3
100029ce:	464b      	mov	r3, r9
100029d0:	4d22      	ldr	r5, [pc, #136]	@ (10002a5c <fillRect+0xd8>)
100029d2:	9301      	str	r3, [sp, #4]
100029d4:	b216      	sxth	r6, r2
100029d6:	43f6      	mvns	r6, r6
100029d8:	23a0      	movs	r3, #160	@ 0xa0
100029da:	17f6      	asrs	r6, r6, #31
100029dc:	4016      	ands	r6, r2
100029de:	b236      	sxth	r6, r6
100029e0:	009b      	lsls	r3, r3, #2
100029e2:	429e      	cmp	r6, r3
100029e4:	db00      	blt.n	100029e8 <fillRect+0x64>
100029e6:	4e1e      	ldr	r6, [pc, #120]	@ (10002a60 <fillRect+0xdc>)
100029e8:	2301      	movs	r3, #1
100029ea:	4689      	mov	r9, r1
100029ec:	9803      	ldr	r0, [sp, #12]
100029ee:	9202      	str	r2, [sp, #8]
100029f0:	b202      	sxth	r2, r0
100029f2:	1c01      	adds	r1, r0, #0
100029f4:	4562      	cmp	r2, ip
100029f6:	db02      	blt.n	100029fe <fillRect+0x7a>
100029f8:	22e0      	movs	r2, #224	@ 0xe0
100029fa:	32ff      	adds	r2, #255	@ 0xff
100029fc:	1c11      	adds	r1, r2, #0
100029fe:	b209      	sxth	r1, r1
10002a00:	43ca      	mvns	r2, r1
10002a02:	17d2      	asrs	r2, r2, #31
10002a04:	4011      	ands	r1, r2
10002a06:	008a      	lsls	r2, r1, #2
10002a08:	1852      	adds	r2, r2, r1
10002a0a:	01d2      	lsls	r2, r2, #7
10002a0c:	1992      	adds	r2, r2, r6
10002a0e:	1054      	asrs	r4, r2, #1
10002a10:	5d29      	ldrb	r1, [r5, r4]
10002a12:	4213      	tst	r3, r2
10002a14:	d113      	bne.n	10002a3e <fillRect+0xba>
10002a16:	465a      	mov	r2, fp
10002a18:	4391      	bics	r1, r2
10002a1a:	9a01      	ldr	r2, [sp, #4]
10002a1c:	3001      	adds	r0, #1
10002a1e:	4311      	orrs	r1, r2
10002a20:	5529      	strb	r1, [r5, r4]
10002a22:	4287      	cmp	r7, r0
10002a24:	d1e4      	bne.n	100029f0 <fillRect+0x6c>
10002a26:	9a02      	ldr	r2, [sp, #8]
10002a28:	4649      	mov	r1, r9
10002a2a:	3201      	adds	r2, #1
10002a2c:	454a      	cmp	r2, r9
10002a2e:	d1d1      	bne.n	100029d4 <fillRect+0x50>
10002a30:	b005      	add	sp, #20
10002a32:	bcf0      	pop	{r4, r5, r6, r7}
10002a34:	46bb      	mov	fp, r7
10002a36:	46b2      	mov	sl, r6
10002a38:	46a9      	mov	r9, r5
10002a3a:	46a0      	mov	r8, r4
10002a3c:	bdf0      	pop	{r4, r5, r6, r7, pc}
10002a3e:	4652      	mov	r2, sl
10002a40:	4391      	bics	r1, r2
10002a42:	9a00      	ldr	r2, [sp, #0]
10002a44:	3001      	adds	r0, #1
10002a46:	4311      	orrs	r1, r2
10002a48:	5529      	strb	r1, [r5, r4]
10002a4a:	42b8      	cmp	r0, r7
10002a4c:	d1d0      	bne.n	100029f0 <fillRect+0x6c>
10002a4e:	9a02      	ldr	r2, [sp, #8]
10002a50:	4649      	mov	r1, r9
10002a52:	3201      	adds	r2, #1
10002a54:	454a      	cmp	r2, r9
10002a56:	d1bd      	bne.n	100029d4 <fillRect+0x50>
10002a58:	e7ea      	b.n	10002a30 <fillRect+0xac>
10002a5a:	46c0      	nop			@ (mov r8, r8)
10002a5c:	20000980 	.word	0x20000980
10002a60:	0000027f 	.word	0x0000027f

10002a64 <drawChar>:
10002a64:	b5f0      	push	{r4, r5, r6, r7, lr}
10002a66:	464e      	mov	r6, r9
10002a68:	4645      	mov	r5, r8
10002a6a:	46de      	mov	lr, fp
10002a6c:	4657      	mov	r7, sl
10002a6e:	b5e0      	push	{r5, r6, r7, lr}
10002a70:	b095      	sub	sp, #84	@ 0x54
10002a72:	4698      	mov	r8, r3
10002a74:	ab1e      	add	r3, sp, #120	@ 0x78
10002a76:	781e      	ldrb	r6, [r3, #0]
10002a78:	ab1f      	add	r3, sp, #124	@ 0x7c
10002a7a:	781c      	ldrb	r4, [r3, #0]
10002a7c:	23a0      	movs	r3, #160	@ 0xa0
10002a7e:	9603      	str	r6, [sp, #12]
10002a80:	940f      	str	r4, [sp, #60]	@ 0x3c
10002a82:	009b      	lsls	r3, r3, #2
10002a84:	4298      	cmp	r0, r3
10002a86:	db00      	blt.n	10002a8a <drawChar+0x26>
10002a88:	e0b4      	b.n	10002bf4 <drawChar+0x190>
10002a8a:	3ba0      	subs	r3, #160	@ 0xa0
10002a8c:	4299      	cmp	r1, r3
10002a8e:	db00      	blt.n	10002a92 <drawChar+0x2e>
10002a90:	e0b0      	b.n	10002bf4 <drawChar+0x190>
10002a92:	46a4      	mov	ip, r4
10002a94:	0063      	lsls	r3, r4, #1
10002a96:	4463      	add	r3, ip
10002a98:	005b      	lsls	r3, r3, #1
10002a9a:	181b      	adds	r3, r3, r0
10002a9c:	2b00      	cmp	r3, #0
10002a9e:	dc00      	bgt.n	10002aa2 <drawChar+0x3e>
10002aa0:	e0a8      	b.n	10002bf4 <drawChar+0x190>
10002aa2:	00e3      	lsls	r3, r4, #3
10002aa4:	185b      	adds	r3, r3, r1
10002aa6:	2b00      	cmp	r3, #0
10002aa8:	dc00      	bgt.n	10002aac <drawChar+0x48>
10002aaa:	e0a3      	b.n	10002bf4 <drawChar+0x190>
10002aac:	0093      	lsls	r3, r2, #2
10002aae:	189b      	adds	r3, r3, r2
10002ab0:	00f2      	lsls	r2, r6, #3
10002ab2:	b2d2      	uxtb	r2, r2
10002ab4:	9204      	str	r2, [sp, #16]
10002ab6:	4642      	mov	r2, r8
10002ab8:	00d2      	lsls	r2, r2, #3
10002aba:	b2d2      	uxtb	r2, r2
10002abc:	9202      	str	r2, [sp, #8]
10002abe:	b28a      	uxth	r2, r1
10002ac0:	4694      	mov	ip, r2
10002ac2:	4aa5      	ldr	r2, [pc, #660]	@ (10002d58 <drawChar+0x2f4>)
10002ac4:	b284      	uxth	r4, r0
10002ac6:	189b      	adds	r3, r3, r2
10002ac8:	9313      	str	r3, [sp, #76]	@ 0x4c
10002aca:	2338      	movs	r3, #56	@ 0x38
10002acc:	469a      	mov	sl, r3
10002ace:	3b31      	subs	r3, #49	@ 0x31
10002ad0:	469b      	mov	fp, r3
10002ad2:	4643      	mov	r3, r8
10002ad4:	2000      	movs	r0, #0
10002ad6:	9301      	str	r3, [sp, #4]
10002ad8:	4663      	mov	r3, ip
10002ada:	0005      	movs	r5, r0
10002adc:	940e      	str	r4, [sp, #56]	@ 0x38
10002ade:	9411      	str	r4, [sp, #68]	@ 0x44
10002ae0:	9312      	str	r3, [sp, #72]	@ 0x48
10002ae2:	2d05      	cmp	r5, #5
10002ae4:	d100      	bne.n	10002ae8 <drawChar+0x84>
10002ae6:	e135      	b.n	10002d54 <drawChar+0x2f0>
10002ae8:	9b13      	ldr	r3, [sp, #76]	@ 0x4c
10002aea:	5d5c      	ldrb	r4, [r3, r5]
10002aec:	466b      	mov	r3, sp
10002aee:	9f12      	ldr	r7, [sp, #72]	@ 0x48
10002af0:	2238      	movs	r2, #56	@ 0x38
10002af2:	5e9b      	ldrsh	r3, [r3, r2]
10002af4:	9e0f      	ldr	r6, [sp, #60]	@ 0x3c
10002af6:	469c      	mov	ip, r3
10002af8:	9308      	str	r3, [sp, #32]
10002afa:	003b      	movs	r3, r7
10002afc:	3308      	adds	r3, #8
10002afe:	b29b      	uxth	r3, r3
10002b00:	9307      	str	r3, [sp, #28]
10002b02:	9b11      	ldr	r3, [sp, #68]	@ 0x44
10002b04:	0032      	movs	r2, r6
10002b06:	1958      	adds	r0, r3, r5
10002b08:	b203      	sxth	r3, r0
10002b0a:	43db      	mvns	r3, r3
10002b0c:	0039      	movs	r1, r7
10002b0e:	17db      	asrs	r3, r3, #31
10002b10:	4462      	add	r2, ip
10002b12:	4003      	ands	r3, r0
10002b14:	9309      	str	r3, [sp, #36]	@ 0x24
10002b16:	9510      	str	r5, [sp, #64]	@ 0x40
10002b18:	9205      	str	r2, [sp, #20]
10002b1a:	07e3      	lsls	r3, r4, #31
10002b1c:	d400      	bmi.n	10002b20 <drawChar+0xbc>
10002b1e:	e070      	b.n	10002c02 <drawChar+0x19e>
10002b20:	2e01      	cmp	r6, #1
10002b22:	d100      	bne.n	10002b26 <drawChar+0xc2>
10002b24:	e0c4      	b.n	10002cb0 <drawChar+0x24c>
10002b26:	9b08      	ldr	r3, [sp, #32]
10002b28:	9805      	ldr	r0, [sp, #20]
10002b2a:	b23a      	sxth	r2, r7
10002b2c:	4283      	cmp	r3, r0
10002b2e:	da4e      	bge.n	10002bce <drawChar+0x16a>
10002b30:	18b0      	adds	r0, r6, r2
10002b32:	4684      	mov	ip, r0
10002b34:	4282      	cmp	r2, r0
10002b36:	da4a      	bge.n	10002bce <drawChar+0x16a>
10002b38:	25a0      	movs	r5, #160	@ 0xa0
10002b3a:	910c      	str	r1, [sp, #48]	@ 0x30
10002b3c:	0011      	movs	r1, r2
10002b3e:	001a      	movs	r2, r3
10002b40:	00ad      	lsls	r5, r5, #2
10002b42:	4886      	ldr	r0, [pc, #536]	@ (10002d5c <drawChar+0x2f8>)
10002b44:	9506      	str	r5, [sp, #24]
10002b46:	940a      	str	r4, [sp, #40]	@ 0x28
10002b48:	3da0      	subs	r5, #160	@ 0xa0
10002b4a:	970b      	str	r7, [sp, #44]	@ 0x2c
10002b4c:	960d      	str	r6, [sp, #52]	@ 0x34
10002b4e:	b217      	sxth	r7, r2
10002b50:	43ff      	mvns	r7, r7
10002b52:	17ff      	asrs	r7, r7, #31
10002b54:	4017      	ands	r7, r2
10002b56:	9b06      	ldr	r3, [sp, #24]
10002b58:	b23f      	sxth	r7, r7
10002b5a:	429f      	cmp	r7, r3
10002b5c:	db00      	blt.n	10002b60 <drawChar+0xfc>
10002b5e:	4f80      	ldr	r7, [pc, #512]	@ (10002d60 <drawChar+0x2fc>)
10002b60:	4666      	mov	r6, ip
10002b62:	000c      	movs	r4, r1
10002b64:	2301      	movs	r3, #1
10002b66:	4691      	mov	r9, r2
10002b68:	468c      	mov	ip, r1
10002b6a:	e008      	b.n	10002b7e <drawChar+0x11a>
10002b6c:	465a      	mov	r2, fp
10002b6e:	4391      	bics	r1, r2
10002b70:	9a01      	ldr	r2, [sp, #4]
10002b72:	3401      	adds	r4, #1
10002b74:	4311      	orrs	r1, r2
10002b76:	9a00      	ldr	r2, [sp, #0]
10002b78:	5481      	strb	r1, [r0, r2]
10002b7a:	42a6      	cmp	r6, r4
10002b7c:	d01c      	beq.n	10002bb8 <drawChar+0x154>
10002b7e:	b222      	sxth	r2, r4
10002b80:	1c21      	adds	r1, r4, #0
10002b82:	42aa      	cmp	r2, r5
10002b84:	db02      	blt.n	10002b8c <drawChar+0x128>
10002b86:	22e0      	movs	r2, #224	@ 0xe0
10002b88:	32ff      	adds	r2, #255	@ 0xff
10002b8a:	1c11      	adds	r1, r2, #0
10002b8c:	b209      	sxth	r1, r1
10002b8e:	43ca      	mvns	r2, r1
10002b90:	17d2      	asrs	r2, r2, #31
10002b92:	4011      	ands	r1, r2
10002b94:	008a      	lsls	r2, r1, #2
10002b96:	1852      	adds	r2, r2, r1
10002b98:	01d2      	lsls	r2, r2, #7
10002b9a:	19d2      	adds	r2, r2, r7
10002b9c:	1051      	asrs	r1, r2, #1
10002b9e:	9100      	str	r1, [sp, #0]
10002ba0:	5c41      	ldrb	r1, [r0, r1]
10002ba2:	4213      	tst	r3, r2
10002ba4:	d0e2      	beq.n	10002b6c <drawChar+0x108>
10002ba6:	4652      	mov	r2, sl
10002ba8:	4391      	bics	r1, r2
10002baa:	9a02      	ldr	r2, [sp, #8]
10002bac:	3401      	adds	r4, #1
10002bae:	4311      	orrs	r1, r2
10002bb0:	9a00      	ldr	r2, [sp, #0]
10002bb2:	5481      	strb	r1, [r0, r2]
10002bb4:	42a6      	cmp	r6, r4
10002bb6:	d1e2      	bne.n	10002b7e <drawChar+0x11a>
10002bb8:	464a      	mov	r2, r9
10002bba:	9b05      	ldr	r3, [sp, #20]
10002bbc:	3201      	adds	r2, #1
10002bbe:	4661      	mov	r1, ip
10002bc0:	46b4      	mov	ip, r6
10002bc2:	4293      	cmp	r3, r2
10002bc4:	d1c3      	bne.n	10002b4e <drawChar+0xea>
10002bc6:	9c0a      	ldr	r4, [sp, #40]	@ 0x28
10002bc8:	9f0b      	ldr	r7, [sp, #44]	@ 0x2c
10002bca:	990c      	ldr	r1, [sp, #48]	@ 0x30
10002bcc:	9e0d      	ldr	r6, [sp, #52]	@ 0x34
10002bce:	3101      	adds	r1, #1
10002bd0:	9b07      	ldr	r3, [sp, #28]
10002bd2:	19bf      	adds	r7, r7, r6
10002bd4:	b289      	uxth	r1, r1
10002bd6:	0864      	lsrs	r4, r4, #1
10002bd8:	b2bf      	uxth	r7, r7
10002bda:	4299      	cmp	r1, r3
10002bdc:	d19d      	bne.n	10002b1a <drawChar+0xb6>
10002bde:	9b0f      	ldr	r3, [sp, #60]	@ 0x3c
10002be0:	9f0e      	ldr	r7, [sp, #56]	@ 0x38
10002be2:	469c      	mov	ip, r3
10002be4:	9d10      	ldr	r5, [sp, #64]	@ 0x40
10002be6:	4467      	add	r7, ip
10002be8:	b2bb      	uxth	r3, r7
10002bea:	3501      	adds	r5, #1
10002bec:	930e      	str	r3, [sp, #56]	@ 0x38
10002bee:	2d06      	cmp	r5, #6
10002bf0:	d000      	beq.n	10002bf4 <drawChar+0x190>
10002bf2:	e776      	b.n	10002ae2 <drawChar+0x7e>
10002bf4:	b015      	add	sp, #84	@ 0x54
10002bf6:	bcf0      	pop	{r4, r5, r6, r7}
10002bf8:	46bb      	mov	fp, r7
10002bfa:	46b2      	mov	sl, r6
10002bfc:	46a9      	mov	r9, r5
10002bfe:	46a0      	mov	r8, r4
10002c00:	bdf0      	pop	{r4, r5, r6, r7, pc}
10002c02:	9b03      	ldr	r3, [sp, #12]
10002c04:	9a01      	ldr	r2, [sp, #4]
10002c06:	4293      	cmp	r3, r2
10002c08:	d0e1      	beq.n	10002bce <drawChar+0x16a>
10002c0a:	2e01      	cmp	r6, #1
10002c0c:	d073      	beq.n	10002cf6 <drawChar+0x292>
10002c0e:	9b08      	ldr	r3, [sp, #32]
10002c10:	9805      	ldr	r0, [sp, #20]
10002c12:	b23a      	sxth	r2, r7
10002c14:	4283      	cmp	r3, r0
10002c16:	dada      	bge.n	10002bce <drawChar+0x16a>
10002c18:	18b0      	adds	r0, r6, r2
10002c1a:	4684      	mov	ip, r0
10002c1c:	4282      	cmp	r2, r0
10002c1e:	dad6      	bge.n	10002bce <drawChar+0x16a>
10002c20:	25a0      	movs	r5, #160	@ 0xa0
10002c22:	910c      	str	r1, [sp, #48]	@ 0x30
10002c24:	0011      	movs	r1, r2
10002c26:	001a      	movs	r2, r3
10002c28:	00ad      	lsls	r5, r5, #2
10002c2a:	484c      	ldr	r0, [pc, #304]	@ (10002d5c <drawChar+0x2f8>)
10002c2c:	9506      	str	r5, [sp, #24]
10002c2e:	940a      	str	r4, [sp, #40]	@ 0x28
10002c30:	3da0      	subs	r5, #160	@ 0xa0
10002c32:	970b      	str	r7, [sp, #44]	@ 0x2c
10002c34:	960d      	str	r6, [sp, #52]	@ 0x34
10002c36:	b217      	sxth	r7, r2
10002c38:	43ff      	mvns	r7, r7
10002c3a:	17ff      	asrs	r7, r7, #31
10002c3c:	4017      	ands	r7, r2
10002c3e:	9b06      	ldr	r3, [sp, #24]
10002c40:	b23f      	sxth	r7, r7
10002c42:	429f      	cmp	r7, r3
10002c44:	db00      	blt.n	10002c48 <drawChar+0x1e4>
10002c46:	4f46      	ldr	r7, [pc, #280]	@ (10002d60 <drawChar+0x2fc>)
10002c48:	4666      	mov	r6, ip
10002c4a:	000c      	movs	r4, r1
10002c4c:	2301      	movs	r3, #1
10002c4e:	4689      	mov	r9, r1
10002c50:	4694      	mov	ip, r2
10002c52:	e008      	b.n	10002c66 <drawChar+0x202>
10002c54:	465a      	mov	r2, fp
10002c56:	4391      	bics	r1, r2
10002c58:	9a03      	ldr	r2, [sp, #12]
10002c5a:	3401      	adds	r4, #1
10002c5c:	4311      	orrs	r1, r2
10002c5e:	9a00      	ldr	r2, [sp, #0]
10002c60:	5481      	strb	r1, [r0, r2]
10002c62:	42a6      	cmp	r6, r4
10002c64:	d01c      	beq.n	10002ca0 <drawChar+0x23c>
10002c66:	b222      	sxth	r2, r4
10002c68:	1c21      	adds	r1, r4, #0
10002c6a:	42aa      	cmp	r2, r5
10002c6c:	db02      	blt.n	10002c74 <drawChar+0x210>
10002c6e:	22e0      	movs	r2, #224	@ 0xe0
10002c70:	32ff      	adds	r2, #255	@ 0xff
10002c72:	1c11      	adds	r1, r2, #0
10002c74:	b209      	sxth	r1, r1
10002c76:	43ca      	mvns	r2, r1
10002c78:	17d2      	asrs	r2, r2, #31
10002c7a:	4011      	ands	r1, r2
10002c7c:	008a      	lsls	r2, r1, #2
10002c7e:	1852      	adds	r2, r2, r1
10002c80:	01d2      	lsls	r2, r2, #7
10002c82:	19d2      	adds	r2, r2, r7
10002c84:	1051      	asrs	r1, r2, #1
10002c86:	9100      	str	r1, [sp, #0]
10002c88:	5c41      	ldrb	r1, [r0, r1]
10002c8a:	4213      	tst	r3, r2
10002c8c:	d0e2      	beq.n	10002c54 <drawChar+0x1f0>
10002c8e:	4652      	mov	r2, sl
10002c90:	4391      	bics	r1, r2
10002c92:	9a04      	ldr	r2, [sp, #16]
10002c94:	3401      	adds	r4, #1
10002c96:	4311      	orrs	r1, r2
10002c98:	9a00      	ldr	r2, [sp, #0]
10002c9a:	5481      	strb	r1, [r0, r2]
10002c9c:	42a6      	cmp	r6, r4
10002c9e:	d1e2      	bne.n	10002c66 <drawChar+0x202>
10002ca0:	4662      	mov	r2, ip
10002ca2:	9b05      	ldr	r3, [sp, #20]
10002ca4:	3201      	adds	r2, #1
10002ca6:	4649      	mov	r1, r9
10002ca8:	46b4      	mov	ip, r6
10002caa:	429a      	cmp	r2, r3
10002cac:	d1c3      	bne.n	10002c36 <drawChar+0x1d2>
10002cae:	e78a      	b.n	10002bc6 <drawChar+0x162>
10002cb0:	22f0      	movs	r2, #240	@ 0xf0
10002cb2:	b208      	sxth	r0, r1
10002cb4:	1c0b      	adds	r3, r1, #0
10002cb6:	0052      	lsls	r2, r2, #1
10002cb8:	4290      	cmp	r0, r2
10002cba:	db01      	blt.n	10002cc0 <drawChar+0x25c>
10002cbc:	23e0      	movs	r3, #224	@ 0xe0
10002cbe:	33ff      	adds	r3, #255	@ 0xff
10002cc0:	b21a      	sxth	r2, r3
10002cc2:	43d3      	mvns	r3, r2
10002cc4:	17db      	asrs	r3, r3, #31
10002cc6:	401a      	ands	r2, r3
10002cc8:	0093      	lsls	r3, r2, #2
10002cca:	189b      	adds	r3, r3, r2
10002ccc:	466a      	mov	r2, sp
10002cce:	20a0      	movs	r0, #160	@ 0xa0
10002cd0:	2524      	movs	r5, #36	@ 0x24
10002cd2:	5f52      	ldrsh	r2, [r2, r5]
10002cd4:	01db      	lsls	r3, r3, #7
10002cd6:	0080      	lsls	r0, r0, #2
10002cd8:	4282      	cmp	r2, r0
10002cda:	db00      	blt.n	10002cde <drawChar+0x27a>
10002cdc:	4a20      	ldr	r2, [pc, #128]	@ (10002d60 <drawChar+0x2fc>)
10002cde:	189b      	adds	r3, r3, r2
10002ce0:	481e      	ldr	r0, [pc, #120]	@ (10002d5c <drawChar+0x2f8>)
10002ce2:	105d      	asrs	r5, r3, #1
10002ce4:	5d42      	ldrb	r2, [r0, r5]
10002ce6:	07db      	lsls	r3, r3, #31
10002ce8:	d528      	bpl.n	10002d3c <drawChar+0x2d8>
10002cea:	4653      	mov	r3, sl
10002cec:	439a      	bics	r2, r3
10002cee:	9b02      	ldr	r3, [sp, #8]
10002cf0:	431a      	orrs	r2, r3
10002cf2:	5542      	strb	r2, [r0, r5]
10002cf4:	e76b      	b.n	10002bce <drawChar+0x16a>
10002cf6:	22f0      	movs	r2, #240	@ 0xf0
10002cf8:	b208      	sxth	r0, r1
10002cfa:	1c0b      	adds	r3, r1, #0
10002cfc:	0052      	lsls	r2, r2, #1
10002cfe:	4290      	cmp	r0, r2
10002d00:	db01      	blt.n	10002d06 <drawChar+0x2a2>
10002d02:	23e0      	movs	r3, #224	@ 0xe0
10002d04:	33ff      	adds	r3, #255	@ 0xff
10002d06:	b21a      	sxth	r2, r3
10002d08:	43d3      	mvns	r3, r2
10002d0a:	17db      	asrs	r3, r3, #31
10002d0c:	401a      	ands	r2, r3
10002d0e:	0093      	lsls	r3, r2, #2
10002d10:	189b      	adds	r3, r3, r2
10002d12:	466a      	mov	r2, sp
10002d14:	20a0      	movs	r0, #160	@ 0xa0
10002d16:	2524      	movs	r5, #36	@ 0x24
10002d18:	5f52      	ldrsh	r2, [r2, r5]
10002d1a:	01db      	lsls	r3, r3, #7
10002d1c:	0080      	lsls	r0, r0, #2
10002d1e:	4282      	cmp	r2, r0
10002d20:	db00      	blt.n	10002d24 <drawChar+0x2c0>
10002d22:	4a0f      	ldr	r2, [pc, #60]	@ (10002d60 <drawChar+0x2fc>)
10002d24:	189b      	adds	r3, r3, r2
10002d26:	480d      	ldr	r0, [pc, #52]	@ (10002d5c <drawChar+0x2f8>)
10002d28:	105d      	asrs	r5, r3, #1
10002d2a:	5d42      	ldrb	r2, [r0, r5]
10002d2c:	07db      	lsls	r3, r3, #31
10002d2e:	d50b      	bpl.n	10002d48 <drawChar+0x2e4>
10002d30:	4653      	mov	r3, sl
10002d32:	439a      	bics	r2, r3
10002d34:	9b04      	ldr	r3, [sp, #16]
10002d36:	431a      	orrs	r2, r3
10002d38:	5542      	strb	r2, [r0, r5]
10002d3a:	e748      	b.n	10002bce <drawChar+0x16a>
10002d3c:	465b      	mov	r3, fp
10002d3e:	439a      	bics	r2, r3
10002d40:	9b01      	ldr	r3, [sp, #4]
10002d42:	431a      	orrs	r2, r3
10002d44:	5542      	strb	r2, [r0, r5]
10002d46:	e742      	b.n	10002bce <drawChar+0x16a>
10002d48:	465b      	mov	r3, fp
10002d4a:	439a      	bics	r2, r3
10002d4c:	9b03      	ldr	r3, [sp, #12]
10002d4e:	431a      	orrs	r2, r3
10002d50:	5542      	strb	r2, [r0, r5]
10002d52:	e73c      	b.n	10002bce <drawChar+0x16a>
10002d54:	2400      	movs	r4, #0
10002d56:	e6c9      	b.n	10002aec <drawChar+0x88>
10002d58:	10008134 	.word	0x10008134
10002d5c:	20000980 	.word	0x20000980
10002d60:	0000027f 	.word	0x0000027f

10002d64 <setCursor>:
10002d64:	4b02      	ldr	r3, [pc, #8]	@ (10002d70 <setCursor+0xc>)
10002d66:	8018      	strh	r0, [r3, #0]
10002d68:	4b02      	ldr	r3, [pc, #8]	@ (10002d74 <setCursor+0x10>)
10002d6a:	8019      	strh	r1, [r3, #0]
10002d6c:	4770      	bx	lr
10002d6e:	46c0      	nop			@ (mov r8, r8)
10002d70:	200261ac 	.word	0x200261ac
10002d74:	200261ae 	.word	0x200261ae

10002d78 <setTextSize>:
10002d78:	4a03      	ldr	r2, [pc, #12]	@ (10002d88 <setTextSize+0x10>)
10002d7a:	1c03      	adds	r3, r0, #0
10002d7c:	2800      	cmp	r0, #0
10002d7e:	d100      	bne.n	10002d82 <setTextSize+0xa>
10002d80:	2301      	movs	r3, #1
10002d82:	b2db      	uxtb	r3, r3
10002d84:	8013      	strh	r3, [r2, #0]
10002d86:	4770      	bx	lr
10002d88:	200261b0 	.word	0x200261b0

10002d8c <setTextColor2>:
10002d8c:	4b02      	ldr	r3, [pc, #8]	@ (10002d98 <setTextColor2+0xc>)
10002d8e:	7018      	strb	r0, [r3, #0]
10002d90:	4b02      	ldr	r3, [pc, #8]	@ (10002d9c <setTextColor2+0x10>)
10002d92:	7019      	strb	r1, [r3, #0]
10002d94:	4770      	bx	lr
10002d96:	46c0      	nop			@ (mov r8, r8)
10002d98:	200261b9 	.word	0x200261b9
10002d9c:	200261b8 	.word	0x200261b8

10002da0 <writeString>:
10002da0:	b5f0      	push	{r4, r5, r6, r7, lr}
10002da2:	46ce      	mov	lr, r9
10002da4:	4647      	mov	r7, r8
10002da6:	b580      	push	{r7, lr}
10002da8:	7802      	ldrb	r2, [r0, #0]
10002daa:	0004      	movs	r4, r0
10002dac:	b083      	sub	sp, #12
10002dae:	2a00      	cmp	r2, #0
10002db0:	d022      	beq.n	10002df8 <writeString+0x58>
10002db2:	4b29      	ldr	r3, [pc, #164]	@ (10002e58 <writeString+0xb8>)
10002db4:	4d29      	ldr	r5, [pc, #164]	@ (10002e5c <writeString+0xbc>)
10002db6:	4699      	mov	r9, r3
10002db8:	4e29      	ldr	r6, [pc, #164]	@ (10002e60 <writeString+0xc0>)
10002dba:	e00d      	b.n	10002dd8 <writeString+0x38>
10002dbc:	2a0d      	cmp	r2, #13
10002dbe:	d008      	beq.n	10002dd2 <writeString+0x32>
10002dc0:	8828      	ldrh	r0, [r5, #0]
10002dc2:	2a09      	cmp	r2, #9
10002dc4:	d11d      	bne.n	10002e02 <writeString+0x62>
10002dc6:	239f      	movs	r3, #159	@ 0x9f
10002dc8:	009b      	lsls	r3, r3, #2
10002dca:	4298      	cmp	r0, r3
10002dcc:	d201      	bcs.n	10002dd2 <writeString+0x32>
10002dce:	3004      	adds	r0, #4
10002dd0:	8028      	strh	r0, [r5, #0]
10002dd2:	7822      	ldrb	r2, [r4, #0]
10002dd4:	2a00      	cmp	r2, #0
10002dd6:	d00f      	beq.n	10002df8 <writeString+0x58>
10002dd8:	3401      	adds	r4, #1
10002dda:	2a0a      	cmp	r2, #10
10002ddc:	d1ee      	bne.n	10002dbc <writeString+0x1c>
10002dde:	4b21      	ldr	r3, [pc, #132]	@ (10002e64 <writeString+0xc4>)
10002de0:	4a1f      	ldr	r2, [pc, #124]	@ (10002e60 <writeString+0xc0>)
10002de2:	881b      	ldrh	r3, [r3, #0]
10002de4:	8811      	ldrh	r1, [r2, #0]
10002de6:	00db      	lsls	r3, r3, #3
10002de8:	185b      	adds	r3, r3, r1
10002dea:	8013      	strh	r3, [r2, #0]
10002dec:	2200      	movs	r2, #0
10002dee:	4b1b      	ldr	r3, [pc, #108]	@ (10002e5c <writeString+0xbc>)
10002df0:	801a      	strh	r2, [r3, #0]
10002df2:	7822      	ldrb	r2, [r4, #0]
10002df4:	2a00      	cmp	r2, #0
10002df6:	d1ef      	bne.n	10002dd8 <writeString+0x38>
10002df8:	b003      	add	sp, #12
10002dfa:	bcc0      	pop	{r6, r7}
10002dfc:	46b9      	mov	r9, r7
10002dfe:	46b0      	mov	r8, r6
10002e00:	bdf0      	pop	{r4, r5, r6, r7, pc}
10002e02:	464b      	mov	r3, r9
10002e04:	2700      	movs	r7, #0
10002e06:	5ff1      	ldrsh	r1, [r6, r7]
10002e08:	4f16      	ldr	r7, [pc, #88]	@ (10002e64 <writeString+0xc4>)
10002e0a:	781b      	ldrb	r3, [r3, #0]
10002e0c:	46b8      	mov	r8, r7
10002e0e:	783f      	ldrb	r7, [r7, #0]
10002e10:	b200      	sxth	r0, r0
10002e12:	9701      	str	r7, [sp, #4]
10002e14:	4f14      	ldr	r7, [pc, #80]	@ (10002e68 <writeString+0xc8>)
10002e16:	783f      	ldrb	r7, [r7, #0]
10002e18:	9700      	str	r7, [sp, #0]
10002e1a:	f7ff fe23 	bl	10002a64 <drawChar>
10002e1e:	4643      	mov	r3, r8
10002e20:	881a      	ldrh	r2, [r3, #0]
10002e22:	8829      	ldrh	r1, [r5, #0]
10002e24:	0053      	lsls	r3, r2, #1
10002e26:	18d3      	adds	r3, r2, r3
10002e28:	005b      	lsls	r3, r3, #1
10002e2a:	185b      	adds	r3, r3, r1
10002e2c:	490f      	ldr	r1, [pc, #60]	@ (10002e6c <writeString+0xcc>)
10002e2e:	b29b      	uxth	r3, r3
10002e30:	7809      	ldrb	r1, [r1, #0]
10002e32:	802b      	strh	r3, [r5, #0]
10002e34:	2900      	cmp	r1, #0
10002e36:	d0cc      	beq.n	10002dd2 <writeString+0x32>
10002e38:	20a0      	movs	r0, #160	@ 0xa0
10002e3a:	0080      	lsls	r0, r0, #2
10002e3c:	4684      	mov	ip, r0
10002e3e:	0091      	lsls	r1, r2, #2
10002e40:	1a51      	subs	r1, r2, r1
10002e42:	0049      	lsls	r1, r1, #1
10002e44:	4461      	add	r1, ip
10002e46:	428b      	cmp	r3, r1
10002e48:	ddc3      	ble.n	10002dd2 <writeString+0x32>
10002e4a:	8833      	ldrh	r3, [r6, #0]
10002e4c:	00d2      	lsls	r2, r2, #3
10002e4e:	18d2      	adds	r2, r2, r3
10002e50:	2300      	movs	r3, #0
10002e52:	8032      	strh	r2, [r6, #0]
10002e54:	802b      	strh	r3, [r5, #0]
10002e56:	e7bc      	b.n	10002dd2 <writeString+0x32>
10002e58:	200261b9 	.word	0x200261b9
10002e5c:	200261ac 	.word	0x200261ac
10002e60:	200261ae 	.word	0x200261ae
10002e64:	200261b0 	.word	0x200261b0
10002e68:	200261b8 	.word	0x200261b8
10002e6c:	200261bb 	.word	0x200261bb

10002e70 <mpu6050_reset>:
10002e70:	b5f0      	push	{r4, r5, r6, r7, lr}
10002e72:	236b      	movs	r3, #107	@ 0x6b
10002e74:	2400      	movs	r4, #0
10002e76:	b089      	sub	sp, #36	@ 0x24
10002e78:	4e35      	ldr	r6, [pc, #212]	@ (10002f50 <mpu6050_reset+0xe0>)
10002e7a:	af02      	add	r7, sp, #8
10002e7c:	803b      	strh	r3, [r7, #0]
10002e7e:	003a      	movs	r2, r7
10002e80:	2168      	movs	r1, #104	@ 0x68
10002e82:	0030      	movs	r0, r6
10002e84:	9400      	str	r4, [sp, #0]
10002e86:	3b69      	subs	r3, #105	@ 0x69
10002e88:	f004 ff90 	bl	10007dac <i2c_write_blocking>
10002e8c:	4d31      	ldr	r5, [pc, #196]	@ (10002f54 <mpu6050_reset+0xe4>)
10002e8e:	003a      	movs	r2, r7
10002e90:	2302      	movs	r3, #2
10002e92:	2168      	movs	r1, #104	@ 0x68
10002e94:	0028      	movs	r0, r5
10002e96:	9400      	str	r4, [sp, #0]
10002e98:	f004 ff88 	bl	10007dac <i2c_write_blocking>
10002e9c:	4b2e      	ldr	r3, [pc, #184]	@ (10002f58 <mpu6050_reset+0xe8>)
10002e9e:	af03      	add	r7, sp, #12
10002ea0:	803b      	strh	r3, [r7, #0]
10002ea2:	003a      	movs	r2, r7
10002ea4:	2302      	movs	r3, #2
10002ea6:	2168      	movs	r1, #104	@ 0x68
10002ea8:	0030      	movs	r0, r6
10002eaa:	9400      	str	r4, [sp, #0]
10002eac:	f004 ff7e 	bl	10007dac <i2c_write_blocking>
10002eb0:	003a      	movs	r2, r7
10002eb2:	2302      	movs	r3, #2
10002eb4:	2168      	movs	r1, #104	@ 0x68
10002eb6:	0028      	movs	r0, r5
10002eb8:	9400      	str	r4, [sp, #0]
10002eba:	f004 ff77 	bl	10007dac <i2c_write_blocking>
10002ebe:	231b      	movs	r3, #27
10002ec0:	af04      	add	r7, sp, #16
10002ec2:	803b      	strh	r3, [r7, #0]
10002ec4:	003a      	movs	r2, r7
10002ec6:	2168      	movs	r1, #104	@ 0x68
10002ec8:	0030      	movs	r0, r6
10002eca:	9400      	str	r4, [sp, #0]
10002ecc:	3b19      	subs	r3, #25
10002ece:	f004 ff6d 	bl	10007dac <i2c_write_blocking>
10002ed2:	003a      	movs	r2, r7
10002ed4:	2302      	movs	r3, #2
10002ed6:	2168      	movs	r1, #104	@ 0x68
10002ed8:	0028      	movs	r0, r5
10002eda:	9400      	str	r4, [sp, #0]
10002edc:	f004 ff66 	bl	10007dac <i2c_write_blocking>
10002ee0:	231c      	movs	r3, #28
10002ee2:	af05      	add	r7, sp, #20
10002ee4:	803b      	strh	r3, [r7, #0]
10002ee6:	003a      	movs	r2, r7
10002ee8:	2168      	movs	r1, #104	@ 0x68
10002eea:	0030      	movs	r0, r6
10002eec:	9400      	str	r4, [sp, #0]
10002eee:	3b1a      	subs	r3, #26
10002ef0:	f004 ff5c 	bl	10007dac <i2c_write_blocking>
10002ef4:	003a      	movs	r2, r7
10002ef6:	2302      	movs	r3, #2
10002ef8:	2168      	movs	r1, #104	@ 0x68
10002efa:	0028      	movs	r0, r5
10002efc:	9400      	str	r4, [sp, #0]
10002efe:	f004 ff55 	bl	10007dac <i2c_write_blocking>
10002f02:	4b16      	ldr	r3, [pc, #88]	@ (10002f5c <mpu6050_reset+0xec>)
10002f04:	af06      	add	r7, sp, #24
10002f06:	803b      	strh	r3, [r7, #0]
10002f08:	003a      	movs	r2, r7
10002f0a:	2302      	movs	r3, #2
10002f0c:	2168      	movs	r1, #104	@ 0x68
10002f0e:	0030      	movs	r0, r6
10002f10:	9400      	str	r4, [sp, #0]
10002f12:	f004 ff4b 	bl	10007dac <i2c_write_blocking>
10002f16:	003a      	movs	r2, r7
10002f18:	2302      	movs	r3, #2
10002f1a:	2168      	movs	r1, #104	@ 0x68
10002f1c:	0028      	movs	r0, r5
10002f1e:	9400      	str	r4, [sp, #0]
10002f20:	f004 ff44 	bl	10007dac <i2c_write_blocking>
10002f24:	239c      	movs	r3, #156	@ 0x9c
10002f26:	af07      	add	r7, sp, #28
10002f28:	005b      	lsls	r3, r3, #1
10002f2a:	803b      	strh	r3, [r7, #0]
10002f2c:	3b37      	subs	r3, #55	@ 0x37
10002f2e:	003a      	movs	r2, r7
10002f30:	2168      	movs	r1, #104	@ 0x68
10002f32:	0030      	movs	r0, r6
10002f34:	9400      	str	r4, [sp, #0]
10002f36:	3bff      	subs	r3, #255	@ 0xff
10002f38:	f004 ff38 	bl	10007dac <i2c_write_blocking>
10002f3c:	2302      	movs	r3, #2
10002f3e:	003a      	movs	r2, r7
10002f40:	2168      	movs	r1, #104	@ 0x68
10002f42:	0028      	movs	r0, r5
10002f44:	9400      	str	r4, [sp, #0]
10002f46:	f004 ff31 	bl	10007dac <i2c_write_blocking>
10002f4a:	b009      	add	sp, #36	@ 0x24
10002f4c:	bdf0      	pop	{r4, r5, r6, r7, pc}
10002f4e:	46c0      	nop			@ (mov r8, r8)
10002f50:	20000260 	.word	0x20000260
10002f54:	20000258 	.word	0x20000258
10002f58:	00000719 	.word	0x00000719
10002f5c:	00001037 	.word	0x00001037

10002f60 <mpu6050_read_raw0>:
10002f60:	b5f0      	push	{r4, r5, r6, r7, lr}
10002f62:	46d6      	mov	lr, sl
10002f64:	464f      	mov	r7, r9
10002f66:	4646      	mov	r6, r8
10002f68:	b5c0      	push	{r6, r7, lr}
10002f6a:	b086      	sub	sp, #24
10002f6c:	466a      	mov	r2, sp
10002f6e:	233b      	movs	r3, #59	@ 0x3b
10002f70:	73d3      	strb	r3, [r2, #15]
10002f72:	220f      	movs	r2, #15
10002f74:	4e4e      	ldr	r6, [pc, #312]	@ (100030b0 <mpu6050_read_raw0+0x150>)
10002f76:	3b3a      	subs	r3, #58	@ 0x3a
10002f78:	0007      	movs	r7, r0
10002f7a:	468a      	mov	sl, r1
10002f7c:	9300      	str	r3, [sp, #0]
10002f7e:	446a      	add	r2, sp
10002f80:	2168      	movs	r1, #104	@ 0x68
10002f82:	0030      	movs	r0, r6
10002f84:	4699      	mov	r9, r3
10002f86:	f004 ff11 	bl	10007dac <i2c_write_blocking>
10002f8a:	2300      	movs	r3, #0
10002f8c:	ac04      	add	r4, sp, #16
10002f8e:	4698      	mov	r8, r3
10002f90:	0022      	movs	r2, r4
10002f92:	9300      	str	r3, [sp, #0]
10002f94:	2168      	movs	r1, #104	@ 0x68
10002f96:	0030      	movs	r0, r6
10002f98:	3306      	adds	r3, #6
10002f9a:	f004 ff6f 	bl	10007e7c <i2c_read_blocking>
10002f9e:	7822      	ldrb	r2, [r4, #0]
10002fa0:	7863      	ldrb	r3, [r4, #1]
10002fa2:	0212      	lsls	r2, r2, #8
10002fa4:	4313      	orrs	r3, r2
10002fa6:	b21b      	sxth	r3, r3
10002fa8:	009b      	lsls	r3, r3, #2
10002faa:	603b      	str	r3, [r7, #0]
10002fac:	78a2      	ldrb	r2, [r4, #2]
10002fae:	78e3      	ldrb	r3, [r4, #3]
10002fb0:	0212      	lsls	r2, r2, #8
10002fb2:	4313      	orrs	r3, r2
10002fb4:	b21b      	sxth	r3, r3
10002fb6:	009b      	lsls	r3, r3, #2
10002fb8:	607b      	str	r3, [r7, #4]
10002fba:	7922      	ldrb	r2, [r4, #4]
10002fbc:	7963      	ldrb	r3, [r4, #5]
10002fbe:	0212      	lsls	r2, r2, #8
10002fc0:	4313      	orrs	r3, r2
10002fc2:	b21b      	sxth	r3, r3
10002fc4:	009b      	lsls	r3, r3, #2
10002fc6:	60bb      	str	r3, [r7, #8]
10002fc8:	466a      	mov	r2, sp
10002fca:	2343      	movs	r3, #67	@ 0x43
10002fcc:	73d3      	strb	r3, [r2, #15]
10002fce:	464b      	mov	r3, r9
10002fd0:	220f      	movs	r2, #15
10002fd2:	9300      	str	r3, [sp, #0]
10002fd4:	446a      	add	r2, sp
10002fd6:	2168      	movs	r1, #104	@ 0x68
10002fd8:	0030      	movs	r0, r6
10002fda:	f004 fee7 	bl	10007dac <i2c_write_blocking>
10002fde:	4643      	mov	r3, r8
10002fe0:	0022      	movs	r2, r4
10002fe2:	9300      	str	r3, [sp, #0]
10002fe4:	2168      	movs	r1, #104	@ 0x68
10002fe6:	0030      	movs	r0, r6
10002fe8:	3306      	adds	r3, #6
10002fea:	f004 ff47 	bl	10007e7c <i2c_read_blocking>
10002fee:	7822      	ldrb	r2, [r4, #0]
10002ff0:	7863      	ldrb	r3, [r4, #1]
10002ff2:	0212      	lsls	r2, r2, #8
10002ff4:	4313      	orrs	r3, r2
10002ff6:	b21b      	sxth	r3, r3
10002ff8:	001e      	movs	r6, r3
10002ffa:	17db      	asrs	r3, r3, #31
10002ffc:	001f      	movs	r7, r3
10002ffe:	0ef2      	lsrs	r2, r6, #27
10003000:	0159      	lsls	r1, r3, #5
10003002:	4311      	orrs	r1, r2
10003004:	0170      	lsls	r0, r6, #5
10003006:	1b80      	subs	r0, r0, r6
10003008:	41b9      	sbcs	r1, r7
1000300a:	0f83      	lsrs	r3, r0, #30
1000300c:	469c      	mov	ip, r3
1000300e:	4665      	mov	r5, ip
10003010:	008b      	lsls	r3, r1, #2
10003012:	432b      	orrs	r3, r5
10003014:	0082      	lsls	r2, r0, #2
10003016:	1992      	adds	r2, r2, r6
10003018:	417b      	adcs	r3, r7
1000301a:	0499      	lsls	r1, r3, #18
1000301c:	0b90      	lsrs	r0, r2, #14
1000301e:	4308      	orrs	r0, r1
10003020:	0496      	lsls	r6, r2, #18
10003022:	0403      	lsls	r3, r0, #16
10003024:	0c32      	lsrs	r2, r6, #16
10003026:	431a      	orrs	r2, r3
10003028:	4653      	mov	r3, sl
1000302a:	601a      	str	r2, [r3, #0]
1000302c:	78a2      	ldrb	r2, [r4, #2]
1000302e:	78e3      	ldrb	r3, [r4, #3]
10003030:	0212      	lsls	r2, r2, #8
10003032:	4313      	orrs	r3, r2
10003034:	b21b      	sxth	r3, r3
10003036:	001e      	movs	r6, r3
10003038:	17db      	asrs	r3, r3, #31
1000303a:	001f      	movs	r7, r3
1000303c:	0ef2      	lsrs	r2, r6, #27
1000303e:	0159      	lsls	r1, r3, #5
10003040:	4311      	orrs	r1, r2
10003042:	0170      	lsls	r0, r6, #5
10003044:	1b80      	subs	r0, r0, r6
10003046:	41b9      	sbcs	r1, r7
10003048:	0f83      	lsrs	r3, r0, #30
1000304a:	469c      	mov	ip, r3
1000304c:	4665      	mov	r5, ip
1000304e:	008b      	lsls	r3, r1, #2
10003050:	432b      	orrs	r3, r5
10003052:	0082      	lsls	r2, r0, #2
10003054:	1992      	adds	r2, r2, r6
10003056:	417b      	adcs	r3, r7
10003058:	0499      	lsls	r1, r3, #18
1000305a:	0b90      	lsrs	r0, r2, #14
1000305c:	4308      	orrs	r0, r1
1000305e:	0496      	lsls	r6, r2, #18
10003060:	0403      	lsls	r3, r0, #16
10003062:	0c32      	lsrs	r2, r6, #16
10003064:	431a      	orrs	r2, r3
10003066:	4653      	mov	r3, sl
10003068:	605a      	str	r2, [r3, #4]
1000306a:	7922      	ldrb	r2, [r4, #4]
1000306c:	7963      	ldrb	r3, [r4, #5]
1000306e:	0212      	lsls	r2, r2, #8
10003070:	4313      	orrs	r3, r2
10003072:	b21b      	sxth	r3, r3
10003074:	001e      	movs	r6, r3
10003076:	17db      	asrs	r3, r3, #31
10003078:	001f      	movs	r7, r3
1000307a:	0ef2      	lsrs	r2, r6, #27
1000307c:	0159      	lsls	r1, r3, #5
1000307e:	4311      	orrs	r1, r2
10003080:	0170      	lsls	r0, r6, #5
10003082:	1b80      	subs	r0, r0, r6
10003084:	41b9      	sbcs	r1, r7
10003086:	0f84      	lsrs	r4, r0, #30
10003088:	008b      	lsls	r3, r1, #2
1000308a:	4323      	orrs	r3, r4
1000308c:	0082      	lsls	r2, r0, #2
1000308e:	1992      	adds	r2, r2, r6
10003090:	417b      	adcs	r3, r7
10003092:	0499      	lsls	r1, r3, #18
10003094:	0b90      	lsrs	r0, r2, #14
10003096:	0494      	lsls	r4, r2, #18
10003098:	4308      	orrs	r0, r1
1000309a:	0403      	lsls	r3, r0, #16
1000309c:	0c22      	lsrs	r2, r4, #16
1000309e:	431a      	orrs	r2, r3
100030a0:	4653      	mov	r3, sl
100030a2:	609a      	str	r2, [r3, #8]
100030a4:	b006      	add	sp, #24
100030a6:	bce0      	pop	{r5, r6, r7}
100030a8:	46ba      	mov	sl, r7
100030aa:	46b1      	mov	r9, r6
100030ac:	46a8      	mov	r8, r5
100030ae:	bdf0      	pop	{r4, r5, r6, r7, pc}
100030b0:	20000260 	.word	0x20000260

100030b4 <mpu6050_read_raw1>:
100030b4:	b5f0      	push	{r4, r5, r6, r7, lr}
100030b6:	46d6      	mov	lr, sl
100030b8:	464f      	mov	r7, r9
100030ba:	4646      	mov	r6, r8
100030bc:	b5c0      	push	{r6, r7, lr}
100030be:	b086      	sub	sp, #24
100030c0:	466a      	mov	r2, sp
100030c2:	233b      	movs	r3, #59	@ 0x3b
100030c4:	73d3      	strb	r3, [r2, #15]
100030c6:	220f      	movs	r2, #15
100030c8:	4e4e      	ldr	r6, [pc, #312]	@ (10003204 <mpu6050_read_raw1+0x150>)
100030ca:	3b3a      	subs	r3, #58	@ 0x3a
100030cc:	0007      	movs	r7, r0
100030ce:	468a      	mov	sl, r1
100030d0:	9300      	str	r3, [sp, #0]
100030d2:	446a      	add	r2, sp
100030d4:	2168      	movs	r1, #104	@ 0x68
100030d6:	0030      	movs	r0, r6
100030d8:	4699      	mov	r9, r3
100030da:	f004 fe67 	bl	10007dac <i2c_write_blocking>
100030de:	2300      	movs	r3, #0
100030e0:	ac04      	add	r4, sp, #16
100030e2:	4698      	mov	r8, r3
100030e4:	0022      	movs	r2, r4
100030e6:	9300      	str	r3, [sp, #0]
100030e8:	2168      	movs	r1, #104	@ 0x68
100030ea:	0030      	movs	r0, r6
100030ec:	3306      	adds	r3, #6
100030ee:	f004 fec5 	bl	10007e7c <i2c_read_blocking>
100030f2:	7822      	ldrb	r2, [r4, #0]
100030f4:	7863      	ldrb	r3, [r4, #1]
100030f6:	0212      	lsls	r2, r2, #8
100030f8:	4313      	orrs	r3, r2
100030fa:	b21b      	sxth	r3, r3
100030fc:	009b      	lsls	r3, r3, #2
100030fe:	603b      	str	r3, [r7, #0]
10003100:	78a2      	ldrb	r2, [r4, #2]
10003102:	78e3      	ldrb	r3, [r4, #3]
10003104:	0212      	lsls	r2, r2, #8
10003106:	4313      	orrs	r3, r2
10003108:	b21b      	sxth	r3, r3
1000310a:	009b      	lsls	r3, r3, #2
1000310c:	607b      	str	r3, [r7, #4]
1000310e:	7922      	ldrb	r2, [r4, #4]
10003110:	7963      	ldrb	r3, [r4, #5]
10003112:	0212      	lsls	r2, r2, #8
10003114:	4313      	orrs	r3, r2
10003116:	b21b      	sxth	r3, r3
10003118:	009b      	lsls	r3, r3, #2
1000311a:	60bb      	str	r3, [r7, #8]
1000311c:	466a      	mov	r2, sp
1000311e:	2343      	movs	r3, #67	@ 0x43
10003120:	73d3      	strb	r3, [r2, #15]
10003122:	464b      	mov	r3, r9
10003124:	220f      	movs	r2, #15
10003126:	9300      	str	r3, [sp, #0]
10003128:	446a      	add	r2, sp
1000312a:	2168      	movs	r1, #104	@ 0x68
1000312c:	0030      	movs	r0, r6
1000312e:	f004 fe3d 	bl	10007dac <i2c_write_blocking>
10003132:	4643      	mov	r3, r8
10003134:	0022      	movs	r2, r4
10003136:	9300      	str	r3, [sp, #0]
10003138:	2168      	movs	r1, #104	@ 0x68
1000313a:	0030      	movs	r0, r6
1000313c:	3306      	adds	r3, #6
1000313e:	f004 fe9d 	bl	10007e7c <i2c_read_blocking>
10003142:	7822      	ldrb	r2, [r4, #0]
10003144:	7863      	ldrb	r3, [r4, #1]
10003146:	0212      	lsls	r2, r2, #8
10003148:	4313      	orrs	r3, r2
1000314a:	b21b      	sxth	r3, r3
1000314c:	001e      	movs	r6, r3
1000314e:	17db      	asrs	r3, r3, #31
10003150:	001f      	movs	r7, r3
10003152:	0ef2      	lsrs	r2, r6, #27
10003154:	0159      	lsls	r1, r3, #5
10003156:	4311      	orrs	r1, r2
10003158:	0170      	lsls	r0, r6, #5
1000315a:	1b80      	subs	r0, r0, r6
1000315c:	41b9      	sbcs	r1, r7
1000315e:	0f83      	lsrs	r3, r0, #30
10003160:	469c      	mov	ip, r3
10003162:	4665      	mov	r5, ip
10003164:	008b      	lsls	r3, r1, #2
10003166:	432b      	orrs	r3, r5
10003168:	0082      	lsls	r2, r0, #2
1000316a:	1992      	adds	r2, r2, r6
1000316c:	417b      	adcs	r3, r7
1000316e:	0499      	lsls	r1, r3, #18
10003170:	0b90      	lsrs	r0, r2, #14
10003172:	4308      	orrs	r0, r1
10003174:	0496      	lsls	r6, r2, #18
10003176:	0403      	lsls	r3, r0, #16
10003178:	0c32      	lsrs	r2, r6, #16
1000317a:	431a      	orrs	r2, r3
1000317c:	4653      	mov	r3, sl
1000317e:	601a      	str	r2, [r3, #0]
10003180:	78a2      	ldrb	r2, [r4, #2]
10003182:	78e3      	ldrb	r3, [r4, #3]
10003184:	0212      	lsls	r2, r2, #8
10003186:	4313      	orrs	r3, r2
10003188:	b21b      	sxth	r3, r3
1000318a:	001e      	movs	r6, r3
1000318c:	17db      	asrs	r3, r3, #31
1000318e:	001f      	movs	r7, r3
10003190:	0ef2      	lsrs	r2, r6, #27
10003192:	0159      	lsls	r1, r3, #5
10003194:	4311      	orrs	r1, r2
10003196:	0170      	lsls	r0, r6, #5
10003198:	1b80      	subs	r0, r0, r6
1000319a:	41b9      	sbcs	r1, r7
1000319c:	0f83      	lsrs	r3, r0, #30
1000319e:	469c      	mov	ip, r3
100031a0:	4665      	mov	r5, ip
100031a2:	008b      	lsls	r3, r1, #2
100031a4:	432b      	orrs	r3, r5
100031a6:	0082      	lsls	r2, r0, #2
100031a8:	1992      	adds	r2, r2, r6
100031aa:	417b      	adcs	r3, r7
100031ac:	0499      	lsls	r1, r3, #18
100031ae:	0b90      	lsrs	r0, r2, #14
100031b0:	4308      	orrs	r0, r1
100031b2:	0496      	lsls	r6, r2, #18
100031b4:	0403      	lsls	r3, r0, #16
100031b6:	0c32      	lsrs	r2, r6, #16
100031b8:	431a      	orrs	r2, r3
100031ba:	4653      	mov	r3, sl
100031bc:	605a      	str	r2, [r3, #4]
100031be:	7922      	ldrb	r2, [r4, #4]
100031c0:	7963      	ldrb	r3, [r4, #5]
100031c2:	0212      	lsls	r2, r2, #8
100031c4:	4313      	orrs	r3, r2
100031c6:	b21b      	sxth	r3, r3
100031c8:	001e      	movs	r6, r3
100031ca:	17db      	asrs	r3, r3, #31
100031cc:	001f      	movs	r7, r3
100031ce:	0ef2      	lsrs	r2, r6, #27
100031d0:	0159      	lsls	r1, r3, #5
100031d2:	4311      	orrs	r1, r2
100031d4:	0170      	lsls	r0, r6, #5
100031d6:	1b80      	subs	r0, r0, r6
100031d8:	41b9      	sbcs	r1, r7
100031da:	0f84      	lsrs	r4, r0, #30
100031dc:	008b      	lsls	r3, r1, #2
100031de:	4323      	orrs	r3, r4
100031e0:	0082      	lsls	r2, r0, #2
100031e2:	1992      	adds	r2, r2, r6
100031e4:	417b      	adcs	r3, r7
100031e6:	0499      	lsls	r1, r3, #18
100031e8:	0b90      	lsrs	r0, r2, #14
100031ea:	0494      	lsls	r4, r2, #18
100031ec:	4308      	orrs	r0, r1
100031ee:	0403      	lsls	r3, r0, #16
100031f0:	0c22      	lsrs	r2, r4, #16
100031f2:	431a      	orrs	r2, r3
100031f4:	4653      	mov	r3, sl
100031f6:	609a      	str	r2, [r3, #8]
100031f8:	b006      	add	sp, #24
100031fa:	bce0      	pop	{r5, r6, r7}
100031fc:	46ba      	mov	sl, r7
100031fe:	46b1      	mov	r9, r6
10003200:	46a8      	mov	r8, r5
10003202:	bdf0      	pop	{r4, r5, r6, r7, pc}
10003204:	20000258 	.word	0x20000258

10003208 <gpio_set_function>:
10003208:	4a09      	ldr	r2, [pc, #36]	@ (10003230 <gpio_set_function+0x28>)
1000320a:	b510      	push	{r4, lr}
1000320c:	4694      	mov	ip, r2
1000320e:	2440      	movs	r4, #64	@ 0x40
10003210:	0083      	lsls	r3, r0, #2
10003212:	4463      	add	r3, ip
10003214:	681a      	ldr	r2, [r3, #0]
10003216:	00c0      	lsls	r0, r0, #3
10003218:	4062      	eors	r2, r4
1000321a:	3480      	adds	r4, #128	@ 0x80
1000321c:	4014      	ands	r4, r2
1000321e:	2280      	movs	r2, #128	@ 0x80
10003220:	0152      	lsls	r2, r2, #5
10003222:	4313      	orrs	r3, r2
10003224:	601c      	str	r4, [r3, #0]
10003226:	4b03      	ldr	r3, [pc, #12]	@ (10003234 <gpio_set_function+0x2c>)
10003228:	469c      	mov	ip, r3
1000322a:	4460      	add	r0, ip
1000322c:	6041      	str	r1, [r0, #4]
1000322e:	bd10      	pop	{r4, pc}
10003230:	4001c004 	.word	0x4001c004
10003234:	40014000 	.word	0x40014000

10003238 <gpio_set_pulls>:
10003238:	4b07      	ldr	r3, [pc, #28]	@ (10003258 <gpio_set_pulls+0x20>)
1000323a:	0080      	lsls	r0, r0, #2
1000323c:	469c      	mov	ip, r3
1000323e:	4460      	add	r0, ip
10003240:	6803      	ldr	r3, [r0, #0]
10003242:	00c9      	lsls	r1, r1, #3
10003244:	0092      	lsls	r2, r2, #2
10003246:	430a      	orrs	r2, r1
10003248:	405a      	eors	r2, r3
1000324a:	230c      	movs	r3, #12
1000324c:	401a      	ands	r2, r3
1000324e:	2380      	movs	r3, #128	@ 0x80
10003250:	015b      	lsls	r3, r3, #5
10003252:	4303      	orrs	r3, r0
10003254:	601a      	str	r2, [r3, #0]
10003256:	4770      	bx	lr
10003258:	4001c004 	.word	0x4001c004

1000325c <gpio_init>:
1000325c:	2301      	movs	r3, #1
1000325e:	22d0      	movs	r2, #208	@ 0xd0
10003260:	4083      	lsls	r3, r0
10003262:	0612      	lsls	r2, r2, #24
10003264:	6293      	str	r3, [r2, #40]	@ 0x28
10003266:	6193      	str	r3, [r2, #24]
10003268:	4a09      	ldr	r2, [pc, #36]	@ (10003290 <gpio_init+0x34>)
1000326a:	2140      	movs	r1, #64	@ 0x40
1000326c:	4694      	mov	ip, r2
1000326e:	0083      	lsls	r3, r0, #2
10003270:	4463      	add	r3, ip
10003272:	681a      	ldr	r2, [r3, #0]
10003274:	00c0      	lsls	r0, r0, #3
10003276:	404a      	eors	r2, r1
10003278:	3180      	adds	r1, #128	@ 0x80
1000327a:	4011      	ands	r1, r2
1000327c:	2280      	movs	r2, #128	@ 0x80
1000327e:	0152      	lsls	r2, r2, #5
10003280:	4313      	orrs	r3, r2
10003282:	6019      	str	r1, [r3, #0]
10003284:	4b03      	ldr	r3, [pc, #12]	@ (10003294 <gpio_init+0x38>)
10003286:	469c      	mov	ip, r3
10003288:	2305      	movs	r3, #5
1000328a:	4460      	add	r0, ip
1000328c:	6043      	str	r3, [r0, #4]
1000328e:	4770      	bx	lr
10003290:	4001c004 	.word	0x4001c004
10003294:	40014000 	.word	0x40014000

10003298 <running_on_fpga>:
10003298:	4b02      	ldr	r3, [pc, #8]	@ (100032a4 <running_on_fpga+0xc>)
1000329a:	6818      	ldr	r0, [r3, #0]
1000329c:	0780      	lsls	r0, r0, #30
1000329e:	0fc0      	lsrs	r0, r0, #31
100032a0:	4770      	bx	lr
100032a2:	46c0      	nop			@ (mov r8, r8)
100032a4:	4006c000 	.word	0x4006c000

100032a8 <hw_claim_lock>:
100032a8:	f3ef 8010 	mrs	r0, PRIMASK
100032ac:	b672      	cpsid	i
100032ae:	4a03      	ldr	r2, [pc, #12]	@ (100032bc <hw_claim_lock+0x14>)
100032b0:	6813      	ldr	r3, [r2, #0]
100032b2:	2b00      	cmp	r3, #0
100032b4:	d0fc      	beq.n	100032b0 <hw_claim_lock+0x8>
100032b6:	f3bf 8f5f 	dmb	sy
100032ba:	4770      	bx	lr
100032bc:	d000012c 	.word	0xd000012c

100032c0 <hw_claim_unlock>:
100032c0:	f3bf 8f5f 	dmb	sy
100032c4:	2200      	movs	r2, #0
100032c6:	4b02      	ldr	r3, [pc, #8]	@ (100032d0 <hw_claim_unlock+0x10>)
100032c8:	601a      	str	r2, [r3, #0]
100032ca:	f380 8810 	msr	PRIMASK, r0
100032ce:	4770      	bx	lr
100032d0:	d000012c 	.word	0xd000012c

100032d4 <hw_claim_or_assert>:
100032d4:	b570      	push	{r4, r5, r6, lr}
100032d6:	f3ef 8c10 	mrs	ip, PRIMASK
100032da:	b672      	cpsid	i
100032dc:	4d0d      	ldr	r5, [pc, #52]	@ (10003314 <hw_claim_or_assert+0x40>)
100032de:	682b      	ldr	r3, [r5, #0]
100032e0:	2b00      	cmp	r3, #0
100032e2:	d0fc      	beq.n	100032de <hw_claim_or_assert+0xa>
100032e4:	f3bf 8f5f 	dmb	sy
100032e8:	2407      	movs	r4, #7
100032ea:	08cb      	lsrs	r3, r1, #3
100032ec:	18c6      	adds	r6, r0, r3
100032ee:	5cc0      	ldrb	r0, [r0, r3]
100032f0:	2301      	movs	r3, #1
100032f2:	400c      	ands	r4, r1
100032f4:	40a3      	lsls	r3, r4
100032f6:	001c      	movs	r4, r3
100032f8:	4004      	ands	r4, r0
100032fa:	4203      	tst	r3, r0
100032fc:	d107      	bne.n	1000330e <hw_claim_or_assert+0x3a>
100032fe:	4318      	orrs	r0, r3
10003300:	7030      	strb	r0, [r6, #0]
10003302:	f3bf 8f5f 	dmb	sy
10003306:	602c      	str	r4, [r5, #0]
10003308:	f38c 8810 	msr	PRIMASK, ip
1000330c:	bd70      	pop	{r4, r5, r6, pc}
1000330e:	0010      	movs	r0, r2
10003310:	f001 fb1e 	bl	10004950 <panic>
10003314:	d000012c 	.word	0xd000012c

10003318 <spin_locks_reset>:
10003318:	2100      	movs	r1, #0
1000331a:	4b04      	ldr	r3, [pc, #16]	@ (1000332c <spin_locks_reset+0x14>)
1000331c:	4a04      	ldr	r2, [pc, #16]	@ (10003330 <spin_locks_reset+0x18>)
1000331e:	f3bf 8f5f 	dmb	sy
10003322:	c302      	stmia	r3!, {r1}
10003324:	4293      	cmp	r3, r2
10003326:	d1fa      	bne.n	1000331e <spin_locks_reset+0x6>
10003328:	4770      	bx	lr
1000332a:	46c0      	nop			@ (mov r8, r8)
1000332c:	d0000100 	.word	0xd0000100
10003330:	d0000180 	.word	0xd0000180

10003334 <next_striped_spin_lock_num>:
10003334:	4a04      	ldr	r2, [pc, #16]	@ (10003348 <next_striped_spin_lock_num+0x14>)
10003336:	7810      	ldrb	r0, [r2, #0]
10003338:	1c43      	adds	r3, r0, #1
1000333a:	b2db      	uxtb	r3, r3
1000333c:	2b17      	cmp	r3, #23
1000333e:	d900      	bls.n	10003342 <next_striped_spin_lock_num+0xe>
10003340:	2310      	movs	r3, #16
10003342:	7013      	strb	r3, [r2, #0]
10003344:	4770      	bx	lr
10003346:	46c0      	nop			@ (mov r8, r8)
10003348:	200001a0 	.word	0x200001a0

1000334c <irq_set_enabled>:
1000334c:	2301      	movs	r3, #1
1000334e:	4083      	lsls	r3, r0
10003350:	2900      	cmp	r1, #0
10003352:	d004      	beq.n	1000335e <irq_set_enabled+0x12>
10003354:	4a03      	ldr	r2, [pc, #12]	@ (10003364 <irq_set_enabled+0x18>)
10003356:	6013      	str	r3, [r2, #0]
10003358:	4a03      	ldr	r2, [pc, #12]	@ (10003368 <irq_set_enabled+0x1c>)
1000335a:	6013      	str	r3, [r2, #0]
1000335c:	4770      	bx	lr
1000335e:	4a03      	ldr	r2, [pc, #12]	@ (1000336c <irq_set_enabled+0x20>)
10003360:	6013      	str	r3, [r2, #0]
10003362:	e7fb      	b.n	1000335c <irq_set_enabled+0x10>
10003364:	e000e280 	.word	0xe000e280
10003368:	e000e100 	.word	0xe000e100
1000336c:	e000e180 	.word	0xe000e180

10003370 <irq_is_enabled>:
10003370:	2201      	movs	r2, #1
10003372:	4082      	lsls	r2, r0
10003374:	4b03      	ldr	r3, [pc, #12]	@ (10003384 <irq_is_enabled+0x14>)
10003376:	681b      	ldr	r3, [r3, #0]
10003378:	4013      	ands	r3, r2
1000337a:	1e5a      	subs	r2, r3, #1
1000337c:	4193      	sbcs	r3, r2
1000337e:	b2d8      	uxtb	r0, r3
10003380:	4770      	bx	lr
10003382:	46c0      	nop			@ (mov r8, r8)
10003384:	e000e100 	.word	0xe000e100

10003388 <irq_get_vtable_handler>:
10003388:	4b02      	ldr	r3, [pc, #8]	@ (10003394 <irq_get_vtable_handler+0xc>)
1000338a:	3010      	adds	r0, #16
1000338c:	689b      	ldr	r3, [r3, #8]
1000338e:	0080      	lsls	r0, r0, #2
10003390:	58c0      	ldr	r0, [r0, r3]
10003392:	4770      	bx	lr
10003394:	e000ed00 	.word	0xe000ed00

10003398 <irq_set_exclusive_handler>:
10003398:	b570      	push	{r4, r5, r6, lr}
1000339a:	000d      	movs	r5, r1
1000339c:	f3ef 8610 	mrs	r6, PRIMASK
100033a0:	b672      	cpsid	i
100033a2:	4a0f      	ldr	r2, [pc, #60]	@ (100033e0 <irq_set_exclusive_handler+0x48>)
100033a4:	6813      	ldr	r3, [r2, #0]
100033a6:	2b00      	cmp	r3, #0
100033a8:	d0fc      	beq.n	100033a4 <irq_set_exclusive_handler+0xc>
100033aa:	f3bf 8f5f 	dmb	sy
100033ae:	4b0d      	ldr	r3, [pc, #52]	@ (100033e4 <irq_set_exclusive_handler+0x4c>)
100033b0:	3010      	adds	r0, #16
100033b2:	689b      	ldr	r3, [r3, #8]
100033b4:	0084      	lsls	r4, r0, #2
100033b6:	591b      	ldr	r3, [r3, r4]
100033b8:	4a0b      	ldr	r2, [pc, #44]	@ (100033e8 <irq_set_exclusive_handler+0x50>)
100033ba:	4293      	cmp	r3, r2
100033bc:	d003      	beq.n	100033c6 <irq_set_exclusive_handler+0x2e>
100033be:	429d      	cmp	r5, r3
100033c0:	d001      	beq.n	100033c6 <irq_set_exclusive_handler+0x2e>
100033c2:	f001 fadd 	bl	10004980 <hard_assertion_failure>
100033c6:	4b07      	ldr	r3, [pc, #28]	@ (100033e4 <irq_set_exclusive_handler+0x4c>)
100033c8:	689b      	ldr	r3, [r3, #8]
100033ca:	511d      	str	r5, [r3, r4]
100033cc:	f3bf 8f5f 	dmb	sy
100033d0:	f3bf 8f5f 	dmb	sy
100033d4:	2200      	movs	r2, #0
100033d6:	4b02      	ldr	r3, [pc, #8]	@ (100033e0 <irq_set_exclusive_handler+0x48>)
100033d8:	601a      	str	r2, [r3, #0]
100033da:	f386 8810 	msr	PRIMASK, r6
100033de:	bd70      	pop	{r4, r5, r6, pc}
100033e0:	d0000124 	.word	0xd0000124
100033e4:	e000ed00 	.word	0xe000ed00
100033e8:	100001cd 	.word	0x100001cd

100033ec <irq_remove_handler>:
100033ec:	b5f0      	push	{r4, r5, r6, r7, lr}
100033ee:	46de      	mov	lr, fp
100033f0:	4657      	mov	r7, sl
100033f2:	464e      	mov	r6, r9
100033f4:	4645      	mov	r5, r8
100033f6:	b5e0      	push	{r5, r6, r7, lr}
100033f8:	000c      	movs	r4, r1
100033fa:	b083      	sub	sp, #12
100033fc:	f3ef 8810 	mrs	r8, PRIMASK
10003400:	b672      	cpsid	i
10003402:	4a5d      	ldr	r2, [pc, #372]	@ (10003578 <irq_remove_handler+0x18c>)
10003404:	6813      	ldr	r3, [r2, #0]
10003406:	2b00      	cmp	r3, #0
10003408:	d0fc      	beq.n	10003404 <irq_remove_handler+0x18>
1000340a:	f3bf 8f5f 	dmb	sy
1000340e:	4b5b      	ldr	r3, [pc, #364]	@ (1000357c <irq_remove_handler+0x190>)
10003410:	495b      	ldr	r1, [pc, #364]	@ (10003580 <irq_remove_handler+0x194>)
10003412:	689a      	ldr	r2, [r3, #8]
10003414:	0003      	movs	r3, r0
10003416:	3310      	adds	r3, #16
10003418:	009f      	lsls	r7, r3, #2
1000341a:	59d5      	ldr	r5, [r2, r7]
1000341c:	428d      	cmp	r5, r1
1000341e:	d039      	beq.n	10003494 <irq_remove_handler+0xa8>
10003420:	42a5      	cmp	r5, r4
10003422:	d04a      	beq.n	100034ba <irq_remove_handler+0xce>
10003424:	4e57      	ldr	r6, [pc, #348]	@ (10003584 <irq_remove_handler+0x198>)
10003426:	1baa      	subs	r2, r5, r6
10003428:	2a2f      	cmp	r2, #47	@ 0x2f
1000342a:	d833      	bhi.n	10003494 <irq_remove_handler+0xa8>
1000342c:	2201      	movs	r2, #1
1000342e:	4692      	mov	sl, r2
10003430:	4082      	lsls	r2, r0
10003432:	4691      	mov	r9, r2
10003434:	4648      	mov	r0, r9
10003436:	4a54      	ldr	r2, [pc, #336]	@ (10003588 <irq_remove_handler+0x19c>)
10003438:	6812      	ldr	r2, [r2, #0]
1000343a:	4010      	ands	r0, r2
1000343c:	9001      	str	r0, [sp, #4]
1000343e:	4648      	mov	r0, r9
10003440:	4a52      	ldr	r2, [pc, #328]	@ (1000358c <irq_remove_handler+0x1a0>)
10003442:	6010      	str	r0, [r2, #0]
10003444:	f3bf 8f5f 	dmb	sy
10003448:	f3ef 8205 	mrs	r2, IPSR
1000344c:	4693      	mov	fp, r2
1000344e:	2a00      	cmp	r2, #0
10003450:	d035      	beq.n	100034be <irq_remove_handler+0xd2>
10003452:	4293      	cmp	r3, r2
10003454:	d001      	beq.n	1000345a <irq_remove_handler+0x6e>
10003456:	f001 fa93 	bl	10004980 <hard_assertion_failure>
1000345a:	002a      	movs	r2, r5
1000345c:	4653      	mov	r3, sl
1000345e:	439a      	bics	r2, r3
10003460:	6890      	ldr	r0, [r2, #8]
10003462:	4284      	cmp	r4, r0
10003464:	d108      	bne.n	10003478 <irq_remove_handler+0x8c>
10003466:	e075      	b.n	10003554 <irq_remove_handler+0x168>
10003468:	004b      	lsls	r3, r1, #1
1000346a:	185b      	adds	r3, r3, r1
1000346c:	009b      	lsls	r3, r3, #2
1000346e:	18f3      	adds	r3, r6, r3
10003470:	6898      	ldr	r0, [r3, #8]
10003472:	42a0      	cmp	r0, r4
10003474:	d034      	beq.n	100034e0 <irq_remove_handler+0xf4>
10003476:	001a      	movs	r2, r3
10003478:	2106      	movs	r1, #6
1000347a:	5651      	ldrsb	r1, [r2, r1]
1000347c:	2900      	cmp	r1, #0
1000347e:	daf3      	bge.n	10003468 <irq_remove_handler+0x7c>
10003480:	4284      	cmp	r4, r0
10003482:	d053      	beq.n	1000352c <irq_remove_handler+0x140>
10003484:	9b01      	ldr	r3, [sp, #4]
10003486:	2b00      	cmp	r3, #0
10003488:	d026      	beq.n	100034d8 <irq_remove_handler+0xec>
1000348a:	464a      	mov	r2, r9
1000348c:	4b40      	ldr	r3, [pc, #256]	@ (10003590 <irq_remove_handler+0x1a4>)
1000348e:	601a      	str	r2, [r3, #0]
10003490:	4b3d      	ldr	r3, [pc, #244]	@ (10003588 <irq_remove_handler+0x19c>)
10003492:	601a      	str	r2, [r3, #0]
10003494:	4b39      	ldr	r3, [pc, #228]	@ (1000357c <irq_remove_handler+0x190>)
10003496:	689b      	ldr	r3, [r3, #8]
10003498:	51dd      	str	r5, [r3, r7]
1000349a:	f3bf 8f5f 	dmb	sy
1000349e:	f3bf 8f5f 	dmb	sy
100034a2:	2200      	movs	r2, #0
100034a4:	4b34      	ldr	r3, [pc, #208]	@ (10003578 <irq_remove_handler+0x18c>)
100034a6:	601a      	str	r2, [r3, #0]
100034a8:	f388 8810 	msr	PRIMASK, r8
100034ac:	b003      	add	sp, #12
100034ae:	bcf0      	pop	{r4, r5, r6, r7}
100034b0:	46bb      	mov	fp, r7
100034b2:	46b2      	mov	sl, r6
100034b4:	46a9      	mov	r9, r5
100034b6:	46a0      	mov	r8, r4
100034b8:	bdf0      	pop	{r4, r5, r6, r7, pc}
100034ba:	000d      	movs	r5, r1
100034bc:	e7ea      	b.n	10003494 <irq_remove_handler+0xa8>
100034be:	002a      	movs	r2, r5
100034c0:	4653      	mov	r3, sl
100034c2:	439a      	bics	r2, r3
100034c4:	6890      	ldr	r0, [r2, #8]
100034c6:	4284      	cmp	r4, r0
100034c8:	d1d6      	bne.n	10003478 <irq_remove_handler+0x8c>
100034ca:	2006      	movs	r0, #6
100034cc:	5610      	ldrsb	r0, [r2, r0]
100034ce:	0013      	movs	r3, r2
100034d0:	2800      	cmp	r0, #0
100034d2:	da09      	bge.n	100034e8 <irq_remove_handler+0xfc>
100034d4:	000d      	movs	r5, r1
100034d6:	e031      	b.n	1000353c <irq_remove_handler+0x150>
100034d8:	464a      	mov	r2, r9
100034da:	4b2c      	ldr	r3, [pc, #176]	@ (1000358c <irq_remove_handler+0x1a0>)
100034dc:	601a      	str	r2, [r3, #0]
100034de:	e7d9      	b.n	10003494 <irq_remove_handler+0xa8>
100034e0:	2006      	movs	r0, #6
100034e2:	5618      	ldrsb	r0, [r3, r0]
100034e4:	2800      	cmp	r0, #0
100034e6:	db22      	blt.n	1000352e <irq_remove_handler+0x142>
100034e8:	0042      	lsls	r2, r0, #1
100034ea:	1811      	adds	r1, r2, r0
100034ec:	0089      	lsls	r1, r1, #2
100034ee:	1874      	adds	r4, r6, r1
100034f0:	468a      	mov	sl, r1
100034f2:	68a1      	ldr	r1, [r4, #8]
100034f4:	6099      	str	r1, [r3, #8]
100034f6:	79e1      	ldrb	r1, [r4, #7]
100034f8:	71d9      	strb	r1, [r3, #7]
100034fa:	2106      	movs	r1, #6
100034fc:	5661      	ldrsb	r1, [r4, r1]
100034fe:	7199      	strb	r1, [r3, #6]
10003500:	2900      	cmp	r1, #0
10003502:	db25      	blt.n	10003550 <irq_remove_handler+0x164>
10003504:	88a4      	ldrh	r4, [r4, #4]
10003506:	1af1      	subs	r1, r6, r3
10003508:	0564      	lsls	r4, r4, #21
1000350a:	1524      	asrs	r4, r4, #20
1000350c:	4454      	add	r4, sl
1000350e:	1909      	adds	r1, r1, r4
10003510:	24e0      	movs	r4, #224	@ 0xe0
10003512:	0509      	lsls	r1, r1, #20
10003514:	0d49      	lsrs	r1, r1, #21
10003516:	0224      	lsls	r4, r4, #8
10003518:	4321      	orrs	r1, r4
1000351a:	8099      	strh	r1, [r3, #4]
1000351c:	1813      	adds	r3, r2, r0
1000351e:	4a1d      	ldr	r2, [pc, #116]	@ (10003594 <irq_remove_handler+0x1a8>)
10003520:	009b      	lsls	r3, r3, #2
10003522:	7811      	ldrb	r1, [r2, #0]
10003524:	18f3      	adds	r3, r6, r3
10003526:	7199      	strb	r1, [r3, #6]
10003528:	7010      	strb	r0, [r2, #0]
1000352a:	e7ab      	b.n	10003484 <irq_remove_handler+0x98>
1000352c:	0013      	movs	r3, r2
1000352e:	4659      	mov	r1, fp
10003530:	2900      	cmp	r1, #0
10003532:	d114      	bne.n	1000355e <irq_remove_handler+0x172>
10003534:	31ff      	adds	r1, #255	@ 0xff
10003536:	7191      	strb	r1, [r2, #6]
10003538:	4917      	ldr	r1, [pc, #92]	@ (10003598 <irq_remove_handler+0x1ac>)
1000353a:	8091      	strh	r1, [r2, #4]
1000353c:	4915      	ldr	r1, [pc, #84]	@ (10003594 <irq_remove_handler+0x1a8>)
1000353e:	780a      	ldrb	r2, [r1, #0]
10003540:	719a      	strb	r2, [r3, #6]
10003542:	4a16      	ldr	r2, [pc, #88]	@ (1000359c <irq_remove_handler+0x1b0>)
10003544:	1b9b      	subs	r3, r3, r6
10003546:	415b      	adcs	r3, r3
10003548:	435a      	muls	r2, r3
1000354a:	0d12      	lsrs	r2, r2, #20
1000354c:	700a      	strb	r2, [r1, #0]
1000354e:	e799      	b.n	10003484 <irq_remove_handler+0x98>
10003550:	4913      	ldr	r1, [pc, #76]	@ (100035a0 <irq_remove_handler+0x1b4>)
10003552:	e7e2      	b.n	1000351a <irq_remove_handler+0x12e>
10003554:	2006      	movs	r0, #6
10003556:	5610      	ldrsb	r0, [r2, r0]
10003558:	0013      	movs	r3, r2
1000355a:	2800      	cmp	r0, #0
1000355c:	dac4      	bge.n	100034e8 <irq_remove_handler+0xfc>
1000355e:	4a11      	ldr	r2, [pc, #68]	@ (100035a4 <irq_remove_handler+0x1b8>)
10003560:	4911      	ldr	r1, [pc, #68]	@ (100035a8 <irq_remove_handler+0x1bc>)
10003562:	1ad2      	subs	r2, r2, r3
10003564:	3a08      	subs	r2, #8
10003566:	0250      	lsls	r0, r2, #9
10003568:	0d40      	lsrs	r0, r0, #21
1000356a:	4301      	orrs	r1, r0
1000356c:	8099      	strh	r1, [r3, #4]
1000356e:	490f      	ldr	r1, [pc, #60]	@ (100035ac <irq_remove_handler+0x1c0>)
10003570:	0852      	lsrs	r2, r2, #1
10003572:	430a      	orrs	r2, r1
10003574:	80da      	strh	r2, [r3, #6]
10003576:	e785      	b.n	10003484 <irq_remove_handler+0x98>
10003578:	d0000124 	.word	0xd0000124
1000357c:	e000ed00 	.word	0xe000ed00
10003580:	100001cd 	.word	0x100001cd
10003584:	200001a4 	.word	0x200001a4
10003588:	e000e100 	.word	0xe000e100
1000358c:	e000e180 	.word	0xe000e180
10003590:	e000e280 	.word	0xe000e280
10003594:	200261b3 	.word	0x200261b3
10003598:	ffffbd01 	.word	0xffffbd01
1000359c:	0000aaaa 	.word	0x0000aaaa
100035a0:	0000bd01 	.word	0x0000bd01
100035a4:	200001de 	.word	0x200001de
100035a8:	fffff000 	.word	0xfffff000
100035ac:	fffff800 	.word	0xfffff800

100035b0 <irq_add_tail_to_free_list>:
100035b0:	b570      	push	{r4, r5, r6, lr}
100035b2:	f3ef 8105 	mrs	r1, IPSR
100035b6:	2401      	movs	r4, #1
100035b8:	4304      	orrs	r4, r0
100035ba:	f3ef 8c10 	mrs	ip, PRIMASK
100035be:	b672      	cpsid	i
100035c0:	4a21      	ldr	r2, [pc, #132]	@ (10003648 <irq_add_tail_to_free_list+0x98>)
100035c2:	6813      	ldr	r3, [r2, #0]
100035c4:	2b00      	cmp	r3, #0
100035c6:	d0fc      	beq.n	100035c2 <irq_add_tail_to_free_list+0x12>
100035c8:	f3bf 8f5f 	dmb	sy
100035cc:	4b1f      	ldr	r3, [pc, #124]	@ (1000364c <irq_add_tail_to_free_list+0x9c>)
100035ce:	0005      	movs	r5, r0
100035d0:	4a1f      	ldr	r2, [pc, #124]	@ (10003650 <irq_add_tail_to_free_list+0xa0>)
100035d2:	1aed      	subs	r5, r5, r3
100035d4:	416d      	adcs	r5, r5
100035d6:	436a      	muls	r2, r5
100035d8:	0d12      	lsrs	r2, r2, #20
100035da:	4d1e      	ldr	r5, [pc, #120]	@ (10003654 <irq_add_tail_to_free_list+0xa4>)
100035dc:	0089      	lsls	r1, r1, #2
100035de:	68ae      	ldr	r6, [r5, #8]
100035e0:	b252      	sxtb	r2, r2
100035e2:	5876      	ldr	r6, [r6, r1]
100035e4:	42a6      	cmp	r6, r4
100035e6:	d01c      	beq.n	10003622 <irq_add_tail_to_free_list+0x72>
100035e8:	2106      	movs	r1, #6
100035ea:	5659      	ldrsb	r1, [r3, r1]
100035ec:	4291      	cmp	r1, r2
100035ee:	d01c      	beq.n	1000362a <irq_add_tail_to_free_list+0x7a>
100035f0:	2112      	movs	r1, #18
100035f2:	5659      	ldrsb	r1, [r3, r1]
100035f4:	4291      	cmp	r1, r2
100035f6:	d022      	beq.n	1000363e <irq_add_tail_to_free_list+0x8e>
100035f8:	211e      	movs	r1, #30
100035fa:	5659      	ldrsb	r1, [r3, r1]
100035fc:	4291      	cmp	r1, r2
100035fe:	d020      	beq.n	10003642 <irq_add_tail_to_free_list+0x92>
10003600:	212a      	movs	r1, #42	@ 0x2a
10003602:	5659      	ldrsb	r1, [r3, r1]
10003604:	2403      	movs	r4, #3
10003606:	4291      	cmp	r1, r2
10003608:	d010      	beq.n	1000362c <irq_add_tail_to_free_list+0x7c>
1000360a:	4b13      	ldr	r3, [pc, #76]	@ (10003658 <irq_add_tail_to_free_list+0xa8>)
1000360c:	7819      	ldrb	r1, [r3, #0]
1000360e:	701a      	strb	r2, [r3, #0]
10003610:	7181      	strb	r1, [r0, #6]
10003612:	f3bf 8f5f 	dmb	sy
10003616:	2200      	movs	r2, #0
10003618:	4b0b      	ldr	r3, [pc, #44]	@ (10003648 <irq_add_tail_to_free_list+0x98>)
1000361a:	601a      	str	r2, [r3, #0]
1000361c:	f38c 8810 	msr	PRIMASK, ip
10003620:	bd70      	pop	{r4, r5, r6, pc}
10003622:	68ab      	ldr	r3, [r5, #8]
10003624:	4c0d      	ldr	r4, [pc, #52]	@ (1000365c <irq_add_tail_to_free_list+0xac>)
10003626:	505c      	str	r4, [r3, r1]
10003628:	e7ef      	b.n	1000360a <irq_add_tail_to_free_list+0x5a>
1000362a:	2400      	movs	r4, #0
1000362c:	0061      	lsls	r1, r4, #1
1000362e:	1909      	adds	r1, r1, r4
10003630:	0089      	lsls	r1, r1, #2
10003632:	185b      	adds	r3, r3, r1
10003634:	21ff      	movs	r1, #255	@ 0xff
10003636:	7199      	strb	r1, [r3, #6]
10003638:	4909      	ldr	r1, [pc, #36]	@ (10003660 <irq_add_tail_to_free_list+0xb0>)
1000363a:	8099      	strh	r1, [r3, #4]
1000363c:	e7e5      	b.n	1000360a <irq_add_tail_to_free_list+0x5a>
1000363e:	2401      	movs	r4, #1
10003640:	e7f4      	b.n	1000362c <irq_add_tail_to_free_list+0x7c>
10003642:	2402      	movs	r4, #2
10003644:	e7f2      	b.n	1000362c <irq_add_tail_to_free_list+0x7c>
10003646:	46c0      	nop			@ (mov r8, r8)
10003648:	d0000124 	.word	0xd0000124
1000364c:	200001a4 	.word	0x200001a4
10003650:	0000aaaa 	.word	0x0000aaaa
10003654:	e000ed00 	.word	0xe000ed00
10003658:	200261b3 	.word	0x200261b3
1000365c:	100001cd 	.word	0x100001cd
10003660:	ffffbd01 	.word	0xffffbd01

10003664 <irq_init_priorities>:
10003664:	4b05      	ldr	r3, [pc, #20]	@ (1000367c <irq_init_priorities+0x18>)
10003666:	4a06      	ldr	r2, [pc, #24]	@ (10003680 <irq_init_priorities+0x1c>)
10003668:	6013      	str	r3, [r2, #0]
1000366a:	4a06      	ldr	r2, [pc, #24]	@ (10003684 <irq_init_priorities+0x20>)
1000366c:	6013      	str	r3, [r2, #0]
1000366e:	6053      	str	r3, [r2, #4]
10003670:	6093      	str	r3, [r2, #8]
10003672:	60d3      	str	r3, [r2, #12]
10003674:	6113      	str	r3, [r2, #16]
10003676:	6153      	str	r3, [r2, #20]
10003678:	6193      	str	r3, [r2, #24]
1000367a:	4770      	bx	lr
1000367c:	80808080 	.word	0x80808080
10003680:	e000e400 	.word	0xe000e400
10003684:	e000e404 	.word	0xe000e404

10003688 <lock_init>:
10003688:	4b02      	ldr	r3, [pc, #8]	@ (10003694 <lock_init+0xc>)
1000368a:	469c      	mov	ip, r3
1000368c:	4461      	add	r1, ip
1000368e:	0089      	lsls	r1, r1, #2
10003690:	6001      	str	r1, [r0, #0]
10003692:	4770      	bx	lr
10003694:	34000040 	.word	0x34000040

10003698 <mutex_init>:
10003698:	b510      	push	{r4, lr}
1000369a:	0004      	movs	r4, r0
1000369c:	f7ff fe4a 	bl	10003334 <next_striped_spin_lock_num>
100036a0:	0001      	movs	r1, r0
100036a2:	0020      	movs	r0, r4
100036a4:	f7ff fff0 	bl	10003688 <lock_init>
100036a8:	23ff      	movs	r3, #255	@ 0xff
100036aa:	7123      	strb	r3, [r4, #4]
100036ac:	f3bf 8f5f 	dmb	sy
100036b0:	bd10      	pop	{r4, pc}
100036b2:	46c0      	nop			@ (mov r8, r8)

100036b4 <recursive_mutex_init>:
100036b4:	b510      	push	{r4, lr}
100036b6:	0004      	movs	r4, r0
100036b8:	f7ff fe3c 	bl	10003334 <next_striped_spin_lock_num>
100036bc:	0001      	movs	r1, r0
100036be:	0020      	movs	r0, r4
100036c0:	f7ff ffe2 	bl	10003688 <lock_init>
100036c4:	23ff      	movs	r3, #255	@ 0xff
100036c6:	80a3      	strh	r3, [r4, #4]
100036c8:	f3bf 8f5f 	dmb	sy
100036cc:	bd10      	pop	{r4, pc}
100036ce:	46c0      	nop			@ (mov r8, r8)

100036d0 <timer_pool_entry_comparator>:
100036d0:	6883      	ldr	r3, [r0, #8]
100036d2:	480b      	ldr	r0, [pc, #44]	@ (10003700 <timer_pool_entry_comparator+0x30>)
100036d4:	b510      	push	{r4, lr}
100036d6:	4684      	mov	ip, r0
100036d8:	4461      	add	r1, ip
100036da:	4462      	add	r2, ip
100036dc:	0112      	lsls	r2, r2, #4
100036de:	0109      	lsls	r1, r1, #4
100036e0:	1859      	adds	r1, r3, r1
100036e2:	189b      	adds	r3, r3, r2
100036e4:	685c      	ldr	r4, [r3, #4]
100036e6:	684a      	ldr	r2, [r1, #4]
100036e8:	2001      	movs	r0, #1
100036ea:	4294      	cmp	r4, r2
100036ec:	d801      	bhi.n	100036f2 <timer_pool_entry_comparator+0x22>
100036ee:	d002      	beq.n	100036f6 <timer_pool_entry_comparator+0x26>
100036f0:	2000      	movs	r0, #0
100036f2:	b2c0      	uxtb	r0, r0
100036f4:	bd10      	pop	{r4, pc}
100036f6:	681a      	ldr	r2, [r3, #0]
100036f8:	680b      	ldr	r3, [r1, #0]
100036fa:	429a      	cmp	r2, r3
100036fc:	d8f9      	bhi.n	100036f2 <timer_pool_entry_comparator+0x22>
100036fe:	e7f7      	b.n	100036f0 <timer_pool_entry_comparator+0x20>
10003700:	0fffffff 	.word	0x0fffffff

10003704 <sleep_until_callback>:
10003704:	4b0a      	ldr	r3, [pc, #40]	@ (10003730 <sleep_until_callback+0x2c>)
10003706:	6819      	ldr	r1, [r3, #0]
10003708:	f3ef 8010 	mrs	r0, PRIMASK
1000370c:	b672      	cpsid	i
1000370e:	680a      	ldr	r2, [r1, #0]
10003710:	2a00      	cmp	r2, #0
10003712:	d0fc      	beq.n	1000370e <sleep_until_callback+0xa>
10003714:	f3bf 8f5f 	dmb	sy
10003718:	681b      	ldr	r3, [r3, #0]
1000371a:	f3bf 8f5f 	dmb	sy
1000371e:	2200      	movs	r2, #0
10003720:	601a      	str	r2, [r3, #0]
10003722:	f380 8810 	msr	PRIMASK, r0
10003726:	bf40      	sev
10003728:	2000      	movs	r0, #0
1000372a:	2100      	movs	r1, #0
1000372c:	4770      	bx	lr
1000372e:	46c0      	nop			@ (mov r8, r8)
10003730:	200008c8 	.word	0x200008c8

10003734 <add_alarm_under_lock.isra.0>:
10003734:	b5f8      	push	{r3, r4, r5, r6, r7, lr}
10003736:	4657      	mov	r7, sl
10003738:	4645      	mov	r5, r8
1000373a:	464e      	mov	r6, r9
1000373c:	46de      	mov	lr, fp
1000373e:	b5e0      	push	{r5, r6, r7, lr}
10003740:	4698      	mov	r8, r3
10003742:	ab0c      	add	r3, sp, #48	@ 0x30
10003744:	781c      	ldrb	r4, [r3, #0]
10003746:	ab0d      	add	r3, sp, #52	@ 0x34
10003748:	781b      	ldrb	r3, [r3, #0]
1000374a:	0007      	movs	r7, r0
1000374c:	4691      	mov	r9, r2
1000374e:	469a      	mov	sl, r3
10003750:	6805      	ldr	r5, [r0, #0]
10003752:	2c00      	cmp	r4, #0
10003754:	d15a      	bne.n	1000380c <add_alarm_under_lock.isra.0+0xd8>
10003756:	7bac      	ldrb	r4, [r5, #14]
10003758:	2c00      	cmp	r4, #0
1000375a:	d03b      	beq.n	100037d4 <add_alarm_under_lock.isra.0+0xa0>
1000375c:	0066      	lsls	r6, r4, #1
1000375e:	6829      	ldr	r1, [r5, #0]
10003760:	1936      	adds	r6, r6, r4
10003762:	3e03      	subs	r6, #3
10003764:	1989      	adds	r1, r1, r6
10003766:	784b      	ldrb	r3, [r1, #1]
10003768:	73ab      	strb	r3, [r5, #14]
1000376a:	2b00      	cmp	r3, #0
1000376c:	d100      	bne.n	10003770 <add_alarm_under_lock.isra.0+0x3c>
1000376e:	73eb      	strb	r3, [r5, #15]
10003770:	2300      	movs	r3, #0
10003772:	708b      	strb	r3, [r1, #2]
10003774:	704b      	strb	r3, [r1, #1]
10003776:	700b      	strb	r3, [r1, #0]
10003778:	4b2b      	ldr	r3, [pc, #172]	@ (10003828 <add_alarm_under_lock.isra.0+0xf4>)
1000377a:	18e2      	adds	r2, r4, r3
1000377c:	68bb      	ldr	r3, [r7, #8]
1000377e:	0112      	lsls	r2, r2, #4
10003780:	189b      	adds	r3, r3, r2
10003782:	464a      	mov	r2, r9
10003784:	601a      	str	r2, [r3, #0]
10003786:	4642      	mov	r2, r8
10003788:	605a      	str	r2, [r3, #4]
1000378a:	9a0a      	ldr	r2, [sp, #40]	@ 0x28
1000378c:	609a      	str	r2, [r3, #8]
1000378e:	9a0b      	ldr	r2, [sp, #44]	@ 0x2c
10003790:	60da      	str	r2, [r3, #12]
10003792:	2300      	movs	r3, #0
10003794:	708b      	strb	r3, [r1, #2]
10003796:	704b      	strb	r3, [r1, #1]
10003798:	700b      	strb	r3, [r1, #0]
1000379a:	7b6b      	ldrb	r3, [r5, #13]
1000379c:	469b      	mov	fp, r3
1000379e:	2b00      	cmp	r3, #0
100037a0:	d027      	beq.n	100037f2 <add_alarm_under_lock.isra.0+0xbe>
100037a2:	0022      	movs	r2, r4
100037a4:	686b      	ldr	r3, [r5, #4]
100037a6:	4659      	mov	r1, fp
100037a8:	68a8      	ldr	r0, [r5, #8]
100037aa:	4798      	blx	r3
100037ac:	465b      	mov	r3, fp
100037ae:	005b      	lsls	r3, r3, #1
100037b0:	445b      	add	r3, fp
100037b2:	682a      	ldr	r2, [r5, #0]
100037b4:	3b03      	subs	r3, #3
100037b6:	2800      	cmp	r0, #0
100037b8:	d012      	beq.n	100037e0 <add_alarm_under_lock.isra.0+0xac>
100037ba:	4658      	mov	r0, fp
100037bc:	1996      	adds	r6, r2, r6
100037be:	70b0      	strb	r0, [r6, #2]
100037c0:	18d1      	adds	r1, r2, r3
100037c2:	5cd3      	ldrb	r3, [r2, r3]
100037c4:	2b00      	cmp	r3, #0
100037c6:	d000      	beq.n	100037ca <add_alarm_under_lock.isra.0+0x96>
100037c8:	7073      	strb	r3, [r6, #1]
100037ca:	465b      	mov	r3, fp
100037cc:	700c      	strb	r4, [r1, #0]
100037ce:	736b      	strb	r3, [r5, #13]
100037d0:	455c      	cmp	r4, fp
100037d2:	d00f      	beq.n	100037f4 <add_alarm_under_lock.isra.0+0xc0>
100037d4:	bcf0      	pop	{r4, r5, r6, r7}
100037d6:	46bb      	mov	fp, r7
100037d8:	46b2      	mov	sl, r6
100037da:	46a9      	mov	r9, r5
100037dc:	46a0      	mov	r8, r4
100037de:	bdf8      	pop	{r3, r4, r5, r6, r7, pc}
100037e0:	18d3      	adds	r3, r2, r3
100037e2:	709c      	strb	r4, [r3, #2]
100037e4:	1991      	adds	r1, r2, r6
100037e6:	5d92      	ldrb	r2, [r2, r6]
100037e8:	2a00      	cmp	r2, #0
100037ea:	d000      	beq.n	100037ee <add_alarm_under_lock.isra.0+0xba>
100037ec:	705a      	strb	r2, [r3, #1]
100037ee:	465b      	mov	r3, fp
100037f0:	700b      	strb	r3, [r1, #0]
100037f2:	736c      	strb	r4, [r5, #13]
100037f4:	464a      	mov	r2, r9
100037f6:	4643      	mov	r3, r8
100037f8:	7d38      	ldrb	r0, [r7, #20]
100037fa:	f000 fb3f 	bl	10003e7c <hardware_alarm_set_target>
100037fe:	1e05      	subs	r5, r0, #0
10003800:	d10a      	bne.n	10003818 <add_alarm_under_lock.isra.0+0xe4>
10003802:	9b0e      	ldr	r3, [sp, #56]	@ 0x38
10003804:	2b00      	cmp	r3, #0
10003806:	d0e5      	beq.n	100037d4 <add_alarm_under_lock.isra.0+0xa0>
10003808:	701d      	strb	r5, [r3, #0]
1000380a:	e7e3      	b.n	100037d4 <add_alarm_under_lock.isra.0+0xa0>
1000380c:	0066      	lsls	r6, r4, #1
1000380e:	6829      	ldr	r1, [r5, #0]
10003810:	1936      	adds	r6, r6, r4
10003812:	3e03      	subs	r6, #3
10003814:	1989      	adds	r1, r1, r6
10003816:	e7af      	b.n	10003778 <add_alarm_under_lock.isra.0+0x44>
10003818:	4653      	mov	r3, sl
1000381a:	2b00      	cmp	r3, #0
1000381c:	d1f1      	bne.n	10003802 <add_alarm_under_lock.isra.0+0xce>
1000381e:	0021      	movs	r1, r4
10003820:	6838      	ldr	r0, [r7, #0]
10003822:	f000 fd43 	bl	100042ac <ph_remove_and_free_node>
10003826:	e7ec      	b.n	10003802 <add_alarm_under_lock.isra.0+0xce>
10003828:	0fffffff 	.word	0x0fffffff

1000382c <alarm_pool_alarm_callback>:
1000382c:	b5f0      	push	{r4, r5, r6, r7, lr}
1000382e:	46de      	mov	lr, fp
10003830:	4657      	mov	r7, sl
10003832:	464e      	mov	r6, r9
10003834:	4645      	mov	r5, r8
10003836:	2300      	movs	r3, #0
10003838:	b5e0      	push	{r5, r6, r7, lr}
1000383a:	b08b      	sub	sp, #44	@ 0x2c
1000383c:	9308      	str	r3, [sp, #32]
1000383e:	4b68      	ldr	r3, [pc, #416]	@ (100039e0 <alarm_pool_alarm_callback+0x1b4>)
10003840:	0082      	lsls	r2, r0, #2
10003842:	58d4      	ldr	r4, [r2, r3]
10003844:	2300      	movs	r3, #0
10003846:	469b      	mov	fp, r3
10003848:	9009      	str	r0, [sp, #36]	@ 0x24
1000384a:	f000 fa93 	bl	10003d74 <time_us_64>
1000384e:	0002      	movs	r2, r0
10003850:	000b      	movs	r3, r1
10003852:	6860      	ldr	r0, [r4, #4]
10003854:	f3ef 8a10 	mrs	sl, PRIMASK
10003858:	b672      	cpsid	i
1000385a:	4656      	mov	r6, sl
1000385c:	6801      	ldr	r1, [r0, #0]
1000385e:	2900      	cmp	r1, #0
10003860:	d0fc      	beq.n	1000385c <alarm_pool_alarm_callback+0x30>
10003862:	46b2      	mov	sl, r6
10003864:	f3bf 8f5f 	dmb	sy
10003868:	6821      	ldr	r1, [r4, #0]
1000386a:	7b4f      	ldrb	r7, [r1, #13]
1000386c:	468c      	mov	ip, r1
1000386e:	2f00      	cmp	r7, #0
10003870:	d02e      	beq.n	100038d0 <alarm_pool_alarm_callback+0xa4>
10003872:	68a5      	ldr	r5, [r4, #8]
10003874:	495b      	ldr	r1, [pc, #364]	@ (100039e4 <alarm_pool_alarm_callback+0x1b8>)
10003876:	46a9      	mov	r9, r5
10003878:	1879      	adds	r1, r7, r1
1000387a:	0109      	lsls	r1, r1, #4
1000387c:	4489      	add	r9, r1
1000387e:	4649      	mov	r1, r9
10003880:	6808      	ldr	r0, [r1, #0]
10003882:	6849      	ldr	r1, [r1, #4]
10003884:	0005      	movs	r5, r0
10003886:	000e      	movs	r6, r1
10003888:	1aad      	subs	r5, r5, r2
1000388a:	419e      	sbcs	r6, r3
1000388c:	2e00      	cmp	r6, #0
1000388e:	dd5f      	ble.n	10003950 <alarm_pool_alarm_callback+0x124>
10003890:	0002      	movs	r2, r0
10003892:	000b      	movs	r3, r1
10003894:	9809      	ldr	r0, [sp, #36]	@ 0x24
10003896:	f000 faf1 	bl	10003e7c <hardware_alarm_set_target>
1000389a:	2300      	movs	r3, #0
1000389c:	2200      	movs	r2, #0
1000389e:	4699      	mov	r9, r3
100038a0:	2300      	movs	r3, #0
100038a2:	9206      	str	r2, [sp, #24]
100038a4:	9307      	str	r3, [sp, #28]
100038a6:	2300      	movs	r3, #0
100038a8:	4698      	mov	r8, r3
100038aa:	6863      	ldr	r3, [r4, #4]
100038ac:	f3bf 8f5f 	dmb	sy
100038b0:	465a      	mov	r2, fp
100038b2:	601a      	str	r2, [r3, #0]
100038b4:	f38a 8810 	msr	PRIMASK, sl
100038b8:	4643      	mov	r3, r8
100038ba:	2b00      	cmp	r3, #0
100038bc:	d112      	bne.n	100038e4 <alarm_pool_alarm_callback+0xb8>
100038be:	2800      	cmp	r0, #0
100038c0:	d1c3      	bne.n	1000384a <alarm_pool_alarm_callback+0x1e>
100038c2:	b00b      	add	sp, #44	@ 0x2c
100038c4:	bcf0      	pop	{r4, r5, r6, r7}
100038c6:	46bb      	mov	fp, r7
100038c8:	46b2      	mov	sl, r6
100038ca:	46a9      	mov	r9, r5
100038cc:	46a0      	mov	r8, r4
100038ce:	bdf0      	pop	{r4, r5, r6, r7, pc}
100038d0:	2300      	movs	r3, #0
100038d2:	2200      	movs	r2, #0
100038d4:	4699      	mov	r9, r3
100038d6:	2300      	movs	r3, #0
100038d8:	9206      	str	r2, [sp, #24]
100038da:	9307      	str	r3, [sp, #28]
100038dc:	2300      	movs	r3, #0
100038de:	2000      	movs	r0, #0
100038e0:	4698      	mov	r8, r3
100038e2:	e7e2      	b.n	100038aa <alarm_pool_alarm_callback+0x7e>
100038e4:	9b08      	ldr	r3, [sp, #32]
100038e6:	4649      	mov	r1, r9
100038e8:	0218      	lsls	r0, r3, #8
100038ea:	4338      	orrs	r0, r7
100038ec:	47c0      	blx	r8
100038ee:	6862      	ldr	r2, [r4, #4]
100038f0:	0005      	movs	r5, r0
100038f2:	000e      	movs	r6, r1
100038f4:	f3ef 8a10 	mrs	sl, PRIMASK
100038f8:	b672      	cpsid	i
100038fa:	6813      	ldr	r3, [r2, #0]
100038fc:	2b00      	cmp	r3, #0
100038fe:	d0fc      	beq.n	100038fa <alarm_pool_alarm_callback+0xce>
10003900:	f3bf 8f5f 	dmb	sy
10003904:	2e00      	cmp	r6, #0
10003906:	db41      	blt.n	1000398c <alarm_pool_alarm_callback+0x160>
10003908:	002b      	movs	r3, r5
1000390a:	4333      	orrs	r3, r6
1000390c:	d002      	beq.n	10003914 <alarm_pool_alarm_callback+0xe8>
1000390e:	6923      	ldr	r3, [r4, #16]
10003910:	2b00      	cmp	r3, #0
10003912:	d156      	bne.n	100039c2 <alarm_pool_alarm_callback+0x196>
10003914:	6823      	ldr	r3, [r4, #0]
10003916:	7bd9      	ldrb	r1, [r3, #15]
10003918:	2900      	cmp	r1, #0
1000391a:	d005      	beq.n	10003928 <alarm_pool_alarm_callback+0xfc>
1000391c:	681a      	ldr	r2, [r3, #0]
1000391e:	0048      	lsls	r0, r1, #1
10003920:	1841      	adds	r1, r0, r1
10003922:	1852      	adds	r2, r2, r1
10003924:	3a03      	subs	r2, #3
10003926:	7057      	strb	r7, [r2, #1]
10003928:	7b9a      	ldrb	r2, [r3, #14]
1000392a:	2a00      	cmp	r2, #0
1000392c:	d100      	bne.n	10003930 <alarm_pool_alarm_callback+0x104>
1000392e:	739f      	strb	r7, [r3, #14]
10003930:	73df      	strb	r7, [r3, #15]
10003932:	68e2      	ldr	r2, [r4, #12]
10003934:	3f01      	subs	r7, #1
10003936:	5dd3      	ldrb	r3, [r2, r7]
10003938:	3301      	adds	r3, #1
1000393a:	55d3      	strb	r3, [r2, r7]
1000393c:	465b      	mov	r3, fp
1000393e:	6123      	str	r3, [r4, #16]
10003940:	6863      	ldr	r3, [r4, #4]
10003942:	f3bf 8f5f 	dmb	sy
10003946:	465a      	mov	r2, fp
10003948:	601a      	str	r2, [r3, #0]
1000394a:	f38a 8810 	msr	PRIMASK, sl
1000394e:	e77c      	b.n	1000384a <alarm_pool_alarm_callback+0x1e>
10003950:	2e00      	cmp	r6, #0
10003952:	d102      	bne.n	1000395a <alarm_pool_alarm_callback+0x12e>
10003954:	2d00      	cmp	r5, #0
10003956:	d000      	beq.n	1000395a <alarm_pool_alarm_callback+0x12e>
10003958:	e79a      	b.n	10003890 <alarm_pool_alarm_callback+0x64>
1000395a:	2100      	movs	r1, #0
1000395c:	4660      	mov	r0, ip
1000395e:	f000 fc23 	bl	100041a8 <ph_remove_head>
10003962:	464b      	mov	r3, r9
10003964:	681a      	ldr	r2, [r3, #0]
10003966:	685b      	ldr	r3, [r3, #4]
10003968:	9206      	str	r2, [sp, #24]
1000396a:	9307      	str	r3, [sp, #28]
1000396c:	464b      	mov	r3, r9
1000396e:	689b      	ldr	r3, [r3, #8]
10003970:	4698      	mov	r8, r3
10003972:	464b      	mov	r3, r9
10003974:	68db      	ldr	r3, [r3, #12]
10003976:	4699      	mov	r9, r3
10003978:	68e3      	ldr	r3, [r4, #12]
1000397a:	19db      	adds	r3, r3, r7
1000397c:	3b01      	subs	r3, #1
1000397e:	781b      	ldrb	r3, [r3, #0]
10003980:	9308      	str	r3, [sp, #32]
10003982:	021b      	lsls	r3, r3, #8
10003984:	4303      	orrs	r3, r0
10003986:	6123      	str	r3, [r4, #16]
10003988:	2000      	movs	r0, #0
1000398a:	e78e      	b.n	100038aa <alarm_pool_alarm_callback+0x7e>
1000398c:	6923      	ldr	r3, [r4, #16]
1000398e:	2b00      	cmp	r3, #0
10003990:	d0c0      	beq.n	10003914 <alarm_pool_alarm_callback+0xe8>
10003992:	9a06      	ldr	r2, [sp, #24]
10003994:	9b07      	ldr	r3, [sp, #28]
10003996:	2180      	movs	r1, #128	@ 0x80
10003998:	1b52      	subs	r2, r2, r5
1000399a:	41b3      	sbcs	r3, r6
1000399c:	0609      	lsls	r1, r1, #24
1000399e:	428b      	cmp	r3, r1
100039a0:	d302      	bcc.n	100039a8 <alarm_pool_alarm_callback+0x17c>
100039a2:	2201      	movs	r2, #1
100039a4:	4b10      	ldr	r3, [pc, #64]	@ (100039e8 <alarm_pool_alarm_callback+0x1bc>)
100039a6:	4252      	negs	r2, r2
100039a8:	2100      	movs	r1, #0
100039aa:	9104      	str	r1, [sp, #16]
100039ac:	3101      	adds	r1, #1
100039ae:	9103      	str	r1, [sp, #12]
100039b0:	4649      	mov	r1, r9
100039b2:	9101      	str	r1, [sp, #4]
100039b4:	4641      	mov	r1, r8
100039b6:	0020      	movs	r0, r4
100039b8:	9702      	str	r7, [sp, #8]
100039ba:	9100      	str	r1, [sp, #0]
100039bc:	f7ff feba 	bl	10003734 <add_alarm_under_lock.isra.0>
100039c0:	e7bc      	b.n	1000393c <alarm_pool_alarm_callback+0x110>
100039c2:	f000 f9d7 	bl	10003d74 <time_us_64>
100039c6:	002a      	movs	r2, r5
100039c8:	0033      	movs	r3, r6
100039ca:	1812      	adds	r2, r2, r0
100039cc:	414b      	adcs	r3, r1
100039ce:	2180      	movs	r1, #128	@ 0x80
100039d0:	0609      	lsls	r1, r1, #24
100039d2:	428b      	cmp	r3, r1
100039d4:	d3e8      	bcc.n	100039a8 <alarm_pool_alarm_callback+0x17c>
100039d6:	2201      	movs	r2, #1
100039d8:	4b03      	ldr	r3, [pc, #12]	@ (100039e8 <alarm_pool_alarm_callback+0x1bc>)
100039da:	4252      	negs	r2, r2
100039dc:	e7e4      	b.n	100039a8 <alarm_pool_alarm_callback+0x17c>
100039de:	46c0      	nop			@ (mov r8, r8)
100039e0:	20000788 	.word	0x20000788
100039e4:	0fffffff 	.word	0x0fffffff
100039e8:	7fffffff 	.word	0x7fffffff

100039ec <alarm_pool_init_default>:
100039ec:	b510      	push	{r4, lr}
100039ee:	4c14      	ldr	r4, [pc, #80]	@ (10003a40 <alarm_pool_init_default+0x54>)
100039f0:	6863      	ldr	r3, [r4, #4]
100039f2:	2b00      	cmp	r3, #0
100039f4:	d004      	beq.n	10003a00 <alarm_pool_init_default+0x14>
100039f6:	210a      	movs	r1, #10
100039f8:	4812      	ldr	r0, [pc, #72]	@ (10003a44 <alarm_pool_init_default+0x58>)
100039fa:	f7ff fe45 	bl	10003688 <lock_init>
100039fe:	bd10      	pop	{r4, pc}
10003a00:	0023      	movs	r3, r4
10003a02:	4a11      	ldr	r2, [pc, #68]	@ (10003a48 <alarm_pool_init_default+0x5c>)
10003a04:	2110      	movs	r1, #16
10003a06:	6820      	ldr	r0, [r4, #0]
10003a08:	f000 faea 	bl	10003fe0 <ph_post_alloc_init>
10003a0c:	2003      	movs	r0, #3
10003a0e:	f000 f9a5 	bl	10003d5c <hardware_alarm_claim>
10003a12:	2003      	movs	r0, #3
10003a14:	f000 fa9a 	bl	10003f4c <hardware_alarm_cancel>
10003a18:	2003      	movs	r0, #3
10003a1a:	490c      	ldr	r1, [pc, #48]	@ (10003a4c <alarm_pool_init_default+0x60>)
10003a1c:	f000 f9e8 	bl	10003df0 <hardware_alarm_set_callback>
10003a20:	f7ff fc88 	bl	10003334 <next_striped_spin_lock_num>
10003a24:	4b0a      	ldr	r3, [pc, #40]	@ (10003a50 <alarm_pool_init_default+0x64>)
10003a26:	469c      	mov	ip, r3
10003a28:	2303      	movs	r3, #3
10003a2a:	7523      	strb	r3, [r4, #20]
10003a2c:	23d0      	movs	r3, #208	@ 0xd0
10003a2e:	061b      	lsls	r3, r3, #24
10003a30:	681b      	ldr	r3, [r3, #0]
10003a32:	4460      	add	r0, ip
10003a34:	7563      	strb	r3, [r4, #21]
10003a36:	4b07      	ldr	r3, [pc, #28]	@ (10003a54 <alarm_pool_init_default+0x68>)
10003a38:	0080      	lsls	r0, r0, #2
10003a3a:	6060      	str	r0, [r4, #4]
10003a3c:	60dc      	str	r4, [r3, #12]
10003a3e:	e7da      	b.n	100039f6 <alarm_pool_init_default+0xa>
10003a40:	200001ec 	.word	0x200001ec
10003a44:	200008c8 	.word	0x200008c8
10003a48:	100036d1 	.word	0x100036d1
10003a4c:	1000382d 	.word	0x1000382d
10003a50:	34000040 	.word	0x34000040
10003a54:	20000788 	.word	0x20000788

10003a58 <alarm_pool_add_alarm_at>:
10003a58:	b5f0      	push	{r4, r5, r6, r7, lr}
10003a5a:	4657      	mov	r7, sl
10003a5c:	464e      	mov	r6, r9
10003a5e:	4645      	mov	r5, r8
10003a60:	46de      	mov	lr, fp
10003a62:	b5e0      	push	{r5, r6, r7, lr}
10003a64:	b085      	sub	sp, #20
10003a66:	9301      	str	r3, [sp, #4]
10003a68:	ab10      	add	r3, sp, #64	@ 0x40
10003a6a:	781b      	ldrb	r3, [r3, #0]
10003a6c:	0006      	movs	r6, r0
10003a6e:	9303      	str	r3, [sp, #12]
10003a70:	2300      	movs	r3, #0
10003a72:	469a      	mov	sl, r3
10003a74:	4698      	mov	r8, r3
10003a76:	9200      	str	r2, [sp, #0]
10003a78:	6872      	ldr	r2, [r6, #4]
10003a7a:	f3ef 8b10 	mrs	fp, PRIMASK
10003a7e:	b672      	cpsid	i
10003a80:	6813      	ldr	r3, [r2, #0]
10003a82:	2b00      	cmp	r3, #0
10003a84:	d0fc      	beq.n	10003a80 <alarm_pool_add_alarm_at+0x28>
10003a86:	f3bf 8f5f 	dmb	sy
10003a8a:	6835      	ldr	r5, [r6, #0]
10003a8c:	7bac      	ldrb	r4, [r5, #14]
10003a8e:	2c00      	cmp	r4, #0
10003a90:	d100      	bne.n	10003a94 <alarm_pool_add_alarm_at+0x3c>
10003a92:	e06e      	b.n	10003b72 <alarm_pool_add_alarm_at+0x11a>
10003a94:	0067      	lsls	r7, r4, #1
10003a96:	682b      	ldr	r3, [r5, #0]
10003a98:	193f      	adds	r7, r7, r4
10003a9a:	3f03      	subs	r7, #3
10003a9c:	19db      	adds	r3, r3, r7
10003a9e:	785a      	ldrb	r2, [r3, #1]
10003aa0:	73aa      	strb	r2, [r5, #14]
10003aa2:	2a00      	cmp	r2, #0
10003aa4:	d100      	bne.n	10003aa8 <alarm_pool_add_alarm_at+0x50>
10003aa6:	73ea      	strb	r2, [r5, #15]
10003aa8:	4a48      	ldr	r2, [pc, #288]	@ (10003bcc <alarm_pool_add_alarm_at+0x174>)
10003aaa:	18a1      	adds	r1, r4, r2
10003aac:	68b2      	ldr	r2, [r6, #8]
10003aae:	0109      	lsls	r1, r1, #4
10003ab0:	1852      	adds	r2, r2, r1
10003ab2:	9800      	ldr	r0, [sp, #0]
10003ab4:	9901      	ldr	r1, [sp, #4]
10003ab6:	6010      	str	r0, [r2, #0]
10003ab8:	6051      	str	r1, [r2, #4]
10003aba:	990e      	ldr	r1, [sp, #56]	@ 0x38
10003abc:	6091      	str	r1, [r2, #8]
10003abe:	990f      	ldr	r1, [sp, #60]	@ 0x3c
10003ac0:	60d1      	str	r1, [r2, #12]
10003ac2:	4642      	mov	r2, r8
10003ac4:	709a      	strb	r2, [r3, #2]
10003ac6:	705a      	strb	r2, [r3, #1]
10003ac8:	701a      	strb	r2, [r3, #0]
10003aca:	7b6b      	ldrb	r3, [r5, #13]
10003acc:	4699      	mov	r9, r3
10003ace:	2b00      	cmp	r3, #0
10003ad0:	d100      	bne.n	10003ad4 <alarm_pool_add_alarm_at+0x7c>
10003ad2:	e06b      	b.n	10003bac <alarm_pool_add_alarm_at+0x154>
10003ad4:	0022      	movs	r2, r4
10003ad6:	686b      	ldr	r3, [r5, #4]
10003ad8:	4649      	mov	r1, r9
10003ada:	68a8      	ldr	r0, [r5, #8]
10003adc:	4798      	blx	r3
10003ade:	464b      	mov	r3, r9
10003ae0:	005b      	lsls	r3, r3, #1
10003ae2:	444b      	add	r3, r9
10003ae4:	682a      	ldr	r2, [r5, #0]
10003ae6:	3b03      	subs	r3, #3
10003ae8:	2800      	cmp	r0, #0
10003aea:	d056      	beq.n	10003b9a <alarm_pool_add_alarm_at+0x142>
10003aec:	4648      	mov	r0, r9
10003aee:	19d7      	adds	r7, r2, r7
10003af0:	70b8      	strb	r0, [r7, #2]
10003af2:	18d1      	adds	r1, r2, r3
10003af4:	5cd3      	ldrb	r3, [r2, r3]
10003af6:	2b00      	cmp	r3, #0
10003af8:	d000      	beq.n	10003afc <alarm_pool_add_alarm_at+0xa4>
10003afa:	707b      	strb	r3, [r7, #1]
10003afc:	464b      	mov	r3, r9
10003afe:	700c      	strb	r4, [r1, #0]
10003b00:	736b      	strb	r3, [r5, #13]
10003b02:	454c      	cmp	r4, r9
10003b04:	d053      	beq.n	10003bae <alarm_pool_add_alarm_at+0x156>
10003b06:	68f3      	ldr	r3, [r6, #12]
10003b08:	191b      	adds	r3, r3, r4
10003b0a:	3b01      	subs	r3, #1
10003b0c:	7818      	ldrb	r0, [r3, #0]
10003b0e:	6873      	ldr	r3, [r6, #4]
10003b10:	f3bf 8f5f 	dmb	sy
10003b14:	4642      	mov	r2, r8
10003b16:	601a      	str	r2, [r3, #0]
10003b18:	f38b 8810 	msr	PRIMASK, fp
10003b1c:	4653      	mov	r3, sl
10003b1e:	2b00      	cmp	r3, #0
10003b20:	d108      	bne.n	10003b34 <alarm_pool_add_alarm_at+0xdc>
10003b22:	0200      	lsls	r0, r0, #8
10003b24:	4320      	orrs	r0, r4
10003b26:	b005      	add	sp, #20
10003b28:	bcf0      	pop	{r4, r5, r6, r7}
10003b2a:	46bb      	mov	fp, r7
10003b2c:	46b2      	mov	sl, r6
10003b2e:	46a9      	mov	r9, r5
10003b30:	46a0      	mov	r8, r4
10003b32:	bdf0      	pop	{r4, r5, r6, r7, pc}
10003b34:	9b03      	ldr	r3, [sp, #12]
10003b36:	2b00      	cmp	r3, #0
10003b38:	d046      	beq.n	10003bc8 <alarm_pool_add_alarm_at+0x170>
10003b3a:	9b0e      	ldr	r3, [sp, #56]	@ 0x38
10003b3c:	2000      	movs	r0, #0
10003b3e:	990f      	ldr	r1, [sp, #60]	@ 0x3c
10003b40:	4798      	blx	r3
10003b42:	0003      	movs	r3, r0
10003b44:	430b      	orrs	r3, r1
10003b46:	d03f      	beq.n	10003bc8 <alarm_pool_add_alarm_at+0x170>
10003b48:	0004      	movs	r4, r0
10003b4a:	1e0d      	subs	r5, r1, #0
10003b4c:	da1a      	bge.n	10003b84 <alarm_pool_add_alarm_at+0x12c>
10003b4e:	9a00      	ldr	r2, [sp, #0]
10003b50:	9b01      	ldr	r3, [sp, #4]
10003b52:	1b12      	subs	r2, r2, r4
10003b54:	41ab      	sbcs	r3, r5
10003b56:	9200      	str	r2, [sp, #0]
10003b58:	9301      	str	r3, [sp, #4]
10003b5a:	2280      	movs	r2, #128	@ 0x80
10003b5c:	0612      	lsls	r2, r2, #24
10003b5e:	4293      	cmp	r3, r2
10003b60:	d304      	bcc.n	10003b6c <alarm_pool_add_alarm_at+0x114>
10003b62:	2301      	movs	r3, #1
10003b64:	4c1a      	ldr	r4, [pc, #104]	@ (10003bd0 <alarm_pool_add_alarm_at+0x178>)
10003b66:	425b      	negs	r3, r3
10003b68:	9300      	str	r3, [sp, #0]
10003b6a:	9401      	str	r4, [sp, #4]
10003b6c:	9b03      	ldr	r3, [sp, #12]
10003b6e:	469a      	mov	sl, r3
10003b70:	e782      	b.n	10003a78 <alarm_pool_add_alarm_at+0x20>
10003b72:	6873      	ldr	r3, [r6, #4]
10003b74:	f3bf 8f5f 	dmb	sy
10003b78:	601c      	str	r4, [r3, #0]
10003b7a:	f38b 8810 	msr	PRIMASK, fp
10003b7e:	2001      	movs	r0, #1
10003b80:	4240      	negs	r0, r0
10003b82:	e7d0      	b.n	10003b26 <alarm_pool_add_alarm_at+0xce>
10003b84:	f000 f8f6 	bl	10003d74 <time_us_64>
10003b88:	2280      	movs	r2, #128	@ 0x80
10003b8a:	1900      	adds	r0, r0, r4
10003b8c:	4169      	adcs	r1, r5
10003b8e:	0612      	lsls	r2, r2, #24
10003b90:	9000      	str	r0, [sp, #0]
10003b92:	9101      	str	r1, [sp, #4]
10003b94:	4291      	cmp	r1, r2
10003b96:	d3e9      	bcc.n	10003b6c <alarm_pool_add_alarm_at+0x114>
10003b98:	e7e3      	b.n	10003b62 <alarm_pool_add_alarm_at+0x10a>
10003b9a:	18d3      	adds	r3, r2, r3
10003b9c:	709c      	strb	r4, [r3, #2]
10003b9e:	19d1      	adds	r1, r2, r7
10003ba0:	5dd2      	ldrb	r2, [r2, r7]
10003ba2:	2a00      	cmp	r2, #0
10003ba4:	d000      	beq.n	10003ba8 <alarm_pool_add_alarm_at+0x150>
10003ba6:	705a      	strb	r2, [r3, #1]
10003ba8:	464b      	mov	r3, r9
10003baa:	700b      	strb	r3, [r1, #0]
10003bac:	736c      	strb	r4, [r5, #13]
10003bae:	7d30      	ldrb	r0, [r6, #20]
10003bb0:	9a00      	ldr	r2, [sp, #0]
10003bb2:	9b01      	ldr	r3, [sp, #4]
10003bb4:	f000 f962 	bl	10003e7c <hardware_alarm_set_target>
10003bb8:	4682      	mov	sl, r0
10003bba:	2800      	cmp	r0, #0
10003bbc:	d0a3      	beq.n	10003b06 <alarm_pool_add_alarm_at+0xae>
10003bbe:	0021      	movs	r1, r4
10003bc0:	6830      	ldr	r0, [r6, #0]
10003bc2:	f000 fb73 	bl	100042ac <ph_remove_and_free_node>
10003bc6:	e79e      	b.n	10003b06 <alarm_pool_add_alarm_at+0xae>
10003bc8:	2000      	movs	r0, #0
10003bca:	e7ac      	b.n	10003b26 <alarm_pool_add_alarm_at+0xce>
10003bcc:	0fffffff 	.word	0x0fffffff
10003bd0:	7fffffff 	.word	0x7fffffff

10003bd4 <best_effort_wfe_or_timeout>:
10003bd4:	b5f0      	push	{r4, r5, r6, r7, lr}
10003bd6:	f3ef 8305 	mrs	r3, IPSR
10003bda:	46ce      	mov	lr, r9
10003bdc:	4647      	mov	r7, r8
10003bde:	b580      	push	{r7, lr}
10003be0:	0005      	movs	r5, r0
10003be2:	000c      	movs	r4, r1
10003be4:	b085      	sub	sp, #20
10003be6:	2b00      	cmp	r3, #0
10003be8:	d012      	beq.n	10003c10 <best_effort_wfe_or_timeout+0x3c>
10003bea:	4a2a      	ldr	r2, [pc, #168]	@ (10003c94 <best_effort_wfe_or_timeout+0xc0>)
10003bec:	2000      	movs	r0, #0
10003bee:	6a53      	ldr	r3, [r2, #36]	@ 0x24
10003bf0:	42a3      	cmp	r3, r4
10003bf2:	d303      	bcc.n	10003bfc <best_effort_wfe_or_timeout+0x28>
10003bf4:	6a92      	ldr	r2, [r2, #40]	@ 0x28
10003bf6:	3001      	adds	r0, #1
10003bf8:	42aa      	cmp	r2, r5
10003bfa:	d304      	bcc.n	10003c06 <best_effort_wfe_or_timeout+0x32>
10003bfc:	b005      	add	sp, #20
10003bfe:	bcc0      	pop	{r6, r7}
10003c00:	46b9      	mov	r9, r7
10003c02:	46b0      	mov	r8, r6
10003c04:	bdf0      	pop	{r4, r5, r6, r7, pc}
10003c06:	1b1b      	subs	r3, r3, r4
10003c08:	1e5a      	subs	r2, r3, #1
10003c0a:	4193      	sbcs	r3, r2
10003c0c:	b2d8      	uxtb	r0, r3
10003c0e:	e7f5      	b.n	10003bfc <best_effort_wfe_or_timeout+0x28>
10003c10:	4e21      	ldr	r6, [pc, #132]	@ (10003c98 <best_effort_wfe_or_timeout+0xc4>)
10003c12:	9302      	str	r3, [sp, #8]
10003c14:	9301      	str	r3, [sp, #4]
10003c16:	4b21      	ldr	r3, [pc, #132]	@ (10003c9c <best_effort_wfe_or_timeout+0xc8>)
10003c18:	0002      	movs	r2, r0
10003c1a:	9300      	str	r3, [sp, #0]
10003c1c:	0030      	movs	r0, r6
10003c1e:	000b      	movs	r3, r1
10003c20:	f7ff ff1a 	bl	10003a58 <alarm_pool_add_alarm_at>
10003c24:	1e03      	subs	r3, r0, #0
10003c26:	dde0      	ble.n	10003bea <best_effort_wfe_or_timeout+0x16>
10003c28:	bf20      	wfe
10003c2a:	6871      	ldr	r1, [r6, #4]
10003c2c:	f3ef 8710 	mrs	r7, PRIMASK
10003c30:	b672      	cpsid	i
10003c32:	680a      	ldr	r2, [r1, #0]
10003c34:	2a00      	cmp	r2, #0
10003c36:	d0fc      	beq.n	10003c32 <best_effort_wfe_or_timeout+0x5e>
10003c38:	f3bf 8f5f 	dmb	sy
10003c3c:	b2da      	uxtb	r2, r3
10003c3e:	4694      	mov	ip, r2
10003c40:	22ff      	movs	r2, #255	@ 0xff
10003c42:	6830      	ldr	r0, [r6, #0]
10003c44:	401a      	ands	r2, r3
10003c46:	7b41      	ldrb	r1, [r0, #13]
10003c48:	4561      	cmp	r1, ip
10003c4a:	d00f      	beq.n	10003c6c <best_effort_wfe_or_timeout+0x98>
10003c4c:	6801      	ldr	r1, [r0, #0]
10003c4e:	4689      	mov	r9, r1
10003c50:	0051      	lsls	r1, r2, #1
10003c52:	4688      	mov	r8, r1
10003c54:	4649      	mov	r1, r9
10003c56:	4490      	add	r8, r2
10003c58:	4441      	add	r1, r8
10003c5a:	3903      	subs	r1, #3
10003c5c:	7889      	ldrb	r1, [r1, #2]
10003c5e:	2900      	cmp	r1, #0
10003c60:	d104      	bne.n	10003c6c <best_effort_wfe_or_timeout+0x98>
10003c62:	6932      	ldr	r2, [r6, #16]
10003c64:	4293      	cmp	r3, r2
10003c66:	d109      	bne.n	10003c7c <best_effort_wfe_or_timeout+0xa8>
10003c68:	6131      	str	r1, [r6, #16]
10003c6a:	e007      	b.n	10003c7c <best_effort_wfe_or_timeout+0xa8>
10003c6c:	68f1      	ldr	r1, [r6, #12]
10003c6e:	0a1b      	lsrs	r3, r3, #8
10003c70:	188a      	adds	r2, r1, r2
10003c72:	3a01      	subs	r2, #1
10003c74:	7812      	ldrb	r2, [r2, #0]
10003c76:	b2db      	uxtb	r3, r3
10003c78:	429a      	cmp	r2, r3
10003c7a:	d007      	beq.n	10003c8c <best_effort_wfe_or_timeout+0xb8>
10003c7c:	6873      	ldr	r3, [r6, #4]
10003c7e:	f3bf 8f5f 	dmb	sy
10003c82:	2200      	movs	r2, #0
10003c84:	601a      	str	r2, [r3, #0]
10003c86:	f387 8810 	msr	PRIMASK, r7
10003c8a:	e7ae      	b.n	10003bea <best_effort_wfe_or_timeout+0x16>
10003c8c:	4661      	mov	r1, ip
10003c8e:	f000 fb0d 	bl	100042ac <ph_remove_and_free_node>
10003c92:	e7f3      	b.n	10003c7c <best_effort_wfe_or_timeout+0xa8>
10003c94:	40054000 	.word	0x40054000
10003c98:	200001ec 	.word	0x200001ec
10003c9c:	10003705 	.word	0x10003705

10003ca0 <hardware_alarm_irq_handler>:
10003ca0:	b5f0      	push	{r4, r5, r6, r7, lr}
10003ca2:	f3ef 8205 	mrs	r2, IPSR
10003ca6:	46d6      	mov	lr, sl
10003ca8:	464f      	mov	r7, r9
10003caa:	4646      	mov	r6, r8
10003cac:	0010      	movs	r0, r2
10003cae:	b5c0      	push	{r6, r7, lr}
10003cb0:	3810      	subs	r0, #16
10003cb2:	f3ef 8810 	mrs	r8, PRIMASK
10003cb6:	b672      	cpsid	i
10003cb8:	4c21      	ldr	r4, [pc, #132]	@ (10003d40 <hardware_alarm_irq_handler+0xa0>)
10003cba:	6823      	ldr	r3, [r4, #0]
10003cbc:	2b00      	cmp	r3, #0
10003cbe:	d0fc      	beq.n	10003cba <hardware_alarm_irq_handler+0x1a>
10003cc0:	f3bf 8f5f 	dmb	sy
10003cc4:	2301      	movs	r3, #1
10003cc6:	0019      	movs	r1, r3
10003cc8:	4081      	lsls	r1, r0
10003cca:	4d1e      	ldr	r5, [pc, #120]	@ (10003d44 <hardware_alarm_irq_handler+0xa4>)
10003ccc:	001f      	movs	r7, r3
10003cce:	6369      	str	r1, [r5, #52]	@ 0x34
10003cd0:	46aa      	mov	sl, r5
10003cd2:	4d1d      	ldr	r5, [pc, #116]	@ (10003d48 <hardware_alarm_irq_handler+0xa8>)
10003cd4:	6029      	str	r1, [r5, #0]
10003cd6:	4d1d      	ldr	r5, [pc, #116]	@ (10003d4c <hardware_alarm_irq_handler+0xac>)
10003cd8:	782e      	ldrb	r6, [r5, #0]
10003cda:	46ac      	mov	ip, r5
10003cdc:	0035      	movs	r5, r6
10003cde:	40c5      	lsrs	r5, r0
10003ce0:	402f      	ands	r7, r5
10003ce2:	422b      	tst	r3, r5
10003ce4:	d015      	beq.n	10003d12 <hardware_alarm_irq_handler+0x72>
10003ce6:	4653      	mov	r3, sl
10003ce8:	6a5f      	ldr	r7, [r3, #36]	@ 0x24
10003cea:	4b19      	ldr	r3, [pc, #100]	@ (10003d50 <hardware_alarm_irq_handler+0xb0>)
10003cec:	0085      	lsls	r5, r0, #2
10003cee:	58eb      	ldr	r3, [r5, r3]
10003cf0:	429f      	cmp	r7, r3
10003cf2:	d318      	bcc.n	10003d26 <hardware_alarm_irq_handler+0x86>
10003cf4:	4662      	mov	r2, ip
10003cf6:	4b17      	ldr	r3, [pc, #92]	@ (10003d54 <hardware_alarm_irq_handler+0xb4>)
10003cf8:	438e      	bics	r6, r1
10003cfa:	58eb      	ldr	r3, [r5, r3]
10003cfc:	7016      	strb	r6, [r2, #0]
10003cfe:	f3bf 8f5f 	dmb	sy
10003d02:	2200      	movs	r2, #0
10003d04:	6022      	str	r2, [r4, #0]
10003d06:	f388 8810 	msr	PRIMASK, r8
10003d0a:	2b00      	cmp	r3, #0
10003d0c:	d006      	beq.n	10003d1c <hardware_alarm_irq_handler+0x7c>
10003d0e:	4798      	blx	r3
10003d10:	e004      	b.n	10003d1c <hardware_alarm_irq_handler+0x7c>
10003d12:	f3bf 8f5f 	dmb	sy
10003d16:	6027      	str	r7, [r4, #0]
10003d18:	f388 8810 	msr	PRIMASK, r8
10003d1c:	bce0      	pop	{r5, r6, r7}
10003d1e:	46ba      	mov	sl, r7
10003d20:	46b1      	mov	r9, r6
10003d22:	46a8      	mov	r8, r5
10003d24:	bdf0      	pop	{r4, r5, r6, r7, pc}
10003d26:	4b0c      	ldr	r3, [pc, #48]	@ (10003d58 <hardware_alarm_irq_handler+0xb8>)
10003d28:	0092      	lsls	r2, r2, #2
10003d2a:	469c      	mov	ip, r3
10003d2c:	4462      	add	r2, ip
10003d2e:	6813      	ldr	r3, [r2, #0]
10003d30:	6013      	str	r3, [r2, #0]
10003d32:	f3bf 8f5f 	dmb	sy
10003d36:	2300      	movs	r3, #0
10003d38:	6023      	str	r3, [r4, #0]
10003d3a:	f388 8810 	msr	PRIMASK, r8
10003d3e:	e7ed      	b.n	10003d1c <hardware_alarm_irq_handler+0x7c>
10003d40:	d0000128 	.word	0xd0000128
10003d44:	40054000 	.word	0x40054000
10003d48:	4005703c 	.word	0x4005703c
10003d4c:	200261ba 	.word	0x200261ba
10003d50:	20000950 	.word	0x20000950
10003d54:	200005f0 	.word	0x200005f0
10003d58:	40053fd0 	.word	0x40053fd0

10003d5c <hardware_alarm_claim>:
10003d5c:	b510      	push	{r4, lr}
10003d5e:	4b03      	ldr	r3, [pc, #12]	@ (10003d6c <hardware_alarm_claim+0x10>)
10003d60:	0001      	movs	r1, r0
10003d62:	0018      	movs	r0, r3
10003d64:	4a02      	ldr	r2, [pc, #8]	@ (10003d70 <hardware_alarm_claim+0x14>)
10003d66:	f7ff fab5 	bl	100032d4 <hw_claim_or_assert>
10003d6a:	bd10      	pop	{r4, pc}
10003d6c:	200261b2 	.word	0x200261b2
10003d70:	1000868c 	.word	0x1000868c

10003d74 <time_us_64>:
10003d74:	4b03      	ldr	r3, [pc, #12]	@ (10003d84 <time_us_64+0x10>)
10003d76:	6a59      	ldr	r1, [r3, #36]	@ 0x24
10003d78:	000a      	movs	r2, r1
10003d7a:	6a98      	ldr	r0, [r3, #40]	@ 0x28
10003d7c:	6a59      	ldr	r1, [r3, #36]	@ 0x24
10003d7e:	428a      	cmp	r2, r1
10003d80:	d1fa      	bne.n	10003d78 <time_us_64+0x4>
10003d82:	4770      	bx	lr
10003d84:	40054000 	.word	0x40054000

10003d88 <busy_wait_us>:
10003d88:	b570      	push	{r4, r5, r6, lr}
10003d8a:	0004      	movs	r4, r0
10003d8c:	000d      	movs	r5, r1
10003d8e:	4a17      	ldr	r2, [pc, #92]	@ (10003dec <busy_wait_us+0x64>)
10003d90:	6a53      	ldr	r3, [r2, #36]	@ 0x24
10003d92:	0019      	movs	r1, r3
10003d94:	6a96      	ldr	r6, [r2, #40]	@ 0x28
10003d96:	6a53      	ldr	r3, [r2, #36]	@ 0x24
10003d98:	428b      	cmp	r3, r1
10003d9a:	d1fa      	bne.n	10003d92 <busy_wait_us+0xa>
10003d9c:	0030      	movs	r0, r6
10003d9e:	0019      	movs	r1, r3
10003da0:	1824      	adds	r4, r4, r0
10003da2:	414d      	adcs	r5, r1
10003da4:	42ab      	cmp	r3, r5
10003da6:	d816      	bhi.n	10003dd6 <busy_wait_us+0x4e>
10003da8:	d013      	beq.n	10003dd2 <busy_wait_us+0x4a>
10003daa:	4b10      	ldr	r3, [pc, #64]	@ (10003dec <busy_wait_us+0x64>)
10003dac:	002a      	movs	r2, r5
10003dae:	6a5b      	ldr	r3, [r3, #36]	@ 0x24
10003db0:	429d      	cmp	r5, r3
10003db2:	d903      	bls.n	10003dbc <busy_wait_us+0x34>
10003db4:	490d      	ldr	r1, [pc, #52]	@ (10003dec <busy_wait_us+0x64>)
10003db6:	6a4b      	ldr	r3, [r1, #36]	@ 0x24
10003db8:	4293      	cmp	r3, r2
10003dba:	d3fc      	bcc.n	10003db6 <busy_wait_us+0x2e>
10003dbc:	4293      	cmp	r3, r2
10003dbe:	d107      	bne.n	10003dd0 <busy_wait_us+0x48>
10003dc0:	4a0a      	ldr	r2, [pc, #40]	@ (10003dec <busy_wait_us+0x64>)
10003dc2:	e002      	b.n	10003dca <busy_wait_us+0x42>
10003dc4:	6a51      	ldr	r1, [r2, #36]	@ 0x24
10003dc6:	4299      	cmp	r1, r3
10003dc8:	d102      	bne.n	10003dd0 <busy_wait_us+0x48>
10003dca:	6a91      	ldr	r1, [r2, #40]	@ 0x28
10003dcc:	42a1      	cmp	r1, r4
10003dce:	d3f9      	bcc.n	10003dc4 <busy_wait_us+0x3c>
10003dd0:	bd70      	pop	{r4, r5, r6, pc}
10003dd2:	42a6      	cmp	r6, r4
10003dd4:	d9e9      	bls.n	10003daa <busy_wait_us+0x22>
10003dd6:	4b05      	ldr	r3, [pc, #20]	@ (10003dec <busy_wait_us+0x64>)
10003dd8:	6a5b      	ldr	r3, [r3, #36]	@ 0x24
10003dda:	001c      	movs	r4, r3
10003ddc:	1c5a      	adds	r2, r3, #1
10003dde:	d0ef      	beq.n	10003dc0 <busy_wait_us+0x38>
10003de0:	2201      	movs	r2, #1
10003de2:	2401      	movs	r4, #1
10003de4:	4264      	negs	r4, r4
10003de6:	17e5      	asrs	r5, r4, #31
10003de8:	4252      	negs	r2, r2
10003dea:	e7e3      	b.n	10003db4 <busy_wait_us+0x2c>
10003dec:	40054000 	.word	0x40054000

10003df0 <hardware_alarm_set_callback>:
10003df0:	b570      	push	{r4, r5, r6, lr}
10003df2:	0004      	movs	r4, r0
10003df4:	000d      	movs	r5, r1
10003df6:	f3ef 8610 	mrs	r6, PRIMASK
10003dfa:	b672      	cpsid	i
10003dfc:	4a1a      	ldr	r2, [pc, #104]	@ (10003e68 <hardware_alarm_set_callback+0x78>)
10003dfe:	6813      	ldr	r3, [r2, #0]
10003e00:	2b00      	cmp	r3, #0
10003e02:	d0fc      	beq.n	10003dfe <hardware_alarm_set_callback+0xe>
10003e04:	f3bf 8f5f 	dmb	sy
10003e08:	2d00      	cmp	r5, #0
10003e0a:	d01b      	beq.n	10003e44 <hardware_alarm_set_callback+0x54>
10003e0c:	0020      	movs	r0, r4
10003e0e:	f7ff fabb 	bl	10003388 <irq_get_vtable_handler>
10003e12:	4916      	ldr	r1, [pc, #88]	@ (10003e6c <hardware_alarm_set_callback+0x7c>)
10003e14:	4281      	cmp	r1, r0
10003e16:	d00a      	beq.n	10003e2e <hardware_alarm_set_callback+0x3e>
10003e18:	0020      	movs	r0, r4
10003e1a:	f7ff fabd 	bl	10003398 <irq_set_exclusive_handler>
10003e1e:	2101      	movs	r1, #1
10003e20:	0020      	movs	r0, r4
10003e22:	f7ff fa93 	bl	1000334c <irq_set_enabled>
10003e26:	2301      	movs	r3, #1
10003e28:	40a3      	lsls	r3, r4
10003e2a:	4a11      	ldr	r2, [pc, #68]	@ (10003e70 <hardware_alarm_set_callback+0x80>)
10003e2c:	6013      	str	r3, [r2, #0]
10003e2e:	4b11      	ldr	r3, [pc, #68]	@ (10003e74 <hardware_alarm_set_callback+0x84>)
10003e30:	00a4      	lsls	r4, r4, #2
10003e32:	50e5      	str	r5, [r4, r3]
10003e34:	f3bf 8f5f 	dmb	sy
10003e38:	2200      	movs	r2, #0
10003e3a:	4b0b      	ldr	r3, [pc, #44]	@ (10003e68 <hardware_alarm_set_callback+0x78>)
10003e3c:	601a      	str	r2, [r3, #0]
10003e3e:	f386 8810 	msr	PRIMASK, r6
10003e42:	bd70      	pop	{r4, r5, r6, pc}
10003e44:	2101      	movs	r1, #1
10003e46:	40a1      	lsls	r1, r4
10003e48:	4b0a      	ldr	r3, [pc, #40]	@ (10003e74 <hardware_alarm_set_callback+0x84>)
10003e4a:	00a2      	lsls	r2, r4, #2
10003e4c:	50d5      	str	r5, [r2, r3]
10003e4e:	4b0a      	ldr	r3, [pc, #40]	@ (10003e78 <hardware_alarm_set_callback+0x88>)
10003e50:	0020      	movs	r0, r4
10003e52:	781a      	ldrb	r2, [r3, #0]
10003e54:	438a      	bics	r2, r1
10003e56:	4905      	ldr	r1, [pc, #20]	@ (10003e6c <hardware_alarm_set_callback+0x7c>)
10003e58:	701a      	strb	r2, [r3, #0]
10003e5a:	f7ff fac7 	bl	100033ec <irq_remove_handler>
10003e5e:	2100      	movs	r1, #0
10003e60:	0020      	movs	r0, r4
10003e62:	f7ff fa73 	bl	1000334c <irq_set_enabled>
10003e66:	e7e5      	b.n	10003e34 <hardware_alarm_set_callback+0x44>
10003e68:	d0000128 	.word	0xd0000128
10003e6c:	10003ca1 	.word	0x10003ca1
10003e70:	40056038 	.word	0x40056038
10003e74:	200005f0 	.word	0x200005f0
10003e78:	200261ba 	.word	0x200261ba

10003e7c <hardware_alarm_set_target>:
10003e7c:	b5f0      	push	{r4, r5, r6, r7, lr}
10003e7e:	464f      	mov	r7, r9
10003e80:	46d6      	mov	lr, sl
10003e82:	4646      	mov	r6, r8
10003e84:	b5c0      	push	{r6, r7, lr}
10003e86:	0007      	movs	r7, r0
10003e88:	4c2b      	ldr	r4, [pc, #172]	@ (10003f38 <hardware_alarm_set_target+0xbc>)
10003e8a:	6a61      	ldr	r1, [r4, #36]	@ 0x24
10003e8c:	000d      	movs	r5, r1
10003e8e:	6aa6      	ldr	r6, [r4, #40]	@ 0x28
10003e90:	6a61      	ldr	r1, [r4, #36]	@ 0x24
10003e92:	42a9      	cmp	r1, r5
10003e94:	d1fa      	bne.n	10003e8c <hardware_alarm_set_target+0x10>
10003e96:	428b      	cmp	r3, r1
10003e98:	d808      	bhi.n	10003eac <hardware_alarm_set_target+0x30>
10003e9a:	d005      	beq.n	10003ea8 <hardware_alarm_set_target+0x2c>
10003e9c:	2001      	movs	r0, #1
10003e9e:	bce0      	pop	{r5, r6, r7}
10003ea0:	46ba      	mov	sl, r7
10003ea2:	46b1      	mov	r9, r6
10003ea4:	46a8      	mov	r8, r5
10003ea6:	bdf0      	pop	{r4, r5, r6, r7, pc}
10003ea8:	42b2      	cmp	r2, r6
10003eaa:	d9f7      	bls.n	10003e9c <hardware_alarm_set_target+0x20>
10003eac:	f3ef 8a10 	mrs	sl, PRIMASK
10003eb0:	b672      	cpsid	i
10003eb2:	4822      	ldr	r0, [pc, #136]	@ (10003f3c <hardware_alarm_set_target+0xc0>)
10003eb4:	6801      	ldr	r1, [r0, #0]
10003eb6:	2900      	cmp	r1, #0
10003eb8:	d0fc      	beq.n	10003eb4 <hardware_alarm_set_target+0x38>
10003eba:	f3bf 8f5f 	dmb	sy
10003ebe:	2501      	movs	r5, #1
10003ec0:	40bd      	lsls	r5, r7
10003ec2:	491f      	ldr	r1, [pc, #124]	@ (10003f40 <hardware_alarm_set_target+0xc4>)
10003ec4:	4c1c      	ldr	r4, [pc, #112]	@ (10003f38 <hardware_alarm_set_target+0xbc>)
10003ec6:	4688      	mov	r8, r1
10003ec8:	7809      	ldrb	r1, [r1, #0]
10003eca:	4689      	mov	r9, r1
10003ecc:	4329      	orrs	r1, r5
10003ece:	b2c9      	uxtb	r1, r1
10003ed0:	468c      	mov	ip, r1
10003ed2:	4641      	mov	r1, r8
10003ed4:	4660      	mov	r0, ip
10003ed6:	7008      	strb	r0, [r1, #0]
10003ed8:	1d39      	adds	r1, r7, #4
10003eda:	0089      	lsls	r1, r1, #2
10003edc:	6365      	str	r5, [r4, #52]	@ 0x34
10003ede:	510a      	str	r2, [r1, r4]
10003ee0:	4918      	ldr	r1, [pc, #96]	@ (10003f44 <hardware_alarm_set_target+0xc8>)
10003ee2:	00b8      	lsls	r0, r7, #2
10003ee4:	5043      	str	r3, [r0, r1]
10003ee6:	6a21      	ldr	r1, [r4, #32]
10003ee8:	2000      	movs	r0, #0
10003eea:	4229      	tst	r1, r5
10003eec:	d019      	beq.n	10003f22 <hardware_alarm_set_target+0xa6>
10003eee:	6a61      	ldr	r1, [r4, #36]	@ 0x24
10003ef0:	0008      	movs	r0, r1
10003ef2:	6aa6      	ldr	r6, [r4, #40]	@ 0x28
10003ef4:	6a61      	ldr	r1, [r4, #36]	@ 0x24
10003ef6:	4281      	cmp	r1, r0
10003ef8:	d1fa      	bne.n	10003ef0 <hardware_alarm_set_target+0x74>
10003efa:	428b      	cmp	r3, r1
10003efc:	d819      	bhi.n	10003f32 <hardware_alarm_set_target+0xb6>
10003efe:	d101      	bne.n	10003f04 <hardware_alarm_set_target+0x88>
10003f00:	42b2      	cmp	r2, r6
10003f02:	d816      	bhi.n	10003f32 <hardware_alarm_set_target+0xb6>
10003f04:	45cc      	cmp	ip, r9
10003f06:	d00b      	beq.n	10003f20 <hardware_alarm_set_target+0xa4>
10003f08:	4b0b      	ldr	r3, [pc, #44]	@ (10003f38 <hardware_alarm_set_target+0xbc>)
10003f0a:	221f      	movs	r2, #31
10003f0c:	621d      	str	r5, [r3, #32]
10003f0e:	635d      	str	r5, [r3, #52]	@ 0x34
10003f10:	2301      	movs	r3, #1
10003f12:	403a      	ands	r2, r7
10003f14:	4093      	lsls	r3, r2
10003f16:	4a0c      	ldr	r2, [pc, #48]	@ (10003f48 <hardware_alarm_set_target+0xcc>)
10003f18:	6013      	str	r3, [r2, #0]
10003f1a:	4643      	mov	r3, r8
10003f1c:	464a      	mov	r2, r9
10003f1e:	701a      	strb	r2, [r3, #0]
10003f20:	2001      	movs	r0, #1
10003f22:	f3bf 8f5f 	dmb	sy
10003f26:	2200      	movs	r2, #0
10003f28:	4b04      	ldr	r3, [pc, #16]	@ (10003f3c <hardware_alarm_set_target+0xc0>)
10003f2a:	601a      	str	r2, [r3, #0]
10003f2c:	f38a 8810 	msr	PRIMASK, sl
10003f30:	e7b5      	b.n	10003e9e <hardware_alarm_set_target+0x22>
10003f32:	2000      	movs	r0, #0
10003f34:	e7f5      	b.n	10003f22 <hardware_alarm_set_target+0xa6>
10003f36:	46c0      	nop			@ (mov r8, r8)
10003f38:	40054000 	.word	0x40054000
10003f3c:	d0000128 	.word	0xd0000128
10003f40:	200261ba 	.word	0x200261ba
10003f44:	20000950 	.word	0x20000950
10003f48:	e000e280 	.word	0xe000e280

10003f4c <hardware_alarm_cancel>:
10003f4c:	f3ef 8c10 	mrs	ip, PRIMASK
10003f50:	b672      	cpsid	i
10003f52:	490a      	ldr	r1, [pc, #40]	@ (10003f7c <hardware_alarm_cancel+0x30>)
10003f54:	680b      	ldr	r3, [r1, #0]
10003f56:	2b00      	cmp	r3, #0
10003f58:	d0fc      	beq.n	10003f54 <hardware_alarm_cancel+0x8>
10003f5a:	f3bf 8f5f 	dmb	sy
10003f5e:	2301      	movs	r3, #1
10003f60:	4083      	lsls	r3, r0
10003f62:	4a07      	ldr	r2, [pc, #28]	@ (10003f80 <hardware_alarm_cancel+0x34>)
10003f64:	4807      	ldr	r0, [pc, #28]	@ (10003f84 <hardware_alarm_cancel+0x38>)
10003f66:	6213      	str	r3, [r2, #32]
10003f68:	7802      	ldrb	r2, [r0, #0]
10003f6a:	439a      	bics	r2, r3
10003f6c:	7002      	strb	r2, [r0, #0]
10003f6e:	f3bf 8f5f 	dmb	sy
10003f72:	2300      	movs	r3, #0
10003f74:	600b      	str	r3, [r1, #0]
10003f76:	f38c 8810 	msr	PRIMASK, ip
10003f7a:	4770      	bx	lr
10003f7c:	d0000128 	.word	0xd0000128
10003f80:	40054000 	.word	0x40054000
10003f84:	200261ba 	.word	0x200261ba

10003f88 <ph_merge_nodes>:
10003f88:	b570      	push	{r4, r5, r6, lr}
10003f8a:	0006      	movs	r6, r0
10003f8c:	000d      	movs	r5, r1
10003f8e:	0014      	movs	r4, r2
10003f90:	2900      	cmp	r1, #0
10003f92:	d01d      	beq.n	10003fd0 <ph_merge_nodes+0x48>
10003f94:	2a00      	cmp	r2, #0
10003f96:	d012      	beq.n	10003fbe <ph_merge_nodes+0x36>
10003f98:	6873      	ldr	r3, [r6, #4]
10003f9a:	6880      	ldr	r0, [r0, #8]
10003f9c:	4798      	blx	r3
10003f9e:	0062      	lsls	r2, r4, #1
10003fa0:	006b      	lsls	r3, r5, #1
10003fa2:	1912      	adds	r2, r2, r4
10003fa4:	195b      	adds	r3, r3, r5
10003fa6:	6831      	ldr	r1, [r6, #0]
10003fa8:	3a03      	subs	r2, #3
10003faa:	3b03      	subs	r3, #3
10003fac:	2800      	cmp	r0, #0
10003fae:	d008      	beq.n	10003fc2 <ph_merge_nodes+0x3a>
10003fb0:	188a      	adds	r2, r1, r2
10003fb2:	7095      	strb	r5, [r2, #2]
10003fb4:	18c8      	adds	r0, r1, r3
10003fb6:	5ccb      	ldrb	r3, [r1, r3]
10003fb8:	2b00      	cmp	r3, #0
10003fba:	d10b      	bne.n	10003fd4 <ph_merge_nodes+0x4c>
10003fbc:	7004      	strb	r4, [r0, #0]
10003fbe:	0028      	movs	r0, r5
10003fc0:	bd70      	pop	{r4, r5, r6, pc}
10003fc2:	18cb      	adds	r3, r1, r3
10003fc4:	709c      	strb	r4, [r3, #2]
10003fc6:	1888      	adds	r0, r1, r2
10003fc8:	5c8a      	ldrb	r2, [r1, r2]
10003fca:	2a00      	cmp	r2, #0
10003fcc:	d105      	bne.n	10003fda <ph_merge_nodes+0x52>
10003fce:	7005      	strb	r5, [r0, #0]
10003fd0:	0020      	movs	r0, r4
10003fd2:	e7f5      	b.n	10003fc0 <ph_merge_nodes+0x38>
10003fd4:	7053      	strb	r3, [r2, #1]
10003fd6:	7004      	strb	r4, [r0, #0]
10003fd8:	e7f1      	b.n	10003fbe <ph_merge_nodes+0x36>
10003fda:	705a      	strb	r2, [r3, #1]
10003fdc:	7005      	strb	r5, [r0, #0]
10003fde:	e7f7      	b.n	10003fd0 <ph_merge_nodes+0x48>

10003fe0 <ph_post_alloc_init>:
10003fe0:	b510      	push	{r4, lr}
10003fe2:	6083      	str	r3, [r0, #8]
10003fe4:	2300      	movs	r3, #0
10003fe6:	b2cc      	uxtb	r4, r1
10003fe8:	7343      	strb	r3, [r0, #13]
10003fea:	3301      	adds	r3, #1
10003fec:	6042      	str	r2, [r0, #4]
10003fee:	7304      	strb	r4, [r0, #12]
10003ff0:	7383      	strb	r3, [r0, #14]
10003ff2:	73c4      	strb	r4, [r0, #15]
10003ff4:	6800      	ldr	r0, [r0, #0]
10003ff6:	1c42      	adds	r2, r0, #1
10003ff8:	2c01      	cmp	r4, #1
10003ffa:	d905      	bls.n	10004008 <ph_post_alloc_init+0x28>
10003ffc:	3301      	adds	r3, #1
10003ffe:	b2db      	uxtb	r3, r3
10004000:	7013      	strb	r3, [r2, #0]
10004002:	3203      	adds	r2, #3
10004004:	429c      	cmp	r4, r3
10004006:	d1f9      	bne.n	10003ffc <ph_post_alloc_init+0x1c>
10004008:	23ff      	movs	r3, #255	@ 0xff
1000400a:	400b      	ands	r3, r1
1000400c:	005a      	lsls	r2, r3, #1
1000400e:	18d3      	adds	r3, r2, r3
10004010:	18c0      	adds	r0, r0, r3
10004012:	2300      	movs	r3, #0
10004014:	3803      	subs	r0, #3
10004016:	7043      	strb	r3, [r0, #1]
10004018:	bd10      	pop	{r4, pc}
1000401a:	46c0      	nop			@ (mov r8, r8)

1000401c <ph_merge_two_pass>:
1000401c:	b570      	push	{r4, r5, r6, lr}
1000401e:	0005      	movs	r5, r0
10004020:	1e0c      	subs	r4, r1, #0
10004022:	d007      	beq.n	10004034 <ph_merge_two_pass+0x18>
10004024:	0063      	lsls	r3, r4, #1
10004026:	6801      	ldr	r1, [r0, #0]
10004028:	191b      	adds	r3, r3, r4
1000402a:	3b03      	subs	r3, #3
1000402c:	18cb      	adds	r3, r1, r3
1000402e:	785a      	ldrb	r2, [r3, #1]
10004030:	2a00      	cmp	r2, #0
10004032:	d101      	bne.n	10004038 <ph_merge_two_pass+0x1c>
10004034:	0020      	movs	r0, r4
10004036:	bd70      	pop	{r4, r5, r6, pc}
10004038:	0050      	lsls	r0, r2, #1
1000403a:	1880      	adds	r0, r0, r2
1000403c:	3803      	subs	r0, #3
1000403e:	1809      	adds	r1, r1, r0
10004040:	2000      	movs	r0, #0
10004042:	784e      	ldrb	r6, [r1, #1]
10004044:	7048      	strb	r0, [r1, #1]
10004046:	0021      	movs	r1, r4
10004048:	7058      	strb	r0, [r3, #1]
1000404a:	0028      	movs	r0, r5
1000404c:	f7ff ff9c 	bl	10003f88 <ph_merge_nodes>
10004050:	0031      	movs	r1, r6
10004052:	0004      	movs	r4, r0
10004054:	0028      	movs	r0, r5
10004056:	f7ff ffe1 	bl	1000401c <ph_merge_two_pass>
1000405a:	0006      	movs	r6, r0
1000405c:	2c00      	cmp	r4, #0
1000405e:	d020      	beq.n	100040a2 <ph_merge_two_pass+0x86>
10004060:	2800      	cmp	r0, #0
10004062:	d0e7      	beq.n	10004034 <ph_merge_two_pass+0x18>
10004064:	0032      	movs	r2, r6
10004066:	0021      	movs	r1, r4
10004068:	686b      	ldr	r3, [r5, #4]
1000406a:	68a8      	ldr	r0, [r5, #8]
1000406c:	4798      	blx	r3
1000406e:	0072      	lsls	r2, r6, #1
10004070:	0063      	lsls	r3, r4, #1
10004072:	1992      	adds	r2, r2, r6
10004074:	191b      	adds	r3, r3, r4
10004076:	6829      	ldr	r1, [r5, #0]
10004078:	3a03      	subs	r2, #3
1000407a:	3b03      	subs	r3, #3
1000407c:	2800      	cmp	r0, #0
1000407e:	d008      	beq.n	10004092 <ph_merge_two_pass+0x76>
10004080:	188a      	adds	r2, r1, r2
10004082:	7094      	strb	r4, [r2, #2]
10004084:	18c8      	adds	r0, r1, r3
10004086:	5ccb      	ldrb	r3, [r1, r3]
10004088:	2b00      	cmp	r3, #0
1000408a:	d000      	beq.n	1000408e <ph_merge_two_pass+0x72>
1000408c:	7053      	strb	r3, [r2, #1]
1000408e:	7006      	strb	r6, [r0, #0]
10004090:	e7d0      	b.n	10004034 <ph_merge_two_pass+0x18>
10004092:	18cb      	adds	r3, r1, r3
10004094:	709e      	strb	r6, [r3, #2]
10004096:	1888      	adds	r0, r1, r2
10004098:	5c8a      	ldrb	r2, [r1, r2]
1000409a:	2a00      	cmp	r2, #0
1000409c:	d000      	beq.n	100040a0 <ph_merge_two_pass+0x84>
1000409e:	705a      	strb	r2, [r3, #1]
100040a0:	7004      	strb	r4, [r0, #0]
100040a2:	0034      	movs	r4, r6
100040a4:	e7c6      	b.n	10004034 <ph_merge_two_pass+0x18>
100040a6:	46c0      	nop			@ (mov r8, r8)

100040a8 <ph_remove_any_head>:
100040a8:	b5f0      	push	{r4, r5, r6, r7, lr}
100040aa:	4657      	mov	r7, sl
100040ac:	4645      	mov	r5, r8
100040ae:	46de      	mov	lr, fp
100040b0:	464e      	mov	r6, r9
100040b2:	b5e0      	push	{r5, r6, r7, lr}
100040b4:	000d      	movs	r5, r1
100040b6:	006f      	lsls	r7, r5, #1
100040b8:	6801      	ldr	r1, [r0, #0]
100040ba:	197f      	adds	r7, r7, r5
100040bc:	3f03      	subs	r7, #3
100040be:	0004      	movs	r4, r0
100040c0:	5dc8      	ldrb	r0, [r1, r7]
100040c2:	b083      	sub	sp, #12
100040c4:	9201      	str	r2, [sp, #4]
100040c6:	19ca      	adds	r2, r1, r7
100040c8:	2800      	cmp	r0, #0
100040ca:	d050      	beq.n	1000416e <ph_remove_any_head+0xc6>
100040cc:	0043      	lsls	r3, r0, #1
100040ce:	181b      	adds	r3, r3, r0
100040d0:	3b03      	subs	r3, #3
100040d2:	18cb      	adds	r3, r1, r3
100040d4:	785e      	ldrb	r6, [r3, #1]
100040d6:	46b4      	mov	ip, r6
100040d8:	2e00      	cmp	r6, #0
100040da:	d11a      	bne.n	10004112 <ph_remove_any_head+0x6a>
100040dc:	9e01      	ldr	r6, [sp, #4]
100040de:	2e00      	cmp	r6, #0
100040e0:	d042      	beq.n	10004168 <ph_remove_any_head+0xc0>
100040e2:	7be6      	ldrb	r6, [r4, #15]
100040e4:	2e00      	cmp	r6, #0
100040e6:	d004      	beq.n	100040f2 <ph_remove_any_head+0x4a>
100040e8:	0073      	lsls	r3, r6, #1
100040ea:	199b      	adds	r3, r3, r6
100040ec:	18cb      	adds	r3, r1, r3
100040ee:	3b03      	subs	r3, #3
100040f0:	705d      	strb	r5, [r3, #1]
100040f2:	7ba3      	ldrb	r3, [r4, #14]
100040f4:	2b00      	cmp	r3, #0
100040f6:	d100      	bne.n	100040fa <ph_remove_any_head+0x52>
100040f8:	73a5      	strb	r5, [r4, #14]
100040fa:	73e5      	strb	r5, [r4, #15]
100040fc:	2800      	cmp	r0, #0
100040fe:	d12f      	bne.n	10004160 <ph_remove_any_head+0xb8>
10004100:	2300      	movs	r3, #0
10004102:	7053      	strb	r3, [r2, #1]
10004104:	b003      	add	sp, #12
10004106:	bcf0      	pop	{r4, r5, r6, r7}
10004108:	46bb      	mov	fp, r7
1000410a:	46b2      	mov	sl, r6
1000410c:	46a9      	mov	r9, r5
1000410e:	46a0      	mov	r8, r4
10004110:	bdf0      	pop	{r4, r5, r6, r7, pc}
10004112:	0072      	lsls	r2, r6, #1
10004114:	4462      	add	r2, ip
10004116:	3a03      	subs	r2, #3
10004118:	188a      	adds	r2, r1, r2
1000411a:	7851      	ldrb	r1, [r2, #1]
1000411c:	4688      	mov	r8, r1
1000411e:	2100      	movs	r1, #0
10004120:	7051      	strb	r1, [r2, #1]
10004122:	4689      	mov	r9, r1
10004124:	7059      	strb	r1, [r3, #1]
10004126:	0032      	movs	r2, r6
10004128:	0001      	movs	r1, r0
1000412a:	0020      	movs	r0, r4
1000412c:	f7ff ff2c 	bl	10003f88 <ph_merge_nodes>
10004130:	4643      	mov	r3, r8
10004132:	4682      	mov	sl, r0
10004134:	2b00      	cmp	r3, #0
10004136:	d007      	beq.n	10004148 <ph_remove_any_head+0xa0>
10004138:	005b      	lsls	r3, r3, #1
1000413a:	6821      	ldr	r1, [r4, #0]
1000413c:	4443      	add	r3, r8
1000413e:	3b03      	subs	r3, #3
10004140:	18cb      	adds	r3, r1, r3
10004142:	785a      	ldrb	r2, [r3, #1]
10004144:	2a00      	cmp	r2, #0
10004146:	d116      	bne.n	10004176 <ph_remove_any_head+0xce>
10004148:	4642      	mov	r2, r8
1000414a:	4651      	mov	r1, sl
1000414c:	0020      	movs	r0, r4
1000414e:	f7ff ff1b 	bl	10003f88 <ph_merge_nodes>
10004152:	6821      	ldr	r1, [r4, #0]
10004154:	9b01      	ldr	r3, [sp, #4]
10004156:	19ca      	adds	r2, r1, r7
10004158:	2b00      	cmp	r3, #0
1000415a:	d1c2      	bne.n	100040e2 <ph_remove_any_head+0x3a>
1000415c:	2800      	cmp	r0, #0
1000415e:	d0cf      	beq.n	10004100 <ph_remove_any_head+0x58>
10004160:	0043      	lsls	r3, r0, #1
10004162:	181b      	adds	r3, r3, r0
10004164:	3b03      	subs	r3, #3
10004166:	18cb      	adds	r3, r1, r3
10004168:	2100      	movs	r1, #0
1000416a:	7099      	strb	r1, [r3, #2]
1000416c:	e7c8      	b.n	10004100 <ph_remove_any_head+0x58>
1000416e:	9b01      	ldr	r3, [sp, #4]
10004170:	2b00      	cmp	r3, #0
10004172:	d1b6      	bne.n	100040e2 <ph_remove_any_head+0x3a>
10004174:	e7c4      	b.n	10004100 <ph_remove_any_head+0x58>
10004176:	0050      	lsls	r0, r2, #1
10004178:	1880      	adds	r0, r0, r2
1000417a:	3803      	subs	r0, #3
1000417c:	1809      	adds	r1, r1, r0
1000417e:	7848      	ldrb	r0, [r1, #1]
10004180:	4683      	mov	fp, r0
10004182:	4648      	mov	r0, r9
10004184:	7048      	strb	r0, [r1, #1]
10004186:	7058      	strb	r0, [r3, #1]
10004188:	4641      	mov	r1, r8
1000418a:	0020      	movs	r0, r4
1000418c:	f7ff fefc 	bl	10003f88 <ph_merge_nodes>
10004190:	4659      	mov	r1, fp
10004192:	4680      	mov	r8, r0
10004194:	0020      	movs	r0, r4
10004196:	f7ff ff41 	bl	1000401c <ph_merge_two_pass>
1000419a:	4641      	mov	r1, r8
1000419c:	0002      	movs	r2, r0
1000419e:	0020      	movs	r0, r4
100041a0:	f7ff fef2 	bl	10003f88 <ph_merge_nodes>
100041a4:	4680      	mov	r8, r0
100041a6:	e7cf      	b.n	10004148 <ph_remove_any_head+0xa0>

100041a8 <ph_remove_head>:
100041a8:	b5f0      	push	{r4, r5, r6, r7, lr}
100041aa:	4657      	mov	r7, sl
100041ac:	4645      	mov	r5, r8
100041ae:	46de      	mov	lr, fp
100041b0:	464e      	mov	r6, r9
100041b2:	b5e0      	push	{r5, r6, r7, lr}
100041b4:	b083      	sub	sp, #12
100041b6:	9101      	str	r1, [sp, #4]
100041b8:	7b45      	ldrb	r5, [r0, #13]
100041ba:	0004      	movs	r4, r0
100041bc:	006f      	lsls	r7, r5, #1
100041be:	6800      	ldr	r0, [r0, #0]
100041c0:	197f      	adds	r7, r7, r5
100041c2:	3f03      	subs	r7, #3
100041c4:	5dc1      	ldrb	r1, [r0, r7]
100041c6:	19c2      	adds	r2, r0, r7
100041c8:	2900      	cmp	r1, #0
100041ca:	d052      	beq.n	10004272 <ph_remove_head+0xca>
100041cc:	004b      	lsls	r3, r1, #1
100041ce:	185b      	adds	r3, r3, r1
100041d0:	3b03      	subs	r3, #3
100041d2:	18c3      	adds	r3, r0, r3
100041d4:	785e      	ldrb	r6, [r3, #1]
100041d6:	46b4      	mov	ip, r6
100041d8:	2e00      	cmp	r6, #0
100041da:	d11c      	bne.n	10004216 <ph_remove_head+0x6e>
100041dc:	9e01      	ldr	r6, [sp, #4]
100041de:	2e00      	cmp	r6, #0
100041e0:	d044      	beq.n	1000426c <ph_remove_head+0xc4>
100041e2:	7be6      	ldrb	r6, [r4, #15]
100041e4:	2e00      	cmp	r6, #0
100041e6:	d004      	beq.n	100041f2 <ph_remove_head+0x4a>
100041e8:	0073      	lsls	r3, r6, #1
100041ea:	199b      	adds	r3, r3, r6
100041ec:	18c3      	adds	r3, r0, r3
100041ee:	3b03      	subs	r3, #3
100041f0:	705d      	strb	r5, [r3, #1]
100041f2:	7ba3      	ldrb	r3, [r4, #14]
100041f4:	2b00      	cmp	r3, #0
100041f6:	d100      	bne.n	100041fa <ph_remove_head+0x52>
100041f8:	73a5      	strb	r5, [r4, #14]
100041fa:	73e5      	strb	r5, [r4, #15]
100041fc:	2900      	cmp	r1, #0
100041fe:	d131      	bne.n	10004264 <ph_remove_head+0xbc>
10004200:	2300      	movs	r3, #0
10004202:	0028      	movs	r0, r5
10004204:	7053      	strb	r3, [r2, #1]
10004206:	7361      	strb	r1, [r4, #13]
10004208:	b003      	add	sp, #12
1000420a:	bcf0      	pop	{r4, r5, r6, r7}
1000420c:	46bb      	mov	fp, r7
1000420e:	46b2      	mov	sl, r6
10004210:	46a9      	mov	r9, r5
10004212:	46a0      	mov	r8, r4
10004214:	bdf0      	pop	{r4, r5, r6, r7, pc}
10004216:	0072      	lsls	r2, r6, #1
10004218:	4462      	add	r2, ip
1000421a:	3a03      	subs	r2, #3
1000421c:	1882      	adds	r2, r0, r2
1000421e:	7850      	ldrb	r0, [r2, #1]
10004220:	4680      	mov	r8, r0
10004222:	2000      	movs	r0, #0
10004224:	7050      	strb	r0, [r2, #1]
10004226:	4681      	mov	r9, r0
10004228:	7058      	strb	r0, [r3, #1]
1000422a:	0032      	movs	r2, r6
1000422c:	0020      	movs	r0, r4
1000422e:	f7ff feab 	bl	10003f88 <ph_merge_nodes>
10004232:	4643      	mov	r3, r8
10004234:	4682      	mov	sl, r0
10004236:	2b00      	cmp	r3, #0
10004238:	d007      	beq.n	1000424a <ph_remove_head+0xa2>
1000423a:	005b      	lsls	r3, r3, #1
1000423c:	6821      	ldr	r1, [r4, #0]
1000423e:	4443      	add	r3, r8
10004240:	3b03      	subs	r3, #3
10004242:	18cb      	adds	r3, r1, r3
10004244:	785a      	ldrb	r2, [r3, #1]
10004246:	2a00      	cmp	r2, #0
10004248:	d117      	bne.n	1000427a <ph_remove_head+0xd2>
1000424a:	4642      	mov	r2, r8
1000424c:	4651      	mov	r1, sl
1000424e:	0020      	movs	r0, r4
10004250:	f7ff fe9a 	bl	10003f88 <ph_merge_nodes>
10004254:	9b01      	ldr	r3, [sp, #4]
10004256:	0001      	movs	r1, r0
10004258:	6820      	ldr	r0, [r4, #0]
1000425a:	19c2      	adds	r2, r0, r7
1000425c:	2b00      	cmp	r3, #0
1000425e:	d1c0      	bne.n	100041e2 <ph_remove_head+0x3a>
10004260:	2900      	cmp	r1, #0
10004262:	d0cd      	beq.n	10004200 <ph_remove_head+0x58>
10004264:	004b      	lsls	r3, r1, #1
10004266:	185b      	adds	r3, r3, r1
10004268:	3b03      	subs	r3, #3
1000426a:	18c3      	adds	r3, r0, r3
1000426c:	2000      	movs	r0, #0
1000426e:	7098      	strb	r0, [r3, #2]
10004270:	e7c6      	b.n	10004200 <ph_remove_head+0x58>
10004272:	9b01      	ldr	r3, [sp, #4]
10004274:	2b00      	cmp	r3, #0
10004276:	d1b4      	bne.n	100041e2 <ph_remove_head+0x3a>
10004278:	e7c2      	b.n	10004200 <ph_remove_head+0x58>
1000427a:	0050      	lsls	r0, r2, #1
1000427c:	1880      	adds	r0, r0, r2
1000427e:	3803      	subs	r0, #3
10004280:	1809      	adds	r1, r1, r0
10004282:	7848      	ldrb	r0, [r1, #1]
10004284:	4683      	mov	fp, r0
10004286:	4648      	mov	r0, r9
10004288:	7048      	strb	r0, [r1, #1]
1000428a:	7058      	strb	r0, [r3, #1]
1000428c:	4641      	mov	r1, r8
1000428e:	0020      	movs	r0, r4
10004290:	f7ff fe7a 	bl	10003f88 <ph_merge_nodes>
10004294:	4659      	mov	r1, fp
10004296:	4680      	mov	r8, r0
10004298:	0020      	movs	r0, r4
1000429a:	f7ff febf 	bl	1000401c <ph_merge_two_pass>
1000429e:	4641      	mov	r1, r8
100042a0:	0002      	movs	r2, r0
100042a2:	0020      	movs	r0, r4
100042a4:	f7ff fe70 	bl	10003f88 <ph_merge_nodes>
100042a8:	4680      	mov	r8, r0
100042aa:	e7ce      	b.n	1000424a <ph_remove_head+0xa2>

100042ac <ph_remove_and_free_node>:
100042ac:	b570      	push	{r4, r5, r6, lr}
100042ae:	0005      	movs	r5, r0
100042b0:	2900      	cmp	r1, #0
100042b2:	d02c      	beq.n	1000430e <ph_remove_and_free_node+0x62>
100042b4:	7b43      	ldrb	r3, [r0, #13]
100042b6:	428b      	cmp	r3, r1
100042b8:	d02e      	beq.n	10004318 <ph_remove_and_free_node+0x6c>
100042ba:	004c      	lsls	r4, r1, #1
100042bc:	6800      	ldr	r0, [r0, #0]
100042be:	1864      	adds	r4, r4, r1
100042c0:	3c03      	subs	r4, #3
100042c2:	1904      	adds	r4, r0, r4
100042c4:	78a2      	ldrb	r2, [r4, #2]
100042c6:	2a00      	cmp	r2, #0
100042c8:	d021      	beq.n	1000430e <ph_remove_and_free_node+0x62>
100042ca:	0053      	lsls	r3, r2, #1
100042cc:	189b      	adds	r3, r3, r2
100042ce:	3b03      	subs	r3, #3
100042d0:	5cc2      	ldrb	r2, [r0, r3]
100042d2:	18c6      	adds	r6, r0, r3
100042d4:	428a      	cmp	r2, r1
100042d6:	d102      	bne.n	100042de <ph_remove_and_free_node+0x32>
100042d8:	e01b      	b.n	10004312 <ph_remove_and_free_node+0x66>
100042da:	2a00      	cmp	r2, #0
100042dc:	d008      	beq.n	100042f0 <ph_remove_and_free_node+0x44>
100042de:	0053      	lsls	r3, r2, #1
100042e0:	189b      	adds	r3, r3, r2
100042e2:	3b03      	subs	r3, #3
100042e4:	18c3      	adds	r3, r0, r3
100042e6:	785a      	ldrb	r2, [r3, #1]
100042e8:	428a      	cmp	r2, r1
100042ea:	d1f6      	bne.n	100042da <ph_remove_and_free_node+0x2e>
100042ec:	7862      	ldrb	r2, [r4, #1]
100042ee:	705a      	strb	r2, [r3, #1]
100042f0:	2300      	movs	r3, #0
100042f2:	2201      	movs	r2, #1
100042f4:	0028      	movs	r0, r5
100042f6:	70a3      	strb	r3, [r4, #2]
100042f8:	7063      	strb	r3, [r4, #1]
100042fa:	f7ff fed5 	bl	100040a8 <ph_remove_any_head>
100042fe:	7b69      	ldrb	r1, [r5, #13]
10004300:	0002      	movs	r2, r0
10004302:	0028      	movs	r0, r5
10004304:	f7ff fe40 	bl	10003f88 <ph_merge_nodes>
10004308:	7368      	strb	r0, [r5, #13]
1000430a:	2001      	movs	r0, #1
1000430c:	e000      	b.n	10004310 <ph_remove_and_free_node+0x64>
1000430e:	2000      	movs	r0, #0
10004310:	bd70      	pop	{r4, r5, r6, pc}
10004312:	7863      	ldrb	r3, [r4, #1]
10004314:	7033      	strb	r3, [r6, #0]
10004316:	e7eb      	b.n	100042f0 <ph_remove_and_free_node+0x44>
10004318:	2201      	movs	r2, #1
1000431a:	0019      	movs	r1, r3
1000431c:	f7ff fec4 	bl	100040a8 <ph_remove_any_head>
10004320:	e7f2      	b.n	10004308 <ph_remove_and_free_node+0x5c>
10004322:	46c0      	nop			@ (mov r8, r8)

10004324 <uart_init>:
10004324:	b5f8      	push	{r3, r4, r5, r6, r7, lr}
10004326:	46ce      	mov	lr, r9
10004328:	4647      	mov	r7, r8
1000432a:	0004      	movs	r4, r0
1000432c:	b580      	push	{r7, lr}
1000432e:	2006      	movs	r0, #6
10004330:	000e      	movs	r6, r1
10004332:	f000 fa1f 	bl	10004774 <clock_get_hz>
10004336:	1e05      	subs	r5, r0, #0
10004338:	d051      	beq.n	100043de <uart_init+0xba>
1000433a:	4b52      	ldr	r3, [pc, #328]	@ (10004484 <uart_init+0x160>)
1000433c:	4952      	ldr	r1, [pc, #328]	@ (10004488 <uart_init+0x164>)
1000433e:	18e2      	adds	r2, r4, r3
10004340:	4253      	negs	r3, r2
10004342:	415a      	adcs	r2, r3
10004344:	2380      	movs	r3, #128	@ 0x80
10004346:	03db      	lsls	r3, r3, #15
10004348:	469c      	mov	ip, r3
1000434a:	0592      	lsls	r2, r2, #22
1000434c:	4b4f      	ldr	r3, [pc, #316]	@ (1000448c <uart_init+0x168>)
1000434e:	4462      	add	r2, ip
10004350:	601a      	str	r2, [r3, #0]
10004352:	4b4f      	ldr	r3, [pc, #316]	@ (10004490 <uart_init+0x16c>)
10004354:	601a      	str	r2, [r3, #0]
10004356:	0010      	movs	r0, r2
10004358:	688b      	ldr	r3, [r1, #8]
1000435a:	4398      	bics	r0, r3
1000435c:	d1fb      	bne.n	10004356 <uart_init+0x32>
1000435e:	4b49      	ldr	r3, [pc, #292]	@ (10004484 <uart_init+0x160>)
10004360:	4a4c      	ldr	r2, [pc, #304]	@ (10004494 <uart_init+0x170>)
10004362:	18e3      	adds	r3, r4, r3
10004364:	4259      	negs	r1, r3
10004366:	414b      	adcs	r3, r1
10004368:	2180      	movs	r1, #128	@ 0x80
1000436a:	005b      	lsls	r3, r3, #1
1000436c:	0049      	lsls	r1, r1, #1
1000436e:	2006      	movs	r0, #6
10004370:	5299      	strh	r1, [r3, r2]
10004372:	f000 f9ff 	bl	10004774 <clock_get_hz>
10004376:	0031      	movs	r1, r6
10004378:	00c0      	lsls	r0, r0, #3
1000437a:	f001 ff11 	bl	100061a0 <__wrap___aeabi_uidiv>
1000437e:	09c3      	lsrs	r3, r0, #7
10004380:	d132      	bne.n	100043e8 <uart_init+0xc4>
10004382:	2240      	movs	r2, #64	@ 0x40
10004384:	2101      	movs	r1, #1
10004386:	4690      	mov	r8, r2
10004388:	6261      	str	r1, [r4, #36]	@ 0x24
1000438a:	62a3      	str	r3, [r4, #40]	@ 0x28
1000438c:	6b25      	ldr	r5, [r4, #48]	@ 0x30
1000438e:	07eb      	lsls	r3, r5, #31
10004390:	d436      	bmi.n	10004400 <uart_init+0xdc>
10004392:	0027      	movs	r7, r4
10004394:	2680      	movs	r6, #128	@ 0x80
10004396:	6ae3      	ldr	r3, [r4, #44]	@ 0x2c
10004398:	2300      	movs	r3, #0
1000439a:	372c      	adds	r7, #44	@ 0x2c
1000439c:	0176      	lsls	r6, r6, #5
1000439e:	433e      	orrs	r6, r7
100043a0:	6033      	str	r3, [r6, #0]
100043a2:	2006      	movs	r0, #6
100043a4:	6325      	str	r5, [r4, #48]	@ 0x30
100043a6:	f000 f9e5 	bl	10004774 <clock_get_hz>
100043aa:	4641      	mov	r1, r8
100043ac:	0080      	lsls	r0, r0, #2
100043ae:	f001 fef7 	bl	100061a0 <__wrap___aeabi_uidiv>
100043b2:	6b23      	ldr	r3, [r4, #48]	@ 0x30
100043b4:	0005      	movs	r5, r0
100043b6:	4698      	mov	r8, r3
100043b8:	07db      	lsls	r3, r3, #31
100043ba:	d43b      	bmi.n	10004434 <uart_init+0x110>
100043bc:	2360      	movs	r3, #96	@ 0x60
100043be:	6ae2      	ldr	r2, [r4, #44]	@ 0x2c
100043c0:	405a      	eors	r2, r3
100043c2:	330e      	adds	r3, #14
100043c4:	4013      	ands	r3, r2
100043c6:	6033      	str	r3, [r6, #0]
100043c8:	4643      	mov	r3, r8
100043ca:	6323      	str	r3, [r4, #48]	@ 0x30
100043cc:	2380      	movs	r3, #128	@ 0x80
100043ce:	2210      	movs	r2, #16
100043d0:	019b      	lsls	r3, r3, #6
100043d2:	433b      	orrs	r3, r7
100043d4:	601a      	str	r2, [r3, #0]
100043d6:	4b30      	ldr	r3, [pc, #192]	@ (10004498 <uart_init+0x174>)
100043d8:	6323      	str	r3, [r4, #48]	@ 0x30
100043da:	2303      	movs	r3, #3
100043dc:	64a3      	str	r3, [r4, #72]	@ 0x48
100043de:	0028      	movs	r0, r5
100043e0:	bcc0      	pop	{r6, r7}
100043e2:	46b9      	mov	r9, r7
100043e4:	46b0      	mov	r8, r6
100043e6:	bdf8      	pop	{r3, r4, r5, r6, r7, pc}
100043e8:	4a2c      	ldr	r2, [pc, #176]	@ (1000449c <uart_init+0x178>)
100043ea:	4293      	cmp	r3, r2
100043ec:	d93f      	bls.n	1000446e <uart_init+0x14a>
100043ee:	2300      	movs	r3, #0
100043f0:	492b      	ldr	r1, [pc, #172]	@ (100044a0 <uart_init+0x17c>)
100043f2:	4a2c      	ldr	r2, [pc, #176]	@ (100044a4 <uart_init+0x180>)
100043f4:	6261      	str	r1, [r4, #36]	@ 0x24
100043f6:	62a3      	str	r3, [r4, #40]	@ 0x28
100043f8:	6b25      	ldr	r5, [r4, #48]	@ 0x30
100043fa:	4690      	mov	r8, r2
100043fc:	07eb      	lsls	r3, r5, #31
100043fe:	d5c8      	bpl.n	10004392 <uart_init+0x6e>
10004400:	0022      	movs	r2, r4
10004402:	23c0      	movs	r3, #192	@ 0xc0
10004404:	3230      	adds	r2, #48	@ 0x30
10004406:	019b      	lsls	r3, r3, #6
10004408:	4313      	orrs	r3, r2
1000440a:	4a23      	ldr	r2, [pc, #140]	@ (10004498 <uart_init+0x174>)
1000440c:	2006      	movs	r0, #6
1000440e:	601a      	str	r2, [r3, #0]
10004410:	6a66      	ldr	r6, [r4, #36]	@ 0x24
10004412:	6aa3      	ldr	r3, [r4, #40]	@ 0x28
10004414:	01b6      	lsls	r6, r6, #6
10004416:	18f6      	adds	r6, r6, r3
10004418:	f000 f9ac 	bl	10004774 <clock_get_hz>
1000441c:	4922      	ldr	r1, [pc, #136]	@ (100044a8 <uart_init+0x184>)
1000441e:	f001 febf 	bl	100061a0 <__wrap___aeabi_uidiv>
10004422:	02b6      	lsls	r6, r6, #10
10004424:	0001      	movs	r1, r0
10004426:	0030      	movs	r0, r6
10004428:	f001 feba 	bl	100061a0 <__wrap___aeabi_uidiv>
1000442c:	2100      	movs	r1, #0
1000442e:	f7ff fcab 	bl	10003d88 <busy_wait_us>
10004432:	e7ae      	b.n	10004392 <uart_init+0x6e>
10004434:	0022      	movs	r2, r4
10004436:	23c0      	movs	r3, #192	@ 0xc0
10004438:	3230      	adds	r2, #48	@ 0x30
1000443a:	019b      	lsls	r3, r3, #6
1000443c:	4313      	orrs	r3, r2
1000443e:	4a16      	ldr	r2, [pc, #88]	@ (10004498 <uart_init+0x174>)
10004440:	2006      	movs	r0, #6
10004442:	601a      	str	r2, [r3, #0]
10004444:	6a63      	ldr	r3, [r4, #36]	@ 0x24
10004446:	6aa2      	ldr	r2, [r4, #40]	@ 0x28
10004448:	019b      	lsls	r3, r3, #6
1000444a:	4699      	mov	r9, r3
1000444c:	4491      	add	r9, r2
1000444e:	f000 f991 	bl	10004774 <clock_get_hz>
10004452:	464b      	mov	r3, r9
10004454:	4914      	ldr	r1, [pc, #80]	@ (100044a8 <uart_init+0x184>)
10004456:	029b      	lsls	r3, r3, #10
10004458:	4699      	mov	r9, r3
1000445a:	f001 fea1 	bl	100061a0 <__wrap___aeabi_uidiv>
1000445e:	0001      	movs	r1, r0
10004460:	4648      	mov	r0, r9
10004462:	f001 fe9d 	bl	100061a0 <__wrap___aeabi_uidiv>
10004466:	2100      	movs	r1, #0
10004468:	f7ff fc8e 	bl	10003d88 <busy_wait_us>
1000446c:	e7a6      	b.n	100043bc <uart_init+0x98>
1000446e:	227f      	movs	r2, #127	@ 0x7f
10004470:	0199      	lsls	r1, r3, #6
10004472:	4688      	mov	r8, r1
10004474:	4002      	ands	r2, r0
10004476:	3201      	adds	r2, #1
10004478:	0852      	lsrs	r2, r2, #1
1000447a:	0019      	movs	r1, r3
1000447c:	4490      	add	r8, r2
1000447e:	0013      	movs	r3, r2
10004480:	e782      	b.n	10004388 <uart_init+0x64>
10004482:	46c0      	nop			@ (mov r8, r8)
10004484:	bffc8000 	.word	0xbffc8000
10004488:	4000c000 	.word	0x4000c000
1000448c:	4000e000 	.word	0x4000e000
10004490:	4000f000 	.word	0x4000f000
10004494:	20000978 	.word	0x20000978
10004498:	00000301 	.word	0x00000301
1000449c:	0000fffe 	.word	0x0000fffe
100044a0:	0000ffff 	.word	0x0000ffff
100044a4:	003fffc0 	.word	0x003fffc0
100044a8:	00000e4e 	.word	0x00000e4e

100044ac <clocks_init>:
100044ac:	b510      	push	{r4, lr}
100044ae:	200c      	movs	r0, #12
100044b0:	b082      	sub	sp, #8
100044b2:	f000 f9b5 	bl	10004820 <watchdog_start_tick>
100044b6:	f7fe feef 	bl	10003298 <running_on_fpga>
100044ba:	2800      	cmp	r0, #0
100044bc:	d010      	beq.n	100044e0 <clocks_init+0x34>
100044be:	4b8b      	ldr	r3, [pc, #556]	@ (100046ec <clocks_init+0x240>)
100044c0:	488b      	ldr	r0, [pc, #556]	@ (100046f0 <clocks_init+0x244>)
100044c2:	498b      	ldr	r1, [pc, #556]	@ (100046f0 <clocks_init+0x244>)
100044c4:	4a8b      	ldr	r2, [pc, #556]	@ (100046f4 <clocks_init+0x248>)
100044c6:	6018      	str	r0, [r3, #0]
100044c8:	6059      	str	r1, [r3, #4]
100044ca:	6098      	str	r0, [r3, #8]
100044cc:	60d9      	str	r1, [r3, #12]
100044ce:	6118      	str	r0, [r3, #16]
100044d0:	6159      	str	r1, [r3, #20]
100044d2:	6198      	str	r0, [r3, #24]
100044d4:	61d9      	str	r1, [r3, #28]
100044d6:	6218      	str	r0, [r3, #32]
100044d8:	6259      	str	r1, [r3, #36]	@ 0x24
100044da:	625a      	str	r2, [r3, #36]	@ 0x24
100044dc:	b002      	add	sp, #8
100044de:	bd10      	pop	{r4, pc}
100044e0:	4c85      	ldr	r4, [pc, #532]	@ (100046f8 <clocks_init+0x24c>)
100044e2:	67a0      	str	r0, [r4, #120]	@ 0x78
100044e4:	f000 f9a4 	bl	10004830 <xosc_init>
100044e8:	2201      	movs	r2, #1
100044ea:	4b84      	ldr	r3, [pc, #528]	@ (100046fc <clocks_init+0x250>)
100044ec:	601a      	str	r2, [r3, #0]
100044ee:	6c63      	ldr	r3, [r4, #68]	@ 0x44
100044f0:	2b01      	cmp	r3, #1
100044f2:	d1fc      	bne.n	100044ee <clocks_init+0x42>
100044f4:	2203      	movs	r2, #3
100044f6:	4b82      	ldr	r3, [pc, #520]	@ (10004700 <clocks_init+0x254>)
100044f8:	601a      	str	r2, [r3, #0]
100044fa:	4a7f      	ldr	r2, [pc, #508]	@ (100046f8 <clocks_init+0x24c>)
100044fc:	6b93      	ldr	r3, [r2, #56]	@ 0x38
100044fe:	2b01      	cmp	r3, #1
10004500:	d1fc      	bne.n	100044fc <clocks_init+0x50>
10004502:	3301      	adds	r3, #1
10004504:	2101      	movs	r1, #1
10004506:	4a7f      	ldr	r2, [pc, #508]	@ (10004704 <clocks_init+0x258>)
10004508:	487f      	ldr	r0, [pc, #508]	@ (10004708 <clocks_init+0x25c>)
1000450a:	9300      	str	r3, [sp, #0]
1000450c:	3304      	adds	r3, #4
1000450e:	f000 f937 	bl	10004780 <pll_init>
10004512:	2305      	movs	r3, #5
10004514:	4a7d      	ldr	r2, [pc, #500]	@ (1000470c <clocks_init+0x260>)
10004516:	9300      	str	r3, [sp, #0]
10004518:	2101      	movs	r1, #1
1000451a:	487d      	ldr	r0, [pc, #500]	@ (10004710 <clocks_init+0x264>)
1000451c:	f000 f930 	bl	10004780 <pll_init>
10004520:	4b7c      	ldr	r3, [pc, #496]	@ (10004714 <clocks_init+0x268>)
10004522:	685a      	ldr	r2, [r3, #4]
10004524:	2aff      	cmp	r2, #255	@ 0xff
10004526:	d802      	bhi.n	1000452e <clocks_init+0x82>
10004528:	2280      	movs	r2, #128	@ 0x80
1000452a:	0052      	lsls	r2, r2, #1
1000452c:	605a      	str	r2, [r3, #4]
1000452e:	2280      	movs	r2, #128	@ 0x80
10004530:	4b73      	ldr	r3, [pc, #460]	@ (10004700 <clocks_init+0x254>)
10004532:	4c6e      	ldr	r4, [pc, #440]	@ (100046ec <clocks_init+0x240>)
10004534:	0112      	lsls	r2, r2, #4
10004536:	601a      	str	r2, [r3, #0]
10004538:	6921      	ldr	r1, [r4, #16]
1000453a:	2900      	cmp	r1, #0
1000453c:	d007      	beq.n	1000454e <clocks_init+0xa2>
1000453e:	6960      	ldr	r0, [r4, #20]
10004540:	f001 fe2e 	bl	100061a0 <__wrap___aeabi_uidiv>
10004544:	3001      	adds	r0, #1
10004546:	0043      	lsls	r3, r0, #1
10004548:	181b      	adds	r3, r3, r0
1000454a:	3b03      	subs	r3, #3
1000454c:	d2fd      	bcs.n	1000454a <clocks_init+0x9e>
1000454e:	22e0      	movs	r2, #224	@ 0xe0
10004550:	4b70      	ldr	r3, [pc, #448]	@ (10004714 <clocks_init+0x268>)
10004552:	4871      	ldr	r0, [pc, #452]	@ (10004718 <clocks_init+0x26c>)
10004554:	6819      	ldr	r1, [r3, #0]
10004556:	400a      	ands	r2, r1
10004558:	6002      	str	r2, [r0, #0]
1000455a:	2202      	movs	r2, #2
1000455c:	6819      	ldr	r1, [r3, #0]
1000455e:	4051      	eors	r1, r2
10004560:	3201      	adds	r2, #1
10004562:	400a      	ands	r2, r1
10004564:	2104      	movs	r1, #4
10004566:	6002      	str	r2, [r0, #0]
10004568:	689a      	ldr	r2, [r3, #8]
1000456a:	4211      	tst	r1, r2
1000456c:	d0fc      	beq.n	10004568 <clocks_init+0xbc>
1000456e:	2180      	movs	r1, #128	@ 0x80
10004570:	4a6a      	ldr	r2, [pc, #424]	@ (1000471c <clocks_init+0x270>)
10004572:	0109      	lsls	r1, r1, #4
10004574:	6011      	str	r1, [r2, #0]
10004576:	2280      	movs	r2, #128	@ 0x80
10004578:	0052      	lsls	r2, r2, #1
1000457a:	605a      	str	r2, [r3, #4]
1000457c:	4b68      	ldr	r3, [pc, #416]	@ (10004720 <clocks_init+0x274>)
1000457e:	6123      	str	r3, [r4, #16]
10004580:	4b68      	ldr	r3, [pc, #416]	@ (10004724 <clocks_init+0x278>)
10004582:	6859      	ldr	r1, [r3, #4]
10004584:	29ff      	cmp	r1, #255	@ 0xff
10004586:	d800      	bhi.n	1000458a <clocks_init+0xde>
10004588:	605a      	str	r2, [r3, #4]
1000458a:	2203      	movs	r2, #3
1000458c:	2101      	movs	r1, #1
1000458e:	4b5b      	ldr	r3, [pc, #364]	@ (100046fc <clocks_init+0x250>)
10004590:	601a      	str	r2, [r3, #0]
10004592:	4a64      	ldr	r2, [pc, #400]	@ (10004724 <clocks_init+0x278>)
10004594:	6893      	ldr	r3, [r2, #8]
10004596:	4219      	tst	r1, r3
10004598:	d0fc      	beq.n	10004594 <clocks_init+0xe8>
1000459a:	23e0      	movs	r3, #224	@ 0xe0
1000459c:	6810      	ldr	r0, [r2, #0]
1000459e:	4003      	ands	r3, r0
100045a0:	4861      	ldr	r0, [pc, #388]	@ (10004728 <clocks_init+0x27c>)
100045a2:	6003      	str	r3, [r0, #0]
100045a4:	6812      	ldr	r2, [r2, #0]
100045a6:	2303      	movs	r3, #3
100045a8:	404a      	eors	r2, r1
100045aa:	2102      	movs	r1, #2
100045ac:	4013      	ands	r3, r2
100045ae:	4a5d      	ldr	r2, [pc, #372]	@ (10004724 <clocks_init+0x278>)
100045b0:	6003      	str	r3, [r0, #0]
100045b2:	6893      	ldr	r3, [r2, #8]
100045b4:	4219      	tst	r1, r3
100045b6:	d0fc      	beq.n	100045b2 <clocks_init+0x106>
100045b8:	2180      	movs	r1, #128	@ 0x80
100045ba:	4b5c      	ldr	r3, [pc, #368]	@ (1000472c <clocks_init+0x280>)
100045bc:	0109      	lsls	r1, r1, #4
100045be:	6019      	str	r1, [r3, #0]
100045c0:	2180      	movs	r1, #128	@ 0x80
100045c2:	4b5b      	ldr	r3, [pc, #364]	@ (10004730 <clocks_init+0x284>)
100045c4:	0049      	lsls	r1, r1, #1
100045c6:	6051      	str	r1, [r2, #4]
100045c8:	6163      	str	r3, [r4, #20]
100045ca:	4b5a      	ldr	r3, [pc, #360]	@ (10004734 <clocks_init+0x288>)
100045cc:	685a      	ldr	r2, [r3, #4]
100045ce:	2aff      	cmp	r2, #255	@ 0xff
100045d0:	d800      	bhi.n	100045d4 <clocks_init+0x128>
100045d2:	6059      	str	r1, [r3, #4]
100045d4:	2280      	movs	r2, #128	@ 0x80
100045d6:	4b58      	ldr	r3, [pc, #352]	@ (10004738 <clocks_init+0x28c>)
100045d8:	0112      	lsls	r2, r2, #4
100045da:	601a      	str	r2, [r3, #0]
100045dc:	69e1      	ldr	r1, [r4, #28]
100045de:	2900      	cmp	r1, #0
100045e0:	d007      	beq.n	100045f2 <clocks_init+0x146>
100045e2:	6960      	ldr	r0, [r4, #20]
100045e4:	f001 fddc 	bl	100061a0 <__wrap___aeabi_uidiv>
100045e8:	3001      	adds	r0, #1
100045ea:	0043      	lsls	r3, r0, #1
100045ec:	181b      	adds	r3, r3, r0
100045ee:	3b03      	subs	r3, #3
100045f0:	d2fd      	bcs.n	100045ee <clocks_init+0x142>
100045f2:	23e0      	movs	r3, #224	@ 0xe0
100045f4:	4a4f      	ldr	r2, [pc, #316]	@ (10004734 <clocks_init+0x288>)
100045f6:	6811      	ldr	r1, [r2, #0]
100045f8:	400b      	ands	r3, r1
100045fa:	4950      	ldr	r1, [pc, #320]	@ (1000473c <clocks_init+0x290>)
100045fc:	600b      	str	r3, [r1, #0]
100045fe:	2180      	movs	r1, #128	@ 0x80
10004600:	4b4f      	ldr	r3, [pc, #316]	@ (10004740 <clocks_init+0x294>)
10004602:	0109      	lsls	r1, r1, #4
10004604:	6019      	str	r1, [r3, #0]
10004606:	2180      	movs	r1, #128	@ 0x80
10004608:	4b39      	ldr	r3, [pc, #228]	@ (100046f0 <clocks_init+0x244>)
1000460a:	0049      	lsls	r1, r1, #1
1000460c:	6051      	str	r1, [r2, #4]
1000460e:	61e3      	str	r3, [r4, #28]
10004610:	4b4c      	ldr	r3, [pc, #304]	@ (10004744 <clocks_init+0x298>)
10004612:	685a      	ldr	r2, [r3, #4]
10004614:	2aff      	cmp	r2, #255	@ 0xff
10004616:	d800      	bhi.n	1000461a <clocks_init+0x16e>
10004618:	6059      	str	r1, [r3, #4]
1000461a:	2280      	movs	r2, #128	@ 0x80
1000461c:	4b4a      	ldr	r3, [pc, #296]	@ (10004748 <clocks_init+0x29c>)
1000461e:	0112      	lsls	r2, r2, #4
10004620:	601a      	str	r2, [r3, #0]
10004622:	6a21      	ldr	r1, [r4, #32]
10004624:	2900      	cmp	r1, #0
10004626:	d007      	beq.n	10004638 <clocks_init+0x18c>
10004628:	6960      	ldr	r0, [r4, #20]
1000462a:	f001 fdb9 	bl	100061a0 <__wrap___aeabi_uidiv>
1000462e:	3001      	adds	r0, #1
10004630:	0043      	lsls	r3, r0, #1
10004632:	181b      	adds	r3, r3, r0
10004634:	3b03      	subs	r3, #3
10004636:	d2fd      	bcs.n	10004634 <clocks_init+0x188>
10004638:	23e0      	movs	r3, #224	@ 0xe0
1000463a:	4a42      	ldr	r2, [pc, #264]	@ (10004744 <clocks_init+0x298>)
1000463c:	6811      	ldr	r1, [r2, #0]
1000463e:	400b      	ands	r3, r1
10004640:	4942      	ldr	r1, [pc, #264]	@ (1000474c <clocks_init+0x2a0>)
10004642:	600b      	str	r3, [r1, #0]
10004644:	2180      	movs	r1, #128	@ 0x80
10004646:	4b42      	ldr	r3, [pc, #264]	@ (10004750 <clocks_init+0x2a4>)
10004648:	0109      	lsls	r1, r1, #4
1000464a:	6019      	str	r1, [r3, #0]
1000464c:	2380      	movs	r3, #128	@ 0x80
1000464e:	005b      	lsls	r3, r3, #1
10004650:	6053      	str	r3, [r2, #4]
10004652:	2280      	movs	r2, #128	@ 0x80
10004654:	4b26      	ldr	r3, [pc, #152]	@ (100046f0 <clocks_init+0x244>)
10004656:	02d2      	lsls	r2, r2, #11
10004658:	6223      	str	r3, [r4, #32]
1000465a:	4b3e      	ldr	r3, [pc, #248]	@ (10004754 <clocks_init+0x2a8>)
1000465c:	6859      	ldr	r1, [r3, #4]
1000465e:	4291      	cmp	r1, r2
10004660:	d200      	bcs.n	10004664 <clocks_init+0x1b8>
10004662:	605a      	str	r2, [r3, #4]
10004664:	2280      	movs	r2, #128	@ 0x80
10004666:	4b3c      	ldr	r3, [pc, #240]	@ (10004758 <clocks_init+0x2ac>)
10004668:	0112      	lsls	r2, r2, #4
1000466a:	601a      	str	r2, [r3, #0]
1000466c:	6a61      	ldr	r1, [r4, #36]	@ 0x24
1000466e:	2900      	cmp	r1, #0
10004670:	d007      	beq.n	10004682 <clocks_init+0x1d6>
10004672:	6960      	ldr	r0, [r4, #20]
10004674:	f001 fd94 	bl	100061a0 <__wrap___aeabi_uidiv>
10004678:	3001      	adds	r0, #1
1000467a:	0043      	lsls	r3, r0, #1
1000467c:	181b      	adds	r3, r3, r0
1000467e:	3b03      	subs	r3, #3
10004680:	d2fd      	bcs.n	1000467e <clocks_init+0x1d2>
10004682:	23e0      	movs	r3, #224	@ 0xe0
10004684:	4a33      	ldr	r2, [pc, #204]	@ (10004754 <clocks_init+0x2a8>)
10004686:	6811      	ldr	r1, [r2, #0]
10004688:	400b      	ands	r3, r1
1000468a:	4934      	ldr	r1, [pc, #208]	@ (1000475c <clocks_init+0x2b0>)
1000468c:	600b      	str	r3, [r1, #0]
1000468e:	2180      	movs	r1, #128	@ 0x80
10004690:	4b33      	ldr	r3, [pc, #204]	@ (10004760 <clocks_init+0x2b4>)
10004692:	0109      	lsls	r1, r1, #4
10004694:	6019      	str	r1, [r3, #0]
10004696:	2380      	movs	r3, #128	@ 0x80
10004698:	02db      	lsls	r3, r3, #11
1000469a:	6053      	str	r3, [r2, #4]
1000469c:	4b15      	ldr	r3, [pc, #84]	@ (100046f4 <clocks_init+0x248>)
1000469e:	6263      	str	r3, [r4, #36]	@ 0x24
100046a0:	4b30      	ldr	r3, [pc, #192]	@ (10004764 <clocks_init+0x2b8>)
100046a2:	685a      	ldr	r2, [r3, #4]
100046a4:	2aff      	cmp	r2, #255	@ 0xff
100046a6:	d802      	bhi.n	100046ae <clocks_init+0x202>
100046a8:	2280      	movs	r2, #128	@ 0x80
100046aa:	0052      	lsls	r2, r2, #1
100046ac:	605a      	str	r2, [r3, #4]
100046ae:	2280      	movs	r2, #128	@ 0x80
100046b0:	4b2d      	ldr	r3, [pc, #180]	@ (10004768 <clocks_init+0x2bc>)
100046b2:	0112      	lsls	r2, r2, #4
100046b4:	601a      	str	r2, [r3, #0]
100046b6:	69a1      	ldr	r1, [r4, #24]
100046b8:	2900      	cmp	r1, #0
100046ba:	d007      	beq.n	100046cc <clocks_init+0x220>
100046bc:	6960      	ldr	r0, [r4, #20]
100046be:	f001 fd6f 	bl	100061a0 <__wrap___aeabi_uidiv>
100046c2:	3001      	adds	r0, #1
100046c4:	0043      	lsls	r3, r0, #1
100046c6:	181b      	adds	r3, r3, r0
100046c8:	3b03      	subs	r3, #3
100046ca:	d2fd      	bcs.n	100046c8 <clocks_init+0x21c>
100046cc:	23e0      	movs	r3, #224	@ 0xe0
100046ce:	4a25      	ldr	r2, [pc, #148]	@ (10004764 <clocks_init+0x2b8>)
100046d0:	6811      	ldr	r1, [r2, #0]
100046d2:	400b      	ands	r3, r1
100046d4:	4925      	ldr	r1, [pc, #148]	@ (1000476c <clocks_init+0x2c0>)
100046d6:	600b      	str	r3, [r1, #0]
100046d8:	2180      	movs	r1, #128	@ 0x80
100046da:	4b25      	ldr	r3, [pc, #148]	@ (10004770 <clocks_init+0x2c4>)
100046dc:	0109      	lsls	r1, r1, #4
100046de:	6019      	str	r1, [r3, #0]
100046e0:	2380      	movs	r3, #128	@ 0x80
100046e2:	005b      	lsls	r3, r3, #1
100046e4:	6053      	str	r3, [r2, #4]
100046e6:	4b12      	ldr	r3, [pc, #72]	@ (10004730 <clocks_init+0x284>)
100046e8:	61a3      	str	r3, [r4, #24]
100046ea:	e6f7      	b.n	100044dc <clocks_init+0x30>
100046ec:	200002a0 	.word	0x200002a0
100046f0:	02dc6c00 	.word	0x02dc6c00
100046f4:	0000b71b 	.word	0x0000b71b
100046f8:	40008000 	.word	0x40008000
100046fc:	4000b03c 	.word	0x4000b03c
10004700:	4000b030 	.word	0x4000b030
10004704:	59682f00 	.word	0x59682f00
10004708:	40028000 	.word	0x40028000
1000470c:	47868c00 	.word	0x47868c00
10004710:	4002c000 	.word	0x4002c000
10004714:	40008030 	.word	0x40008030
10004718:	40009030 	.word	0x40009030
1000471c:	4000a030 	.word	0x4000a030
10004720:	00b71b00 	.word	0x00b71b00
10004724:	4000803c 	.word	0x4000803c
10004728:	4000903c 	.word	0x4000903c
1000472c:	4000a03c 	.word	0x4000a03c
10004730:	07735940 	.word	0x07735940
10004734:	40008054 	.word	0x40008054
10004738:	4000b054 	.word	0x4000b054
1000473c:	40009054 	.word	0x40009054
10004740:	4000a054 	.word	0x4000a054
10004744:	40008060 	.word	0x40008060
10004748:	4000b060 	.word	0x4000b060
1000474c:	40009060 	.word	0x40009060
10004750:	4000a060 	.word	0x4000a060
10004754:	4000806c 	.word	0x4000806c
10004758:	4000b06c 	.word	0x4000b06c
1000475c:	4000906c 	.word	0x4000906c
10004760:	4000a06c 	.word	0x4000a06c
10004764:	40008048 	.word	0x40008048
10004768:	4000b048 	.word	0x4000b048
1000476c:	40009048 	.word	0x40009048
10004770:	4000a048 	.word	0x4000a048

10004774 <clock_get_hz>:
10004774:	4b01      	ldr	r3, [pc, #4]	@ (1000477c <clock_get_hz+0x8>)
10004776:	0080      	lsls	r0, r0, #2
10004778:	58c0      	ldr	r0, [r0, r3]
1000477a:	4770      	bx	lr
1000477c:	200002a0 	.word	0x200002a0

10004780 <pll_init>:
10004780:	b5f8      	push	{r3, r4, r5, r6, r7, lr}
10004782:	0004      	movs	r4, r0
10004784:	4821      	ldr	r0, [pc, #132]	@ (1000480c <pll_init+0x8c>)
10004786:	001d      	movs	r5, r3
10004788:	0017      	movs	r7, r2
1000478a:	000e      	movs	r6, r1
1000478c:	f001 fd08 	bl	100061a0 <__wrap___aeabi_uidiv>
10004790:	0001      	movs	r1, r0
10004792:	0038      	movs	r0, r7
10004794:	f001 fd04 	bl	100061a0 <__wrap___aeabi_uidiv>
10004798:	9b06      	ldr	r3, [sp, #24]
1000479a:	0429      	lsls	r1, r5, #16
1000479c:	031b      	lsls	r3, r3, #12
1000479e:	4319      	orrs	r1, r3
100047a0:	6823      	ldr	r3, [r4, #0]
100047a2:	2b00      	cmp	r3, #0
100047a4:	db20      	blt.n	100047e8 <pll_init+0x68>
100047a6:	4b1a      	ldr	r3, [pc, #104]	@ (10004810 <pll_init+0x90>)
100047a8:	4d1a      	ldr	r5, [pc, #104]	@ (10004814 <pll_init+0x94>)
100047aa:	18e2      	adds	r2, r4, r3
100047ac:	4253      	negs	r3, r2
100047ae:	415a      	adcs	r2, r3
100047b0:	2380      	movs	r3, #128	@ 0x80
100047b2:	015b      	lsls	r3, r3, #5
100047b4:	469c      	mov	ip, r3
100047b6:	0312      	lsls	r2, r2, #12
100047b8:	4b17      	ldr	r3, [pc, #92]	@ (10004818 <pll_init+0x98>)
100047ba:	4462      	add	r2, ip
100047bc:	601a      	str	r2, [r3, #0]
100047be:	4b17      	ldr	r3, [pc, #92]	@ (1000481c <pll_init+0x9c>)
100047c0:	601a      	str	r2, [r3, #0]
100047c2:	0017      	movs	r7, r2
100047c4:	68ab      	ldr	r3, [r5, #8]
100047c6:	439f      	bics	r7, r3
100047c8:	d1fb      	bne.n	100047c2 <pll_init+0x42>
100047ca:	22c0      	movs	r2, #192	@ 0xc0
100047cc:	1d23      	adds	r3, r4, #4
100047ce:	0192      	lsls	r2, r2, #6
100047d0:	431a      	orrs	r2, r3
100047d2:	2321      	movs	r3, #33	@ 0x21
100047d4:	6026      	str	r6, [r4, #0]
100047d6:	60a0      	str	r0, [r4, #8]
100047d8:	6013      	str	r3, [r2, #0]
100047da:	6823      	ldr	r3, [r4, #0]
100047dc:	2b00      	cmp	r3, #0
100047de:	dafc      	bge.n	100047da <pll_init+0x5a>
100047e0:	2308      	movs	r3, #8
100047e2:	60e1      	str	r1, [r4, #12]
100047e4:	6013      	str	r3, [r2, #0]
100047e6:	bdf8      	pop	{r3, r4, r5, r6, r7, pc}
100047e8:	233f      	movs	r3, #63	@ 0x3f
100047ea:	6822      	ldr	r2, [r4, #0]
100047ec:	4013      	ands	r3, r2
100047ee:	42b3      	cmp	r3, r6
100047f0:	d1d9      	bne.n	100047a6 <pll_init+0x26>
100047f2:	68a3      	ldr	r3, [r4, #8]
100047f4:	051b      	lsls	r3, r3, #20
100047f6:	0d1b      	lsrs	r3, r3, #20
100047f8:	4283      	cmp	r3, r0
100047fa:	d1d4      	bne.n	100047a6 <pll_init+0x26>
100047fc:	22ee      	movs	r2, #238	@ 0xee
100047fe:	68e3      	ldr	r3, [r4, #12]
10004800:	02d2      	lsls	r2, r2, #11
10004802:	4013      	ands	r3, r2
10004804:	428b      	cmp	r3, r1
10004806:	d1ce      	bne.n	100047a6 <pll_init+0x26>
10004808:	e7ed      	b.n	100047e6 <pll_init+0x66>
1000480a:	46c0      	nop			@ (mov r8, r8)
1000480c:	00b71b00 	.word	0x00b71b00
10004810:	bffd4000 	.word	0xbffd4000
10004814:	4000c000 	.word	0x4000c000
10004818:	4000e000 	.word	0x4000e000
1000481c:	4000f000 	.word	0x4000f000

10004820 <watchdog_start_tick>:
10004820:	2380      	movs	r3, #128	@ 0x80
10004822:	4a02      	ldr	r2, [pc, #8]	@ (1000482c <watchdog_start_tick+0xc>)
10004824:	009b      	lsls	r3, r3, #2
10004826:	4303      	orrs	r3, r0
10004828:	62d3      	str	r3, [r2, #44]	@ 0x2c
1000482a:	4770      	bx	lr
1000482c:	40058000 	.word	0x40058000

10004830 <xosc_init>:
10004830:	23aa      	movs	r3, #170	@ 0xaa
10004832:	4a06      	ldr	r2, [pc, #24]	@ (1000484c <xosc_init+0x1c>)
10004834:	011b      	lsls	r3, r3, #4
10004836:	6013      	str	r3, [r2, #0]
10004838:	232f      	movs	r3, #47	@ 0x2f
1000483a:	4905      	ldr	r1, [pc, #20]	@ (10004850 <xosc_init+0x20>)
1000483c:	60d3      	str	r3, [r2, #12]
1000483e:	4b05      	ldr	r3, [pc, #20]	@ (10004854 <xosc_init+0x24>)
10004840:	6019      	str	r1, [r3, #0]
10004842:	6853      	ldr	r3, [r2, #4]
10004844:	2b00      	cmp	r3, #0
10004846:	dafc      	bge.n	10004842 <xosc_init+0x12>
10004848:	4770      	bx	lr
1000484a:	46c0      	nop			@ (mov r8, r8)
1000484c:	40024000 	.word	0x40024000
10004850:	00fab000 	.word	0x00fab000
10004854:	40026000 	.word	0x40026000

10004858 <runtime_init>:
10004858:	4b2b      	ldr	r3, [pc, #172]	@ (10004908 <runtime_init+0xb0>)
1000485a:	4a2c      	ldr	r2, [pc, #176]	@ (1000490c <runtime_init+0xb4>)
1000485c:	b570      	push	{r4, r5, r6, lr}
1000485e:	601a      	str	r2, [r3, #0]
10004860:	4a2b      	ldr	r2, [pc, #172]	@ (10004910 <runtime_init+0xb8>)
10004862:	4b2c      	ldr	r3, [pc, #176]	@ (10004914 <runtime_init+0xbc>)
10004864:	492c      	ldr	r1, [pc, #176]	@ (10004918 <runtime_init+0xc0>)
10004866:	601a      	str	r2, [r3, #0]
10004868:	0014      	movs	r4, r2
1000486a:	688b      	ldr	r3, [r1, #8]
1000486c:	439c      	bics	r4, r3
1000486e:	d1fb      	bne.n	10004868 <runtime_init+0x10>
10004870:	4d2a      	ldr	r5, [pc, #168]	@ (1000491c <runtime_init+0xc4>)
10004872:	4e2b      	ldr	r6, [pc, #172]	@ (10004920 <runtime_init+0xc8>)
10004874:	42b5      	cmp	r5, r6
10004876:	d208      	bcs.n	1000488a <runtime_init+0x32>
10004878:	3e01      	subs	r6, #1
1000487a:	1b76      	subs	r6, r6, r5
1000487c:	08b6      	lsrs	r6, r6, #2
1000487e:	cd08      	ldmia	r5!, {r3}
10004880:	4798      	blx	r3
10004882:	0023      	movs	r3, r4
10004884:	3401      	adds	r4, #1
10004886:	42b3      	cmp	r3, r6
10004888:	d1f9      	bne.n	1000487e <runtime_init+0x26>
1000488a:	f7ff fe0f 	bl	100044ac <clocks_init>
1000488e:	4a25      	ldr	r2, [pc, #148]	@ (10004924 <runtime_init+0xcc>)
10004890:	4b20      	ldr	r3, [pc, #128]	@ (10004914 <runtime_init+0xbc>)
10004892:	601a      	str	r2, [r3, #0]
10004894:	4a20      	ldr	r2, [pc, #128]	@ (10004918 <runtime_init+0xc0>)
10004896:	6893      	ldr	r3, [r2, #8]
10004898:	43db      	mvns	r3, r3
1000489a:	01db      	lsls	r3, r3, #7
1000489c:	09dd      	lsrs	r5, r3, #7
1000489e:	2b00      	cmp	r3, #0
100048a0:	d1f9      	bne.n	10004896 <runtime_init+0x3e>
100048a2:	2240      	movs	r2, #64	@ 0x40
100048a4:	4b20      	ldr	r3, [pc, #128]	@ (10004928 <runtime_init+0xd0>)
100048a6:	4e21      	ldr	r6, [pc, #132]	@ (1000492c <runtime_init+0xd4>)
100048a8:	4c21      	ldr	r4, [pc, #132]	@ (10004930 <runtime_init+0xd8>)
100048aa:	679a      	str	r2, [r3, #120]	@ 0x78
100048ac:	675a      	str	r2, [r3, #116]	@ 0x74
100048ae:	671a      	str	r2, [r3, #112]	@ 0x70
100048b0:	66da      	str	r2, [r3, #108]	@ 0x6c
100048b2:	42b4      	cmp	r4, r6
100048b4:	d208      	bcs.n	100048c8 <runtime_init+0x70>
100048b6:	6823      	ldr	r3, [r4, #0]
100048b8:	0020      	movs	r0, r4
100048ba:	3408      	adds	r4, #8
100048bc:	2b00      	cmp	r3, #0
100048be:	d01f      	beq.n	10004900 <runtime_init+0xa8>
100048c0:	f7fe fef8 	bl	100036b4 <recursive_mutex_init>
100048c4:	42b4      	cmp	r4, r6
100048c6:	d3f6      	bcc.n	100048b6 <runtime_init+0x5e>
100048c8:	4c1a      	ldr	r4, [pc, #104]	@ (10004934 <runtime_init+0xdc>)
100048ca:	4e1b      	ldr	r6, [pc, #108]	@ (10004938 <runtime_init+0xe0>)
100048cc:	22c0      	movs	r2, #192	@ 0xc0
100048ce:	68b1      	ldr	r1, [r6, #8]
100048d0:	0020      	movs	r0, r4
100048d2:	f002 fdf9 	bl	100074c8 <__wrap___aeabi_memcpy>
100048d6:	60b4      	str	r4, [r6, #8]
100048d8:	f7fe fd1e 	bl	10003318 <spin_locks_reset>
100048dc:	f7fe fec2 	bl	10003664 <irq_init_priorities>
100048e0:	f7ff f884 	bl	100039ec <alarm_pool_init_default>
100048e4:	4c15      	ldr	r4, [pc, #84]	@ (1000493c <runtime_init+0xe4>)
100048e6:	4e16      	ldr	r6, [pc, #88]	@ (10004940 <runtime_init+0xe8>)
100048e8:	42b4      	cmp	r4, r6
100048ea:	d208      	bcs.n	100048fe <runtime_init+0xa6>
100048ec:	3e01      	subs	r6, #1
100048ee:	1b36      	subs	r6, r6, r4
100048f0:	08b6      	lsrs	r6, r6, #2
100048f2:	cc08      	ldmia	r4!, {r3}
100048f4:	4798      	blx	r3
100048f6:	002b      	movs	r3, r5
100048f8:	3501      	adds	r5, #1
100048fa:	429e      	cmp	r6, r3
100048fc:	d1f9      	bne.n	100048f2 <runtime_init+0x9a>
100048fe:	bd70      	pop	{r4, r5, r6, pc}
10004900:	f7fe feca 	bl	10003698 <mutex_init>
10004904:	e7d5      	b.n	100048b2 <runtime_init+0x5a>
10004906:	46c0      	nop			@ (mov r8, r8)
10004908:	4000e000 	.word	0x4000e000
1000490c:	fefbcdbf 	.word	0xfefbcdbf
10004910:	003c7ffe 	.word	0x003c7ffe
10004914:	4000f000 	.word	0x4000f000
10004918:	4000c000 	.word	0x4000c000
1000491c:	20000278 	.word	0x20000278
10004920:	20000288 	.word	0x20000288
10004924:	01ffffff 	.word	0x01ffffff
10004928:	4001f000 	.word	0x4001f000
1000492c:	20000278 	.word	0x20000278
10004930:	20000268 	.word	0x20000268
10004934:	20000000 	.word	0x20000000
10004938:	e000ed00 	.word	0xe000ed00
1000493c:	20000288 	.word	0x20000288
10004940:	20000290 	.word	0x20000290

10004944 <_exit>:
10004944:	be00      	bkpt	0x0000
10004946:	e7fd      	b.n	10004944 <_exit>

10004948 <exit>:
10004948:	b510      	push	{r4, lr}
1000494a:	f7ff fffb 	bl	10004944 <_exit>
1000494e:	46c0      	nop			@ (mov r8, r8)

10004950 <panic>:
10004950:	b40f      	push	{r0, r1, r2, r3}
10004952:	b500      	push	{lr}
10004954:	4808      	ldr	r0, [pc, #32]	@ (10004978 <panic+0x28>)
10004956:	b083      	sub	sp, #12
10004958:	f002 fe52 	bl	10007600 <__wrap_puts>
1000495c:	9b04      	ldr	r3, [sp, #16]
1000495e:	2b00      	cmp	r3, #0
10004960:	d007      	beq.n	10004972 <panic+0x22>
10004962:	a905      	add	r1, sp, #20
10004964:	0018      	movs	r0, r3
10004966:	9101      	str	r1, [sp, #4]
10004968:	f001 fba0 	bl	100060ac <weak_raw_vprintf>
1000496c:	4803      	ldr	r0, [pc, #12]	@ (1000497c <panic+0x2c>)
1000496e:	f002 fe47 	bl	10007600 <__wrap_puts>
10004972:	2001      	movs	r0, #1
10004974:	f7ff ffe6 	bl	10004944 <_exit>
10004978:	100086b0 	.word	0x100086b0
1000497c:	100086c0 	.word	0x100086c0

10004980 <hard_assertion_failure>:
10004980:	b510      	push	{r4, lr}
10004982:	4801      	ldr	r0, [pc, #4]	@ (10004988 <hard_assertion_failure+0x8>)
10004984:	f7ff ffe4 	bl	10004950 <panic>
10004988:	100086c4 	.word	0x100086c4

1000498c <_out_buffer>:
1000498c:	429a      	cmp	r2, r3
1000498e:	d200      	bcs.n	10004992 <_out_buffer+0x6>
10004990:	5488      	strb	r0, [r1, r2]
10004992:	4770      	bx	lr

10004994 <_out_null>:
10004994:	4770      	bx	lr
10004996:	46c0      	nop			@ (mov r8, r8)

10004998 <_out_rev>:
10004998:	b5f8      	push	{r3, r4, r5, r6, r7, lr}
1000499a:	4657      	mov	r7, sl
1000499c:	4645      	mov	r5, r8
1000499e:	46de      	mov	lr, fp
100049a0:	464e      	mov	r6, r9
100049a2:	b5e0      	push	{r5, r6, r7, lr}
100049a4:	4698      	mov	r8, r3
100049a6:	9b0a      	ldr	r3, [sp, #40]	@ 0x28
100049a8:	0006      	movs	r6, r0
100049aa:	469a      	mov	sl, r3
100049ac:	9b0d      	ldr	r3, [sp, #52]	@ 0x34
100049ae:	000f      	movs	r7, r1
100049b0:	4693      	mov	fp, r2
100049b2:	0015      	movs	r5, r2
100049b4:	079b      	lsls	r3, r3, #30
100049b6:	d110      	bne.n	100049da <_out_rev+0x42>
100049b8:	9b0b      	ldr	r3, [sp, #44]	@ 0x2c
100049ba:	9a0c      	ldr	r2, [sp, #48]	@ 0x30
100049bc:	4293      	cmp	r3, r2
100049be:	d20c      	bcs.n	100049da <_out_rev+0x42>
100049c0:	0013      	movs	r3, r2
100049c2:	465c      	mov	r4, fp
100049c4:	9a0b      	ldr	r2, [sp, #44]	@ 0x2c
100049c6:	1a9d      	subs	r5, r3, r2
100049c8:	445d      	add	r5, fp
100049ca:	0022      	movs	r2, r4
100049cc:	4643      	mov	r3, r8
100049ce:	3401      	adds	r4, #1
100049d0:	0039      	movs	r1, r7
100049d2:	2020      	movs	r0, #32
100049d4:	47b0      	blx	r6
100049d6:	42a5      	cmp	r5, r4
100049d8:	d1f7      	bne.n	100049ca <_out_rev+0x32>
100049da:	9c0b      	ldr	r4, [sp, #44]	@ 0x2c
100049dc:	1963      	adds	r3, r4, r5
100049de:	2c00      	cmp	r4, #0
100049e0:	d009      	beq.n	100049f6 <_out_rev+0x5e>
100049e2:	001d      	movs	r5, r3
100049e4:	4653      	mov	r3, sl
100049e6:	1b2a      	subs	r2, r5, r4
100049e8:	3c01      	subs	r4, #1
100049ea:	5d18      	ldrb	r0, [r3, r4]
100049ec:	0039      	movs	r1, r7
100049ee:	4643      	mov	r3, r8
100049f0:	47b0      	blx	r6
100049f2:	2c00      	cmp	r4, #0
100049f4:	d1f6      	bne.n	100049e4 <_out_rev+0x4c>
100049f6:	9b0d      	ldr	r3, [sp, #52]	@ 0x34
100049f8:	079b      	lsls	r3, r3, #30
100049fa:	d50e      	bpl.n	10004a1a <_out_rev+0x82>
100049fc:	465b      	mov	r3, fp
100049fe:	1aec      	subs	r4, r5, r3
10004a00:	9b0c      	ldr	r3, [sp, #48]	@ 0x30
10004a02:	42a3      	cmp	r3, r4
10004a04:	d909      	bls.n	10004a1a <_out_rev+0x82>
10004a06:	4699      	mov	r9, r3
10004a08:	002a      	movs	r2, r5
10004a0a:	4643      	mov	r3, r8
10004a0c:	0039      	movs	r1, r7
10004a0e:	2020      	movs	r0, #32
10004a10:	3401      	adds	r4, #1
10004a12:	47b0      	blx	r6
10004a14:	3501      	adds	r5, #1
10004a16:	45a1      	cmp	r9, r4
10004a18:	d8f6      	bhi.n	10004a08 <_out_rev+0x70>
10004a1a:	0028      	movs	r0, r5
10004a1c:	bcf0      	pop	{r4, r5, r6, r7}
10004a1e:	46bb      	mov	fp, r7
10004a20:	46b2      	mov	sl, r6
10004a22:	46a9      	mov	r9, r5
10004a24:	46a0      	mov	r8, r4
10004a26:	bdf8      	pop	{r3, r4, r5, r6, r7, pc}

10004a28 <_ntoa_format>:
10004a28:	b5f0      	push	{r4, r5, r6, r7, lr}
10004a2a:	464f      	mov	r7, r9
10004a2c:	4646      	mov	r6, r8
10004a2e:	46d6      	mov	lr, sl
10004a30:	b5c0      	push	{r6, r7, lr}
10004a32:	b084      	sub	sp, #16
10004a34:	4698      	mov	r8, r3
10004a36:	ab0e      	add	r3, sp, #56	@ 0x38
10004a38:	781b      	ldrb	r3, [r3, #0]
10004a3a:	4694      	mov	ip, r2
10004a3c:	4699      	mov	r9, r3
10004a3e:	9b12      	ldr	r3, [sp, #72]	@ 0x48
10004a40:	9c0d      	ldr	r4, [sp, #52]	@ 0x34
10004a42:	9f10      	ldr	r7, [sp, #64]	@ 0x40
10004a44:	9e11      	ldr	r6, [sp, #68]	@ 0x44
10004a46:	079a      	lsls	r2, r3, #30
10004a48:	d424      	bmi.n	10004a94 <_ntoa_format+0x6c>
10004a4a:	2e00      	cmp	r6, #0
10004a4c:	d16a      	bne.n	10004b24 <_ntoa_format+0xfc>
10004a4e:	42bc      	cmp	r4, r7
10004a50:	d220      	bcs.n	10004a94 <_ntoa_format+0x6c>
10004a52:	2201      	movs	r2, #1
10004a54:	401a      	ands	r2, r3
10004a56:	4692      	mov	sl, r2
10004a58:	2c20      	cmp	r4, #32
10004a5a:	d100      	bne.n	10004a5e <_ntoa_format+0x36>
10004a5c:	e0d2      	b.n	10004c04 <_ntoa_format+0x1dc>
10004a5e:	9a0c      	ldr	r2, [sp, #48]	@ 0x30
10004a60:	1e55      	subs	r5, r2, #1
10004a62:	2230      	movs	r2, #48	@ 0x30
10004a64:	e001      	b.n	10004a6a <_ntoa_format+0x42>
10004a66:	2c20      	cmp	r4, #32
10004a68:	d030      	beq.n	10004acc <_ntoa_format+0xa4>
10004a6a:	3401      	adds	r4, #1
10004a6c:	552a      	strb	r2, [r5, r4]
10004a6e:	42a7      	cmp	r7, r4
10004a70:	d8f9      	bhi.n	10004a66 <_ntoa_format+0x3e>
10004a72:	4652      	mov	r2, sl
10004a74:	2a00      	cmp	r2, #0
10004a76:	d00d      	beq.n	10004a94 <_ntoa_format+0x6c>
10004a78:	42b4      	cmp	r4, r6
10004a7a:	d20b      	bcs.n	10004a94 <_ntoa_format+0x6c>
10004a7c:	9a0c      	ldr	r2, [sp, #48]	@ 0x30
10004a7e:	1e55      	subs	r5, r2, #1
10004a80:	2230      	movs	r2, #48	@ 0x30
10004a82:	2c20      	cmp	r4, #32
10004a84:	d102      	bne.n	10004a8c <_ntoa_format+0x64>
10004a86:	e026      	b.n	10004ad6 <_ntoa_format+0xae>
10004a88:	2c20      	cmp	r4, #32
10004a8a:	d063      	beq.n	10004b54 <_ntoa_format+0x12c>
10004a8c:	3401      	adds	r4, #1
10004a8e:	552a      	strb	r2, [r5, r4]
10004a90:	42b4      	cmp	r4, r6
10004a92:	d1f9      	bne.n	10004a88 <_ntoa_format+0x60>
10004a94:	06da      	lsls	r2, r3, #27
10004a96:	d534      	bpl.n	10004b02 <_ntoa_format+0xda>
10004a98:	055a      	lsls	r2, r3, #21
10004a9a:	d464      	bmi.n	10004b66 <_ntoa_format+0x13e>
10004a9c:	2c00      	cmp	r4, #0
10004a9e:	d15e      	bne.n	10004b5e <_ntoa_format+0x136>
10004aa0:	9a0f      	ldr	r2, [sp, #60]	@ 0x3c
10004aa2:	2a10      	cmp	r2, #16
10004aa4:	d100      	bne.n	10004aa8 <_ntoa_format+0x80>
10004aa6:	e097      	b.n	10004bd8 <_ntoa_format+0x1b0>
10004aa8:	2a02      	cmp	r2, #2
10004aaa:	d100      	bne.n	10004aae <_ntoa_format+0x86>
10004aac:	e0a8      	b.n	10004c00 <_ntoa_format+0x1d8>
10004aae:	2230      	movs	r2, #48	@ 0x30
10004ab0:	9c0c      	ldr	r4, [sp, #48]	@ 0x30
10004ab2:	7022      	strb	r2, [r4, #0]
10004ab4:	2401      	movs	r4, #1
10004ab6:	464a      	mov	r2, r9
10004ab8:	2a00      	cmp	r2, #0
10004aba:	d15e      	bne.n	10004b7a <_ntoa_format+0x152>
10004abc:	075a      	lsls	r2, r3, #29
10004abe:	d400      	bmi.n	10004ac2 <_ntoa_format+0x9a>
10004ac0:	e083      	b.n	10004bca <_ntoa_format+0x1a2>
10004ac2:	222b      	movs	r2, #43	@ 0x2b
10004ac4:	9d0c      	ldr	r5, [sp, #48]	@ 0x30
10004ac6:	552a      	strb	r2, [r5, r4]
10004ac8:	3401      	adds	r4, #1
10004aca:	e01c      	b.n	10004b06 <_ntoa_format+0xde>
10004acc:	4652      	mov	r2, sl
10004ace:	2a00      	cmp	r2, #0
10004ad0:	d002      	beq.n	10004ad8 <_ntoa_format+0xb0>
10004ad2:	2e20      	cmp	r6, #32
10004ad4:	d93e      	bls.n	10004b54 <_ntoa_format+0x12c>
10004ad6:	2420      	movs	r4, #32
10004ad8:	06da      	lsls	r2, r3, #27
10004ada:	d514      	bpl.n	10004b06 <_ntoa_format+0xde>
10004adc:	055a      	lsls	r2, r3, #21
10004ade:	d412      	bmi.n	10004b06 <_ntoa_format+0xde>
10004ae0:	2f20      	cmp	r7, #32
10004ae2:	d100      	bne.n	10004ae6 <_ntoa_format+0xbe>
10004ae4:	e0a1      	b.n	10004c2a <_ntoa_format+0x202>
10004ae6:	2e20      	cmp	r6, #32
10004ae8:	d13d      	bne.n	10004b66 <_ntoa_format+0x13e>
10004aea:	2620      	movs	r6, #32
10004aec:	221f      	movs	r2, #31
10004aee:	0034      	movs	r4, r6
10004af0:	9d0f      	ldr	r5, [sp, #60]	@ 0x3c
10004af2:	2d10      	cmp	r5, #16
10004af4:	d100      	bne.n	10004af8 <_ntoa_format+0xd0>
10004af6:	e08b      	b.n	10004c10 <_ntoa_format+0x1e8>
10004af8:	2d02      	cmp	r5, #2
10004afa:	d052      	beq.n	10004ba2 <_ntoa_format+0x17a>
10004afc:	2530      	movs	r5, #48	@ 0x30
10004afe:	9f0c      	ldr	r7, [sp, #48]	@ 0x30
10004b00:	54bd      	strb	r5, [r7, r2]
10004b02:	2c20      	cmp	r4, #32
10004b04:	d1d7      	bne.n	10004ab6 <_ntoa_format+0x8e>
10004b06:	9303      	str	r3, [sp, #12]
10004b08:	9b0c      	ldr	r3, [sp, #48]	@ 0x30
10004b0a:	4662      	mov	r2, ip
10004b0c:	9300      	str	r3, [sp, #0]
10004b0e:	9602      	str	r6, [sp, #8]
10004b10:	4643      	mov	r3, r8
10004b12:	9401      	str	r4, [sp, #4]
10004b14:	f7ff ff40 	bl	10004998 <_out_rev>
10004b18:	b004      	add	sp, #16
10004b1a:	bce0      	pop	{r5, r6, r7}
10004b1c:	46ba      	mov	sl, r7
10004b1e:	46b1      	mov	r9, r6
10004b20:	46a8      	mov	r8, r5
10004b22:	bdf0      	pop	{r4, r5, r6, r7, pc}
10004b24:	2201      	movs	r2, #1
10004b26:	0015      	movs	r5, r2
10004b28:	401d      	ands	r5, r3
10004b2a:	46aa      	mov	sl, r5
10004b2c:	421a      	tst	r2, r3
10004b2e:	d029      	beq.n	10004b84 <_ntoa_format+0x15c>
10004b30:	464a      	mov	r2, r9
10004b32:	2a00      	cmp	r2, #0
10004b34:	d139      	bne.n	10004baa <_ntoa_format+0x182>
10004b36:	320c      	adds	r2, #12
10004b38:	421a      	tst	r2, r3
10004b3a:	d136      	bne.n	10004baa <_ntoa_format+0x182>
10004b3c:	42bc      	cmp	r4, r7
10004b3e:	d29b      	bcs.n	10004a78 <_ntoa_format+0x50>
10004b40:	2c20      	cmp	r4, #32
10004b42:	d000      	beq.n	10004b46 <_ntoa_format+0x11e>
10004b44:	e78b      	b.n	10004a5e <_ntoa_format+0x36>
10004b46:	2210      	movs	r2, #16
10004b48:	401a      	ands	r2, r3
10004b4a:	2e20      	cmp	r6, #32
10004b4c:	d8c3      	bhi.n	10004ad6 <_ntoa_format+0xae>
10004b4e:	2a00      	cmp	r2, #0
10004b50:	d1a2      	bne.n	10004a98 <_ntoa_format+0x70>
10004b52:	e7d8      	b.n	10004b06 <_ntoa_format+0xde>
10004b54:	2420      	movs	r4, #32
10004b56:	06da      	lsls	r2, r3, #27
10004b58:	d5d5      	bpl.n	10004b06 <_ntoa_format+0xde>
10004b5a:	055a      	lsls	r2, r3, #21
10004b5c:	d403      	bmi.n	10004b66 <_ntoa_format+0x13e>
10004b5e:	42a7      	cmp	r7, r4
10004b60:	d025      	beq.n	10004bae <_ntoa_format+0x186>
10004b62:	42b4      	cmp	r4, r6
10004b64:	d023      	beq.n	10004bae <_ntoa_format+0x186>
10004b66:	9a0f      	ldr	r2, [sp, #60]	@ 0x3c
10004b68:	2a10      	cmp	r2, #16
10004b6a:	d025      	beq.n	10004bb8 <_ntoa_format+0x190>
10004b6c:	2a02      	cmp	r2, #2
10004b6e:	d014      	beq.n	10004b9a <_ntoa_format+0x172>
10004b70:	2c20      	cmp	r4, #32
10004b72:	d0c8      	beq.n	10004b06 <_ntoa_format+0xde>
10004b74:	0022      	movs	r2, r4
10004b76:	3401      	adds	r4, #1
10004b78:	e7c0      	b.n	10004afc <_ntoa_format+0xd4>
10004b7a:	222d      	movs	r2, #45	@ 0x2d
10004b7c:	9d0c      	ldr	r5, [sp, #48]	@ 0x30
10004b7e:	552a      	strb	r2, [r5, r4]
10004b80:	3401      	adds	r4, #1
10004b82:	e7c0      	b.n	10004b06 <_ntoa_format+0xde>
10004b84:	42bc      	cmp	r4, r7
10004b86:	d300      	bcc.n	10004b8a <_ntoa_format+0x162>
10004b88:	e784      	b.n	10004a94 <_ntoa_format+0x6c>
10004b8a:	2c20      	cmp	r4, #32
10004b8c:	d000      	beq.n	10004b90 <_ntoa_format+0x168>
10004b8e:	e766      	b.n	10004a5e <_ntoa_format+0x36>
10004b90:	2210      	movs	r2, #16
10004b92:	401a      	ands	r2, r3
10004b94:	2a00      	cmp	r2, #0
10004b96:	d1e0      	bne.n	10004b5a <_ntoa_format+0x132>
10004b98:	e7b5      	b.n	10004b06 <_ntoa_format+0xde>
10004b9a:	2c20      	cmp	r4, #32
10004b9c:	d0b3      	beq.n	10004b06 <_ntoa_format+0xde>
10004b9e:	0022      	movs	r2, r4
10004ba0:	3401      	adds	r4, #1
10004ba2:	2562      	movs	r5, #98	@ 0x62
10004ba4:	9f0c      	ldr	r7, [sp, #48]	@ 0x30
10004ba6:	54bd      	strb	r5, [r7, r2]
10004ba8:	e7e2      	b.n	10004b70 <_ntoa_format+0x148>
10004baa:	3e01      	subs	r6, #1
10004bac:	e7c6      	b.n	10004b3c <_ntoa_format+0x114>
10004bae:	1e62      	subs	r2, r4, #1
10004bb0:	2c01      	cmp	r4, #1
10004bb2:	d100      	bne.n	10004bb6 <_ntoa_format+0x18e>
10004bb4:	e774      	b.n	10004aa0 <_ntoa_format+0x78>
10004bb6:	e79b      	b.n	10004af0 <_ntoa_format+0xc8>
10004bb8:	069a      	lsls	r2, r3, #26
10004bba:	d416      	bmi.n	10004bea <_ntoa_format+0x1c2>
10004bbc:	2c20      	cmp	r4, #32
10004bbe:	d0a2      	beq.n	10004b06 <_ntoa_format+0xde>
10004bc0:	2278      	movs	r2, #120	@ 0x78
10004bc2:	9d0c      	ldr	r5, [sp, #48]	@ 0x30
10004bc4:	552a      	strb	r2, [r5, r4]
10004bc6:	3401      	adds	r4, #1
10004bc8:	e7d2      	b.n	10004b70 <_ntoa_format+0x148>
10004bca:	071a      	lsls	r2, r3, #28
10004bcc:	d59b      	bpl.n	10004b06 <_ntoa_format+0xde>
10004bce:	2220      	movs	r2, #32
10004bd0:	9d0c      	ldr	r5, [sp, #48]	@ 0x30
10004bd2:	552a      	strb	r2, [r5, r4]
10004bd4:	3401      	adds	r4, #1
10004bd6:	e796      	b.n	10004b06 <_ntoa_format+0xde>
10004bd8:	069a      	lsls	r2, r3, #26
10004bda:	d40f      	bmi.n	10004bfc <_ntoa_format+0x1d4>
10004bdc:	2278      	movs	r2, #120	@ 0x78
10004bde:	9c0c      	ldr	r4, [sp, #48]	@ 0x30
10004be0:	7022      	strb	r2, [r4, #0]
10004be2:	2230      	movs	r2, #48	@ 0x30
10004be4:	7062      	strb	r2, [r4, #1]
10004be6:	2402      	movs	r4, #2
10004be8:	e765      	b.n	10004ab6 <_ntoa_format+0x8e>
10004bea:	2c20      	cmp	r4, #32
10004bec:	d100      	bne.n	10004bf0 <_ntoa_format+0x1c8>
10004bee:	e78a      	b.n	10004b06 <_ntoa_format+0xde>
10004bf0:	2558      	movs	r5, #88	@ 0x58
10004bf2:	9a0c      	ldr	r2, [sp, #48]	@ 0x30
10004bf4:	1912      	adds	r2, r2, r4
10004bf6:	7015      	strb	r5, [r2, #0]
10004bf8:	3401      	adds	r4, #1
10004bfa:	e7b9      	b.n	10004b70 <_ntoa_format+0x148>
10004bfc:	2258      	movs	r2, #88	@ 0x58
10004bfe:	e7ee      	b.n	10004bde <_ntoa_format+0x1b6>
10004c00:	2262      	movs	r2, #98	@ 0x62
10004c02:	e7ec      	b.n	10004bde <_ntoa_format+0x1b6>
10004c04:	2210      	movs	r2, #16
10004c06:	4655      	mov	r5, sl
10004c08:	401a      	ands	r2, r3
10004c0a:	2d00      	cmp	r5, #0
10004c0c:	d19f      	bne.n	10004b4e <_ntoa_format+0x126>
10004c0e:	e7c1      	b.n	10004b94 <_ntoa_format+0x16c>
10004c10:	3c02      	subs	r4, #2
10004c12:	069d      	lsls	r5, r3, #26
10004c14:	d404      	bmi.n	10004c20 <_ntoa_format+0x1f8>
10004c16:	2578      	movs	r5, #120	@ 0x78
10004c18:	9f0c      	ldr	r7, [sp, #48]	@ 0x30
10004c1a:	553d      	strb	r5, [r7, r4]
10004c1c:	0014      	movs	r4, r2
10004c1e:	e7a9      	b.n	10004b74 <_ntoa_format+0x14c>
10004c20:	2558      	movs	r5, #88	@ 0x58
10004c22:	9f0c      	ldr	r7, [sp, #48]	@ 0x30
10004c24:	553d      	strb	r5, [r7, r4]
10004c26:	0014      	movs	r4, r2
10004c28:	e7a4      	b.n	10004b74 <_ntoa_format+0x14c>
10004c2a:	221f      	movs	r2, #31
10004c2c:	e760      	b.n	10004af0 <_ntoa_format+0xc8>
10004c2e:	46c0      	nop			@ (mov r8, r8)

10004c30 <_out_char>:
10004c30:	b510      	push	{r4, lr}
10004c32:	2800      	cmp	r0, #0
10004c34:	d100      	bne.n	10004c38 <_out_char+0x8>
10004c36:	bd10      	pop	{r4, pc}
10004c38:	f002 fc96 	bl	10007568 <__wrap_putchar>
10004c3c:	e7fb      	b.n	10004c36 <_out_char+0x6>
10004c3e:	46c0      	nop			@ (mov r8, r8)

10004c40 <_etoa>:
10004c40:	b5f0      	push	{r4, r5, r6, r7, lr}
10004c42:	4657      	mov	r7, sl
10004c44:	464e      	mov	r6, r9
10004c46:	4645      	mov	r5, r8
10004c48:	46de      	mov	lr, fp
10004c4a:	b5e0      	push	{r5, r6, r7, lr}
10004c4c:	b099      	sub	sp, #100	@ 0x64
10004c4e:	4682      	mov	sl, r0
10004c50:	4689      	mov	r9, r1
10004c52:	4690      	mov	r8, r2
10004c54:	9308      	str	r3, [sp, #32]
10004c56:	9a22      	ldr	r2, [sp, #136]	@ 0x88
10004c58:	9b23      	ldr	r3, [sp, #140]	@ 0x8c
10004c5a:	0010      	movs	r0, r2
10004c5c:	0019      	movs	r1, r3
10004c5e:	f001 fd6c 	bl	1000673a <__wrap___aeabi_dcmpun>
10004c62:	2800      	cmp	r0, #0
10004c64:	d000      	beq.n	10004c68 <_etoa+0x28>
10004c66:	e0cd      	b.n	10004e04 <_etoa+0x1c4>
10004c68:	9822      	ldr	r0, [sp, #136]	@ 0x88
10004c6a:	9923      	ldr	r1, [sp, #140]	@ 0x8c
10004c6c:	2201      	movs	r2, #1
10004c6e:	4bd9      	ldr	r3, [pc, #868]	@ (10004fd4 <_etoa+0x394>)
10004c70:	4252      	negs	r2, r2
10004c72:	f001 fd5d 	bl	10006730 <__wrap___aeabi_dcmpgt>
10004c76:	2800      	cmp	r0, #0
10004c78:	d000      	beq.n	10004c7c <_etoa+0x3c>
10004c7a:	e0c3      	b.n	10004e04 <_etoa+0x1c4>
10004c7c:	9822      	ldr	r0, [sp, #136]	@ 0x88
10004c7e:	9923      	ldr	r1, [sp, #140]	@ 0x8c
10004c80:	2201      	movs	r2, #1
10004c82:	4bd5      	ldr	r3, [pc, #852]	@ (10004fd8 <_etoa+0x398>)
10004c84:	4252      	negs	r2, r2
10004c86:	f001 fd45 	bl	10006714 <__wrap___aeabi_dcmplt>
10004c8a:	2800      	cmp	r0, #0
10004c8c:	d000      	beq.n	10004c90 <_etoa+0x50>
10004c8e:	e0b9      	b.n	10004e04 <_etoa+0x1c4>
10004c90:	9822      	ldr	r0, [sp, #136]	@ 0x88
10004c92:	9923      	ldr	r1, [sp, #140]	@ 0x8c
10004c94:	2200      	movs	r2, #0
10004c96:	2300      	movs	r3, #0
10004c98:	f001 fd3c 	bl	10006714 <__wrap___aeabi_dcmplt>
10004c9c:	2800      	cmp	r0, #0
10004c9e:	d000      	beq.n	10004ca2 <_etoa+0x62>
10004ca0:	e1f1      	b.n	10005086 <_etoa+0x446>
10004ca2:	9e22      	ldr	r6, [sp, #136]	@ 0x88
10004ca4:	9f23      	ldr	r7, [sp, #140]	@ 0x8c
10004ca6:	2380      	movs	r3, #128	@ 0x80
10004ca8:	9a26      	ldr	r2, [sp, #152]	@ 0x98
10004caa:	00db      	lsls	r3, r3, #3
10004cac:	401a      	ands	r2, r3
10004cae:	920d      	str	r2, [sp, #52]	@ 0x34
10004cb0:	9a26      	ldr	r2, [sp, #152]	@ 0x98
10004cb2:	421a      	tst	r2, r3
10004cb4:	d101      	bne.n	10004cba <_etoa+0x7a>
10004cb6:	2306      	movs	r3, #6
10004cb8:	9324      	str	r3, [sp, #144]	@ 0x90
10004cba:	2380      	movs	r3, #128	@ 0x80
10004cbc:	9a26      	ldr	r2, [sp, #152]	@ 0x98
10004cbe:	011b      	lsls	r3, r3, #4
10004cc0:	401a      	ands	r2, r3
10004cc2:	003b      	movs	r3, r7
10004cc4:	4693      	mov	fp, r2
10004cc6:	9609      	str	r6, [sp, #36]	@ 0x24
10004cc8:	4333      	orrs	r3, r6
10004cca:	d000      	beq.n	10004cce <_etoa+0x8e>
10004ccc:	e0b3      	b.n	10004e36 <_etoa+0x1f6>
10004cce:	2a00      	cmp	r2, #0
10004cd0:	d000      	beq.n	10004cd4 <_etoa+0x94>
10004cd2:	e1c2      	b.n	1000505a <_etoa+0x41a>
10004cd4:	2300      	movs	r3, #0
10004cd6:	2400      	movs	r4, #0
10004cd8:	930a      	str	r3, [sp, #40]	@ 0x28
10004cda:	940b      	str	r4, [sp, #44]	@ 0x2c
10004cdc:	2300      	movs	r3, #0
10004cde:	2504      	movs	r5, #4
10004ce0:	9309      	str	r3, [sp, #36]	@ 0x24
10004ce2:	9b25      	ldr	r3, [sp, #148]	@ 0x94
10004ce4:	2400      	movs	r4, #0
10004ce6:	42ab      	cmp	r3, r5
10004ce8:	d900      	bls.n	10004cec <_etoa+0xac>
10004cea:	1b5c      	subs	r4, r3, r5
10004cec:	2302      	movs	r3, #2
10004cee:	9a26      	ldr	r2, [sp, #152]	@ 0x98
10004cf0:	401a      	ands	r2, r3
10004cf2:	920c      	str	r2, [sp, #48]	@ 0x30
10004cf4:	9a26      	ldr	r2, [sp, #152]	@ 0x98
10004cf6:	4213      	tst	r3, r2
10004cf8:	d003      	beq.n	10004d02 <_etoa+0xc2>
10004cfa:	426b      	negs	r3, r5
10004cfc:	416b      	adcs	r3, r5
10004cfe:	425b      	negs	r3, r3
10004d00:	401c      	ands	r4, r3
10004d02:	9b09      	ldr	r3, [sp, #36]	@ 0x24
10004d04:	2b00      	cmp	r3, #0
10004d06:	d007      	beq.n	10004d18 <_etoa+0xd8>
10004d08:	9a0a      	ldr	r2, [sp, #40]	@ 0x28
10004d0a:	9b0b      	ldr	r3, [sp, #44]	@ 0x2c
10004d0c:	0030      	movs	r0, r6
10004d0e:	0039      	movs	r1, r7
10004d10:	f001 fc9f 	bl	10006652 <__wrap___aeabi_ddiv>
10004d14:	0006      	movs	r6, r0
10004d16:	000f      	movs	r7, r1
10004d18:	9822      	ldr	r0, [sp, #136]	@ 0x88
10004d1a:	9923      	ldr	r1, [sp, #140]	@ 0x8c
10004d1c:	2200      	movs	r2, #0
10004d1e:	2300      	movs	r3, #0
10004d20:	f001 fcf8 	bl	10006714 <__wrap___aeabi_dcmplt>
10004d24:	2800      	cmp	r0, #0
10004d26:	d003      	beq.n	10004d30 <_etoa+0xf0>
10004d28:	2180      	movs	r1, #128	@ 0x80
10004d2a:	0609      	lsls	r1, r1, #24
10004d2c:	187b      	adds	r3, r7, r1
10004d2e:	001f      	movs	r7, r3
10004d30:	9a26      	ldr	r2, [sp, #152]	@ 0x98
10004d32:	4baa      	ldr	r3, [pc, #680]	@ (10004fdc <_etoa+0x39c>)
10004d34:	9600      	str	r6, [sp, #0]
10004d36:	9701      	str	r7, [sp, #4]
10004d38:	4013      	ands	r3, r2
10004d3a:	9e08      	ldr	r6, [sp, #32]
10004d3c:	9304      	str	r3, [sp, #16]
10004d3e:	9b24      	ldr	r3, [sp, #144]	@ 0x90
10004d40:	9403      	str	r4, [sp, #12]
10004d42:	9302      	str	r3, [sp, #8]
10004d44:	4642      	mov	r2, r8
10004d46:	0033      	movs	r3, r6
10004d48:	4649      	mov	r1, r9
10004d4a:	4650      	mov	r0, sl
10004d4c:	f000 f9aa 	bl	100050a4 <_ftoa>
10004d50:	0004      	movs	r4, r0
10004d52:	2d00      	cmp	r5, #0
10004d54:	d067      	beq.n	10004e26 <_etoa+0x1e6>
10004d56:	2020      	movs	r0, #32
10004d58:	9a26      	ldr	r2, [sp, #152]	@ 0x98
10004d5a:	4649      	mov	r1, r9
10004d5c:	4002      	ands	r2, r0
10004d5e:	0013      	movs	r3, r2
10004d60:	425a      	negs	r2, r3
10004d62:	4153      	adcs	r3, r2
10004d64:	425b      	negs	r3, r3
10004d66:	1c62      	adds	r2, r4, #1
10004d68:	4018      	ands	r0, r3
10004d6a:	920a      	str	r2, [sp, #40]	@ 0x28
10004d6c:	0033      	movs	r3, r6
10004d6e:	0022      	movs	r2, r4
10004d70:	3045      	adds	r0, #69	@ 0x45
10004d72:	47d0      	blx	sl
10004d74:	9a09      	ldr	r2, [sp, #36]	@ 0x24
10004d76:	1e6f      	subs	r7, r5, #1
10004d78:	17d3      	asrs	r3, r2, #31
10004d7a:	18d4      	adds	r4, r2, r3
10004d7c:	405c      	eors	r4, r3
10004d7e:	0fd3      	lsrs	r3, r2, #31
10004d80:	469b      	mov	fp, r3
10004d82:	2500      	movs	r5, #0
10004d84:	e001      	b.n	10004d8a <_etoa+0x14a>
10004d86:	2d20      	cmp	r5, #32
10004d88:	d013      	beq.n	10004db2 <_etoa+0x172>
10004d8a:	aa08      	add	r2, sp, #32
10004d8c:	4694      	mov	ip, r2
10004d8e:	231f      	movs	r3, #31
10004d90:	0020      	movs	r0, r4
10004d92:	4463      	add	r3, ip
10004d94:	210a      	movs	r1, #10
10004d96:	3501      	adds	r5, #1
10004d98:	195e      	adds	r6, r3, r5
10004d9a:	f001 fa01 	bl	100061a0 <__wrap___aeabi_uidiv>
10004d9e:	3130      	adds	r1, #48	@ 0x30
10004da0:	7031      	strb	r1, [r6, #0]
10004da2:	0020      	movs	r0, r4
10004da4:	210a      	movs	r1, #10
10004da6:	f001 f9fb 	bl	100061a0 <__wrap___aeabi_uidiv>
10004daa:	0026      	movs	r6, r4
10004dac:	0004      	movs	r4, r0
10004dae:	2e09      	cmp	r6, #9
10004db0:	d8e9      	bhi.n	10004d86 <_etoa+0x146>
10004db2:	2305      	movs	r3, #5
10004db4:	9306      	str	r3, [sp, #24]
10004db6:	2300      	movs	r3, #0
10004db8:	9304      	str	r3, [sp, #16]
10004dba:	330a      	adds	r3, #10
10004dbc:	9303      	str	r3, [sp, #12]
10004dbe:	465b      	mov	r3, fp
10004dc0:	9e08      	ldr	r6, [sp, #32]
10004dc2:	9302      	str	r3, [sp, #8]
10004dc4:	ab10      	add	r3, sp, #64	@ 0x40
10004dc6:	9a0a      	ldr	r2, [sp, #40]	@ 0x28
10004dc8:	9300      	str	r3, [sp, #0]
10004dca:	4649      	mov	r1, r9
10004dcc:	0033      	movs	r3, r6
10004dce:	4650      	mov	r0, sl
10004dd0:	9705      	str	r7, [sp, #20]
10004dd2:	9501      	str	r5, [sp, #4]
10004dd4:	f7ff fe28 	bl	10004a28 <_ntoa_format>
10004dd8:	9a0c      	ldr	r2, [sp, #48]	@ 0x30
10004dda:	0004      	movs	r4, r0
10004ddc:	2a00      	cmp	r2, #0
10004dde:	d022      	beq.n	10004e26 <_etoa+0x1e6>
10004de0:	4642      	mov	r2, r8
10004de2:	1a85      	subs	r5, r0, r2
10004de4:	9a25      	ldr	r2, [sp, #148]	@ 0x94
10004de6:	42aa      	cmp	r2, r5
10004de8:	d91d      	bls.n	10004e26 <_etoa+0x1e6>
10004dea:	46b0      	mov	r8, r6
10004dec:	4657      	mov	r7, sl
10004dee:	0016      	movs	r6, r2
10004df0:	0022      	movs	r2, r4
10004df2:	4643      	mov	r3, r8
10004df4:	4649      	mov	r1, r9
10004df6:	2020      	movs	r0, #32
10004df8:	3501      	adds	r5, #1
10004dfa:	47b8      	blx	r7
10004dfc:	3401      	adds	r4, #1
10004dfe:	42ae      	cmp	r6, r5
10004e00:	d8f6      	bhi.n	10004df0 <_etoa+0x1b0>
10004e02:	e010      	b.n	10004e26 <_etoa+0x1e6>
10004e04:	9b26      	ldr	r3, [sp, #152]	@ 0x98
10004e06:	4642      	mov	r2, r8
10004e08:	9304      	str	r3, [sp, #16]
10004e0a:	9b25      	ldr	r3, [sp, #148]	@ 0x94
10004e0c:	4649      	mov	r1, r9
10004e0e:	9303      	str	r3, [sp, #12]
10004e10:	9b24      	ldr	r3, [sp, #144]	@ 0x90
10004e12:	4650      	mov	r0, sl
10004e14:	9302      	str	r3, [sp, #8]
10004e16:	9b22      	ldr	r3, [sp, #136]	@ 0x88
10004e18:	9c23      	ldr	r4, [sp, #140]	@ 0x8c
10004e1a:	9300      	str	r3, [sp, #0]
10004e1c:	9401      	str	r4, [sp, #4]
10004e1e:	9b08      	ldr	r3, [sp, #32]
10004e20:	f000 f940 	bl	100050a4 <_ftoa>
10004e24:	0004      	movs	r4, r0
10004e26:	0020      	movs	r0, r4
10004e28:	b019      	add	sp, #100	@ 0x64
10004e2a:	bcf0      	pop	{r4, r5, r6, r7}
10004e2c:	46bb      	mov	fp, r7
10004e2e:	46b2      	mov	sl, r6
10004e30:	46a9      	mov	r9, r5
10004e32:	46a0      	mov	r8, r4
10004e34:	bdf0      	pop	{r4, r5, r6, r7, pc}
10004e36:	4b6a      	ldr	r3, [pc, #424]	@ (10004fe0 <_etoa+0x3a0>)
10004e38:	0078      	lsls	r0, r7, #1
10004e3a:	469c      	mov	ip, r3
10004e3c:	0d40      	lsrs	r0, r0, #21
10004e3e:	4460      	add	r0, ip
10004e40:	f001 fc8e 	bl	10006760 <__wrap___aeabi_i2d>
10004e44:	4a67      	ldr	r2, [pc, #412]	@ (10004fe4 <_etoa+0x3a4>)
10004e46:	4b68      	ldr	r3, [pc, #416]	@ (10004fe8 <_etoa+0x3a8>)
10004e48:	f001 fc21 	bl	1000668e <__wrap___aeabi_dmul>
10004e4c:	4a67      	ldr	r2, [pc, #412]	@ (10004fec <_etoa+0x3ac>)
10004e4e:	4b68      	ldr	r3, [pc, #416]	@ (10004ff0 <_etoa+0x3b0>)
10004e50:	f001 fbf6 	bl	10006640 <__wrap___aeabi_dadd>
10004e54:	4a67      	ldr	r2, [pc, #412]	@ (10004ff4 <_etoa+0x3b4>)
10004e56:	033b      	lsls	r3, r7, #12
10004e58:	0b1b      	lsrs	r3, r3, #12
10004e5a:	431a      	orrs	r2, r3
10004e5c:	0004      	movs	r4, r0
10004e5e:	000d      	movs	r5, r1
10004e60:	9809      	ldr	r0, [sp, #36]	@ 0x24
10004e62:	0011      	movs	r1, r2
10004e64:	4b64      	ldr	r3, [pc, #400]	@ (10004ff8 <_etoa+0x3b8>)
10004e66:	2200      	movs	r2, #0
10004e68:	f001 fbe1 	bl	1000662e <__wrap___aeabi_dsub>
10004e6c:	4a63      	ldr	r2, [pc, #396]	@ (10004ffc <_etoa+0x3bc>)
10004e6e:	4b64      	ldr	r3, [pc, #400]	@ (10005000 <_etoa+0x3c0>)
10004e70:	f001 fc0d 	bl	1000668e <__wrap___aeabi_dmul>
10004e74:	0002      	movs	r2, r0
10004e76:	000b      	movs	r3, r1
10004e78:	0020      	movs	r0, r4
10004e7a:	0029      	movs	r1, r5
10004e7c:	f001 fbe0 	bl	10006640 <__wrap___aeabi_dadd>
10004e80:	f001 fc86 	bl	10006790 <__wrap___aeabi_d2iz>
10004e84:	9009      	str	r0, [sp, #36]	@ 0x24
10004e86:	f001 fc6b 	bl	10006760 <__wrap___aeabi_i2d>
10004e8a:	4a5e      	ldr	r2, [pc, #376]	@ (10005004 <_etoa+0x3c4>)
10004e8c:	4b5e      	ldr	r3, [pc, #376]	@ (10005008 <_etoa+0x3c8>)
10004e8e:	0004      	movs	r4, r0
10004e90:	000d      	movs	r5, r1
10004e92:	f001 fbfc 	bl	1000668e <__wrap___aeabi_dmul>
10004e96:	2200      	movs	r2, #0
10004e98:	4b5c      	ldr	r3, [pc, #368]	@ (1000500c <_etoa+0x3cc>)
10004e9a:	f001 fbd1 	bl	10006640 <__wrap___aeabi_dadd>
10004e9e:	f001 fc77 	bl	10006790 <__wrap___aeabi_d2iz>
10004ea2:	4a5b      	ldr	r2, [pc, #364]	@ (10005010 <_etoa+0x3d0>)
10004ea4:	4b5b      	ldr	r3, [pc, #364]	@ (10005014 <_etoa+0x3d4>)
10004ea6:	0029      	movs	r1, r5
10004ea8:	900c      	str	r0, [sp, #48]	@ 0x30
10004eaa:	0020      	movs	r0, r4
10004eac:	f001 fbef 	bl	1000668e <__wrap___aeabi_dmul>
10004eb0:	0004      	movs	r4, r0
10004eb2:	980c      	ldr	r0, [sp, #48]	@ 0x30
10004eb4:	000d      	movs	r5, r1
10004eb6:	f001 fc53 	bl	10006760 <__wrap___aeabi_i2d>
10004eba:	4a57      	ldr	r2, [pc, #348]	@ (10005018 <_etoa+0x3d8>)
10004ebc:	4b57      	ldr	r3, [pc, #348]	@ (1000501c <_etoa+0x3dc>)
10004ebe:	f001 fbe6 	bl	1000668e <__wrap___aeabi_dmul>
10004ec2:	0002      	movs	r2, r0
10004ec4:	000b      	movs	r3, r1
10004ec6:	0020      	movs	r0, r4
10004ec8:	0029      	movs	r1, r5
10004eca:	f001 fbb0 	bl	1000662e <__wrap___aeabi_dsub>
10004ece:	0004      	movs	r4, r0
10004ed0:	000d      	movs	r5, r1
10004ed2:	0002      	movs	r2, r0
10004ed4:	000b      	movs	r3, r1
10004ed6:	940a      	str	r4, [sp, #40]	@ 0x28
10004ed8:	950b      	str	r5, [sp, #44]	@ 0x2c
10004eda:	f001 fbd8 	bl	1000668e <__wrap___aeabi_dmul>
10004ede:	0004      	movs	r4, r0
10004ee0:	000d      	movs	r5, r1
10004ee2:	980a      	ldr	r0, [sp, #40]	@ 0x28
10004ee4:	990b      	ldr	r1, [sp, #44]	@ 0x2c
10004ee6:	0002      	movs	r2, r0
10004ee8:	000b      	movs	r3, r1
10004eea:	f001 fba9 	bl	10006640 <__wrap___aeabi_dadd>
10004eee:	2200      	movs	r2, #0
10004ef0:	900e      	str	r0, [sp, #56]	@ 0x38
10004ef2:	910f      	str	r1, [sp, #60]	@ 0x3c
10004ef4:	4b4a      	ldr	r3, [pc, #296]	@ (10005020 <_etoa+0x3e0>)
10004ef6:	0020      	movs	r0, r4
10004ef8:	0029      	movs	r1, r5
10004efa:	f001 fbaa 	bl	10006652 <__wrap___aeabi_ddiv>
10004efe:	2200      	movs	r2, #0
10004f00:	4b48      	ldr	r3, [pc, #288]	@ (10005024 <_etoa+0x3e4>)
10004f02:	f001 fb9d 	bl	10006640 <__wrap___aeabi_dadd>
10004f06:	0002      	movs	r2, r0
10004f08:	000b      	movs	r3, r1
10004f0a:	0020      	movs	r0, r4
10004f0c:	0029      	movs	r1, r5
10004f0e:	f001 fba0 	bl	10006652 <__wrap___aeabi_ddiv>
10004f12:	2200      	movs	r2, #0
10004f14:	4b44      	ldr	r3, [pc, #272]	@ (10005028 <_etoa+0x3e8>)
10004f16:	f001 fb93 	bl	10006640 <__wrap___aeabi_dadd>
10004f1a:	0002      	movs	r2, r0
10004f1c:	000b      	movs	r3, r1
10004f1e:	0020      	movs	r0, r4
10004f20:	0029      	movs	r1, r5
10004f22:	f001 fb96 	bl	10006652 <__wrap___aeabi_ddiv>
10004f26:	9a0a      	ldr	r2, [sp, #40]	@ 0x28
10004f28:	9b0b      	ldr	r3, [sp, #44]	@ 0x2c
10004f2a:	000d      	movs	r5, r1
10004f2c:	2180      	movs	r1, #128	@ 0x80
10004f2e:	0004      	movs	r4, r0
10004f30:	05c9      	lsls	r1, r1, #23
10004f32:	2000      	movs	r0, #0
10004f34:	f001 fb7b 	bl	1000662e <__wrap___aeabi_dsub>
10004f38:	0002      	movs	r2, r0
10004f3a:	000b      	movs	r3, r1
10004f3c:	0020      	movs	r0, r4
10004f3e:	0029      	movs	r1, r5
10004f40:	f001 fb7e 	bl	10006640 <__wrap___aeabi_dadd>
10004f44:	0002      	movs	r2, r0
10004f46:	000b      	movs	r3, r1
10004f48:	980e      	ldr	r0, [sp, #56]	@ 0x38
10004f4a:	990f      	ldr	r1, [sp, #60]	@ 0x3c
10004f4c:	f001 fb81 	bl	10006652 <__wrap___aeabi_ddiv>
10004f50:	2200      	movs	r2, #0
10004f52:	4b28      	ldr	r3, [pc, #160]	@ (10004ff4 <_etoa+0x3b4>)
10004f54:	f001 fb74 	bl	10006640 <__wrap___aeabi_dadd>
10004f58:	4b34      	ldr	r3, [pc, #208]	@ (1000502c <_etoa+0x3ec>)
10004f5a:	9c0c      	ldr	r4, [sp, #48]	@ 0x30
10004f5c:	469c      	mov	ip, r3
10004f5e:	4464      	add	r4, ip
10004f60:	0523      	lsls	r3, r4, #20
10004f62:	2200      	movs	r2, #0
10004f64:	f001 fb93 	bl	1000668e <__wrap___aeabi_dmul>
10004f68:	0004      	movs	r4, r0
10004f6a:	000d      	movs	r5, r1
10004f6c:	0002      	movs	r2, r0
10004f6e:	000b      	movs	r3, r1
10004f70:	0030      	movs	r0, r6
10004f72:	0039      	movs	r1, r7
10004f74:	940a      	str	r4, [sp, #40]	@ 0x28
10004f76:	950b      	str	r5, [sp, #44]	@ 0x2c
10004f78:	f001 fbcc 	bl	10006714 <__wrap___aeabi_dcmplt>
10004f7c:	2800      	cmp	r0, #0
10004f7e:	d15d      	bne.n	1000503c <_etoa+0x3fc>
10004f80:	0023      	movs	r3, r4
10004f82:	002a      	movs	r2, r5
10004f84:	25c6      	movs	r5, #198	@ 0xc6
10004f86:	9909      	ldr	r1, [sp, #36]	@ 0x24
10004f88:	3163      	adds	r1, #99	@ 0x63
10004f8a:	428d      	cmp	r5, r1
10004f8c:	41ad      	sbcs	r5, r5
10004f8e:	4659      	mov	r1, fp
10004f90:	426d      	negs	r5, r5
10004f92:	3504      	adds	r5, #4
10004f94:	2900      	cmp	r1, #0
10004f96:	d100      	bne.n	10004f9a <_etoa+0x35a>
10004f98:	e6a3      	b.n	10004ce2 <_etoa+0xa2>
10004f9a:	4313      	orrs	r3, r2
10004f9c:	d063      	beq.n	10005066 <_etoa+0x426>
10004f9e:	0030      	movs	r0, r6
10004fa0:	0039      	movs	r1, r7
10004fa2:	4a23      	ldr	r2, [pc, #140]	@ (10005030 <_etoa+0x3f0>)
10004fa4:	4b23      	ldr	r3, [pc, #140]	@ (10005034 <_etoa+0x3f4>)
10004fa6:	f001 fbbb 	bl	10006720 <__wrap___aeabi_dcmpge>
10004faa:	2800      	cmp	r0, #0
10004fac:	d007      	beq.n	10004fbe <_etoa+0x37e>
10004fae:	2200      	movs	r2, #0
10004fb0:	0030      	movs	r0, r6
10004fb2:	0039      	movs	r1, r7
10004fb4:	4b20      	ldr	r3, [pc, #128]	@ (10005038 <_etoa+0x3f8>)
10004fb6:	f001 fbad 	bl	10006714 <__wrap___aeabi_dcmplt>
10004fba:	2800      	cmp	r0, #0
10004fbc:	d153      	bne.n	10005066 <_etoa+0x426>
10004fbe:	9b24      	ldr	r3, [sp, #144]	@ 0x90
10004fc0:	2b00      	cmp	r3, #0
10004fc2:	d100      	bne.n	10004fc6 <_etoa+0x386>
10004fc4:	e68d      	b.n	10004ce2 <_etoa+0xa2>
10004fc6:	9b0d      	ldr	r3, [sp, #52]	@ 0x34
10004fc8:	1e5a      	subs	r2, r3, #1
10004fca:	4193      	sbcs	r3, r2
10004fcc:	9a24      	ldr	r2, [sp, #144]	@ 0x90
10004fce:	1ad3      	subs	r3, r2, r3
10004fd0:	9324      	str	r3, [sp, #144]	@ 0x90
10004fd2:	e686      	b.n	10004ce2 <_etoa+0xa2>
10004fd4:	7fefffff 	.word	0x7fefffff
10004fd8:	ffefffff 	.word	0xffefffff
10004fdc:	fffff7ff 	.word	0xfffff7ff
10004fe0:	fffffc01 	.word	0xfffffc01
10004fe4:	509f79fb 	.word	0x509f79fb
10004fe8:	3fd34413 	.word	0x3fd34413
10004fec:	8b60c8b3 	.word	0x8b60c8b3
10004ff0:	3fc68a28 	.word	0x3fc68a28
10004ff4:	3ff00000 	.word	0x3ff00000
10004ff8:	3ff80000 	.word	0x3ff80000
10004ffc:	636f4361 	.word	0x636f4361
10005000:	3fd287a7 	.word	0x3fd287a7
10005004:	0979a371 	.word	0x0979a371
10005008:	400a934f 	.word	0x400a934f
1000500c:	3fe00000 	.word	0x3fe00000
10005010:	bbb55516 	.word	0xbbb55516
10005014:	40026bb1 	.word	0x40026bb1
10005018:	fefa39ef 	.word	0xfefa39ef
1000501c:	3fe62e42 	.word	0x3fe62e42
10005020:	402c0000 	.word	0x402c0000
10005024:	40240000 	.word	0x40240000
10005028:	40180000 	.word	0x40180000
1000502c:	000003ff 	.word	0x000003ff
10005030:	eb1c432d 	.word	0xeb1c432d
10005034:	3f1a36e2 	.word	0x3f1a36e2
10005038:	412e8480 	.word	0x412e8480
1000503c:	9b09      	ldr	r3, [sp, #36]	@ 0x24
1000503e:	2200      	movs	r2, #0
10005040:	3b01      	subs	r3, #1
10005042:	9309      	str	r3, [sp, #36]	@ 0x24
10005044:	0020      	movs	r0, r4
10005046:	4b16      	ldr	r3, [pc, #88]	@ (100050a0 <_etoa+0x460>)
10005048:	0029      	movs	r1, r5
1000504a:	f001 fb02 	bl	10006652 <__wrap___aeabi_ddiv>
1000504e:	000a      	movs	r2, r1
10005050:	0001      	movs	r1, r0
10005052:	0003      	movs	r3, r0
10005054:	910a      	str	r1, [sp, #40]	@ 0x28
10005056:	920b      	str	r2, [sp, #44]	@ 0x2c
10005058:	e794      	b.n	10004f84 <_etoa+0x344>
1000505a:	2300      	movs	r3, #0
1000505c:	2400      	movs	r4, #0
1000505e:	930a      	str	r3, [sp, #40]	@ 0x28
10005060:	940b      	str	r4, [sp, #44]	@ 0x2c
10005062:	2300      	movs	r3, #0
10005064:	9309      	str	r3, [sp, #36]	@ 0x24
10005066:	9a24      	ldr	r2, [sp, #144]	@ 0x90
10005068:	9b09      	ldr	r3, [sp, #36]	@ 0x24
1000506a:	429a      	cmp	r2, r3
1000506c:	dd14      	ble.n	10005098 <_etoa+0x458>
1000506e:	1ad3      	subs	r3, r2, r3
10005070:	3b01      	subs	r3, #1
10005072:	9324      	str	r3, [sp, #144]	@ 0x90
10005074:	2380      	movs	r3, #128	@ 0x80
10005076:	9a26      	ldr	r2, [sp, #152]	@ 0x98
10005078:	00db      	lsls	r3, r3, #3
1000507a:	431a      	orrs	r2, r3
1000507c:	2300      	movs	r3, #0
1000507e:	2500      	movs	r5, #0
10005080:	9226      	str	r2, [sp, #152]	@ 0x98
10005082:	9309      	str	r3, [sp, #36]	@ 0x24
10005084:	e62d      	b.n	10004ce2 <_etoa+0xa2>
10005086:	2280      	movs	r2, #128	@ 0x80
10005088:	0612      	lsls	r2, r2, #24
1000508a:	4694      	mov	ip, r2
1000508c:	9b22      	ldr	r3, [sp, #136]	@ 0x88
1000508e:	001e      	movs	r6, r3
10005090:	9b23      	ldr	r3, [sp, #140]	@ 0x8c
10005092:	4463      	add	r3, ip
10005094:	001f      	movs	r7, r3
10005096:	e606      	b.n	10004ca6 <_etoa+0x66>
10005098:	2300      	movs	r3, #0
1000509a:	9324      	str	r3, [sp, #144]	@ 0x90
1000509c:	e7ea      	b.n	10005074 <_etoa+0x434>
1000509e:	46c0      	nop			@ (mov r8, r8)
100050a0:	40240000 	.word	0x40240000

100050a4 <_ftoa>:
100050a4:	b5f0      	push	{r4, r5, r6, r7, lr}
100050a6:	4645      	mov	r5, r8
100050a8:	46de      	mov	lr, fp
100050aa:	464e      	mov	r6, r9
100050ac:	4657      	mov	r7, sl
100050ae:	b5e0      	push	{r5, r6, r7, lr}
100050b0:	b095      	sub	sp, #84	@ 0x54
100050b2:	468b      	mov	fp, r1
100050b4:	4690      	mov	r8, r2
100050b6:	4699      	mov	r9, r3
100050b8:	9a1e      	ldr	r2, [sp, #120]	@ 0x78
100050ba:	9b1f      	ldr	r3, [sp, #124]	@ 0x7c
100050bc:	900a      	str	r0, [sp, #40]	@ 0x28
100050be:	0019      	movs	r1, r3
100050c0:	0010      	movs	r0, r2
100050c2:	9d20      	ldr	r5, [sp, #128]	@ 0x80
100050c4:	f001 fb39 	bl	1000673a <__wrap___aeabi_dcmpun>
100050c8:	2800      	cmp	r0, #0
100050ca:	d000      	beq.n	100050ce <_ftoa+0x2a>
100050cc:	e1b0      	b.n	10005430 <_ftoa+0x38c>
100050ce:	981e      	ldr	r0, [sp, #120]	@ 0x78
100050d0:	991f      	ldr	r1, [sp, #124]	@ 0x7c
100050d2:	2201      	movs	r2, #1
100050d4:	4bc7      	ldr	r3, [pc, #796]	@ (100053f4 <_ftoa+0x350>)
100050d6:	4252      	negs	r2, r2
100050d8:	f001 fb1c 	bl	10006714 <__wrap___aeabi_dcmplt>
100050dc:	2800      	cmp	r0, #0
100050de:	d000      	beq.n	100050e2 <_ftoa+0x3e>
100050e0:	e137      	b.n	10005352 <_ftoa+0x2ae>
100050e2:	981e      	ldr	r0, [sp, #120]	@ 0x78
100050e4:	991f      	ldr	r1, [sp, #124]	@ 0x7c
100050e6:	2201      	movs	r2, #1
100050e8:	4bc3      	ldr	r3, [pc, #780]	@ (100053f8 <_ftoa+0x354>)
100050ea:	4252      	negs	r2, r2
100050ec:	f001 fb20 	bl	10006730 <__wrap___aeabi_dcmpgt>
100050f0:	2800      	cmp	r0, #0
100050f2:	d000      	beq.n	100050f6 <_ftoa+0x52>
100050f4:	e0a7      	b.n	10005246 <_ftoa+0x1a2>
100050f6:	981e      	ldr	r0, [sp, #120]	@ 0x78
100050f8:	991f      	ldr	r1, [sp, #124]	@ 0x7c
100050fa:	2200      	movs	r2, #0
100050fc:	4bbf      	ldr	r3, [pc, #764]	@ (100053fc <_ftoa+0x358>)
100050fe:	f001 fb17 	bl	10006730 <__wrap___aeabi_dcmpgt>
10005102:	2800      	cmp	r0, #0
10005104:	d000      	beq.n	10005108 <_ftoa+0x64>
10005106:	e088      	b.n	1000521a <_ftoa+0x176>
10005108:	981e      	ldr	r0, [sp, #120]	@ 0x78
1000510a:	991f      	ldr	r1, [sp, #124]	@ 0x7c
1000510c:	2200      	movs	r2, #0
1000510e:	4bbc      	ldr	r3, [pc, #752]	@ (10005400 <_ftoa+0x35c>)
10005110:	f001 fb00 	bl	10006714 <__wrap___aeabi_dcmplt>
10005114:	2800      	cmp	r0, #0
10005116:	d000      	beq.n	1000511a <_ftoa+0x76>
10005118:	e07f      	b.n	1000521a <_ftoa+0x176>
1000511a:	981e      	ldr	r0, [sp, #120]	@ 0x78
1000511c:	991f      	ldr	r1, [sp, #124]	@ 0x7c
1000511e:	2200      	movs	r2, #0
10005120:	2300      	movs	r3, #0
10005122:	f001 faf7 	bl	10006714 <__wrap___aeabi_dcmplt>
10005126:	2800      	cmp	r0, #0
10005128:	d000      	beq.n	1000512c <_ftoa+0x88>
1000512a:	e0fa      	b.n	10005322 <_ftoa+0x27e>
1000512c:	2300      	movs	r3, #0
1000512e:	930b      	str	r3, [sp, #44]	@ 0x2c
10005130:	2380      	movs	r3, #128	@ 0x80
10005132:	9c22      	ldr	r4, [sp, #136]	@ 0x88
10005134:	9a22      	ldr	r2, [sp, #136]	@ 0x88
10005136:	00db      	lsls	r3, r3, #3
10005138:	401c      	ands	r4, r3
1000513a:	421a      	tst	r2, r3
1000513c:	d100      	bne.n	10005140 <_ftoa+0x9c>
1000513e:	e102      	b.n	10005346 <_ftoa+0x2a2>
10005140:	2d09      	cmp	r5, #9
10005142:	d800      	bhi.n	10005146 <_ftoa+0xa2>
10005144:	e17e      	b.n	10005444 <_ftoa+0x3a0>
10005146:	a906      	add	r1, sp, #24
10005148:	468c      	mov	ip, r1
1000514a:	002c      	movs	r4, r5
1000514c:	2217      	movs	r2, #23
1000514e:	2300      	movs	r3, #0
10005150:	2130      	movs	r1, #48	@ 0x30
10005152:	3c09      	subs	r4, #9
10005154:	4462      	add	r2, ip
10005156:	3301      	adds	r3, #1
10005158:	54d1      	strb	r1, [r2, r3]
1000515a:	1aef      	subs	r7, r5, r3
1000515c:	2b20      	cmp	r3, #32
1000515e:	d100      	bne.n	10005162 <_ftoa+0xbe>
10005160:	e132      	b.n	100053c8 <_ftoa+0x324>
10005162:	42a3      	cmp	r3, r4
10005164:	d1f7      	bne.n	10005156 <_ftoa+0xb2>
10005166:	2200      	movs	r2, #0
10005168:	4ba4      	ldr	r3, [pc, #656]	@ (100053fc <_ftoa+0x358>)
1000516a:	9206      	str	r2, [sp, #24]
1000516c:	9307      	str	r3, [sp, #28]
1000516e:	981e      	ldr	r0, [sp, #120]	@ 0x78
10005170:	991f      	ldr	r1, [sp, #124]	@ 0x7c
10005172:	f001 fb0d 	bl	10006790 <__wrap___aeabi_d2iz>
10005176:	0005      	movs	r5, r0
10005178:	f001 faf2 	bl	10006760 <__wrap___aeabi_i2d>
1000517c:	0002      	movs	r2, r0
1000517e:	000b      	movs	r3, r1
10005180:	981e      	ldr	r0, [sp, #120]	@ 0x78
10005182:	991f      	ldr	r1, [sp, #124]	@ 0x7c
10005184:	f001 fa53 	bl	1000662e <__wrap___aeabi_dsub>
10005188:	9a06      	ldr	r2, [sp, #24]
1000518a:	9b07      	ldr	r3, [sp, #28]
1000518c:	f001 fa7f 	bl	1000668e <__wrap___aeabi_dmul>
10005190:	9008      	str	r0, [sp, #32]
10005192:	9109      	str	r1, [sp, #36]	@ 0x24
10005194:	f001 fb20 	bl	100067d8 <__wrap___aeabi_d2uiz>
10005198:	0006      	movs	r6, r0
1000519a:	f001 fadd 	bl	10006758 <__wrap___aeabi_ui2d>
1000519e:	0002      	movs	r2, r0
100051a0:	000b      	movs	r3, r1
100051a2:	9808      	ldr	r0, [sp, #32]
100051a4:	9909      	ldr	r1, [sp, #36]	@ 0x24
100051a6:	f001 fa42 	bl	1000662e <__wrap___aeabi_dsub>
100051aa:	2200      	movs	r2, #0
100051ac:	4b95      	ldr	r3, [pc, #596]	@ (10005404 <_ftoa+0x360>)
100051ae:	9008      	str	r0, [sp, #32]
100051b0:	9109      	str	r1, [sp, #36]	@ 0x24
100051b2:	f001 fabd 	bl	10006730 <__wrap___aeabi_dcmpgt>
100051b6:	2800      	cmp	r0, #0
100051b8:	d100      	bne.n	100051bc <_ftoa+0x118>
100051ba:	e0d2      	b.n	10005362 <_ftoa+0x2be>
100051bc:	3601      	adds	r6, #1
100051be:	0030      	movs	r0, r6
100051c0:	f001 faca 	bl	10006758 <__wrap___aeabi_ui2d>
100051c4:	9a06      	ldr	r2, [sp, #24]
100051c6:	9b07      	ldr	r3, [sp, #28]
100051c8:	f001 faaa 	bl	10006720 <__wrap___aeabi_dcmpge>
100051cc:	2800      	cmp	r0, #0
100051ce:	d001      	beq.n	100051d4 <_ftoa+0x130>
100051d0:	2600      	movs	r6, #0
100051d2:	3501      	adds	r5, #1
100051d4:	46aa      	mov	sl, r5
100051d6:	2f00      	cmp	r7, #0
100051d8:	d000      	beq.n	100051dc <_ftoa+0x138>
100051da:	e098      	b.n	1000530e <_ftoa+0x26a>
100051dc:	0028      	movs	r0, r5
100051de:	f001 fabf 	bl	10006760 <__wrap___aeabi_i2d>
100051e2:	0002      	movs	r2, r0
100051e4:	000b      	movs	r3, r1
100051e6:	981e      	ldr	r0, [sp, #120]	@ 0x78
100051e8:	991f      	ldr	r1, [sp, #124]	@ 0x7c
100051ea:	f001 fa20 	bl	1000662e <__wrap___aeabi_dsub>
100051ee:	4b85      	ldr	r3, [pc, #532]	@ (10005404 <_ftoa+0x360>)
100051f0:	2200      	movs	r2, #0
100051f2:	0006      	movs	r6, r0
100051f4:	000f      	movs	r7, r1
100051f6:	f001 fa8d 	bl	10006714 <__wrap___aeabi_dcmplt>
100051fa:	ab0c      	add	r3, sp, #48	@ 0x30
100051fc:	469a      	mov	sl, r3
100051fe:	2800      	cmp	r0, #0
10005200:	d145      	bne.n	1000528e <_ftoa+0x1ea>
10005202:	2200      	movs	r2, #0
10005204:	0030      	movs	r0, r6
10005206:	0039      	movs	r1, r7
10005208:	4b7e      	ldr	r3, [pc, #504]	@ (10005404 <_ftoa+0x360>)
1000520a:	f001 fa91 	bl	10006730 <__wrap___aeabi_dcmpgt>
1000520e:	2800      	cmp	r0, #0
10005210:	d13d      	bne.n	1000528e <_ftoa+0x1ea>
10005212:	07eb      	lsls	r3, r5, #31
10005214:	d53b      	bpl.n	1000528e <_ftoa+0x1ea>
10005216:	3501      	adds	r5, #1
10005218:	e039      	b.n	1000528e <_ftoa+0x1ea>
1000521a:	9b22      	ldr	r3, [sp, #136]	@ 0x88
1000521c:	4642      	mov	r2, r8
1000521e:	9304      	str	r3, [sp, #16]
10005220:	9b21      	ldr	r3, [sp, #132]	@ 0x84
10005222:	4659      	mov	r1, fp
10005224:	9303      	str	r3, [sp, #12]
10005226:	980a      	ldr	r0, [sp, #40]	@ 0x28
10005228:	9b1e      	ldr	r3, [sp, #120]	@ 0x78
1000522a:	9c1f      	ldr	r4, [sp, #124]	@ 0x7c
1000522c:	9502      	str	r5, [sp, #8]
1000522e:	9300      	str	r3, [sp, #0]
10005230:	9401      	str	r4, [sp, #4]
10005232:	464b      	mov	r3, r9
10005234:	f7ff fd04 	bl	10004c40 <_etoa>
10005238:	b015      	add	sp, #84	@ 0x54
1000523a:	bcf0      	pop	{r4, r5, r6, r7}
1000523c:	46bb      	mov	fp, r7
1000523e:	46b2      	mov	sl, r6
10005240:	46a9      	mov	r9, r5
10005242:	46a0      	mov	r8, r4
10005244:	bdf0      	pop	{r4, r5, r6, r7, pc}
10005246:	9b22      	ldr	r3, [sp, #136]	@ 0x88
10005248:	075b      	lsls	r3, r3, #29
1000524a:	d467      	bmi.n	1000531c <_ftoa+0x278>
1000524c:	2203      	movs	r2, #3
1000524e:	4b6e      	ldr	r3, [pc, #440]	@ (10005408 <_ftoa+0x364>)
10005250:	9922      	ldr	r1, [sp, #136]	@ 0x88
10005252:	9201      	str	r2, [sp, #4]
10005254:	9103      	str	r1, [sp, #12]
10005256:	9921      	ldr	r1, [sp, #132]	@ 0x84
10005258:	9102      	str	r1, [sp, #8]
1000525a:	9300      	str	r3, [sp, #0]
1000525c:	4642      	mov	r2, r8
1000525e:	464b      	mov	r3, r9
10005260:	4659      	mov	r1, fp
10005262:	980a      	ldr	r0, [sp, #40]	@ 0x28
10005264:	f7ff fb98 	bl	10004998 <_out_rev>
10005268:	e7e6      	b.n	10005238 <_ftoa+0x194>
1000526a:	aa06      	add	r2, sp, #24
1000526c:	4694      	mov	ip, r2
1000526e:	2317      	movs	r3, #23
10005270:	0028      	movs	r0, r5
10005272:	4463      	add	r3, ip
10005274:	210a      	movs	r1, #10
10005276:	3401      	adds	r4, #1
10005278:	191e      	adds	r6, r3, r4
1000527a:	f000 ff69 	bl	10006150 <__wrap___aeabi_idiv>
1000527e:	3130      	adds	r1, #48	@ 0x30
10005280:	0028      	movs	r0, r5
10005282:	7031      	strb	r1, [r6, #0]
10005284:	210a      	movs	r1, #10
10005286:	f000 ff63 	bl	10006150 <__wrap___aeabi_idiv>
1000528a:	1e05      	subs	r5, r0, #0
1000528c:	d076      	beq.n	1000537c <_ftoa+0x2d8>
1000528e:	2c20      	cmp	r4, #32
10005290:	d1eb      	bne.n	1000526a <_ftoa+0x1c6>
10005292:	2303      	movs	r3, #3
10005294:	9a22      	ldr	r2, [sp, #136]	@ 0x88
10005296:	4013      	ands	r3, r2
10005298:	2b01      	cmp	r3, #1
1000529a:	d11d      	bne.n	100052d8 <_ftoa+0x234>
1000529c:	9b21      	ldr	r3, [sp, #132]	@ 0x84
1000529e:	2b00      	cmp	r3, #0
100052a0:	d01a      	beq.n	100052d8 <_ftoa+0x234>
100052a2:	9b0b      	ldr	r3, [sp, #44]	@ 0x2c
100052a4:	2b00      	cmp	r3, #0
100052a6:	d000      	beq.n	100052aa <_ftoa+0x206>
100052a8:	e0bb      	b.n	10005422 <_ftoa+0x37e>
100052aa:	9a22      	ldr	r2, [sp, #136]	@ 0x88
100052ac:	330c      	adds	r3, #12
100052ae:	4213      	tst	r3, r2
100052b0:	d000      	beq.n	100052b4 <_ftoa+0x210>
100052b2:	e0b6      	b.n	10005422 <_ftoa+0x37e>
100052b4:	9b21      	ldr	r3, [sp, #132]	@ 0x84
100052b6:	42a3      	cmp	r3, r4
100052b8:	d800      	bhi.n	100052bc <_ftoa+0x218>
100052ba:	e087      	b.n	100053cc <_ftoa+0x328>
100052bc:	ab06      	add	r3, sp, #24
100052be:	469c      	mov	ip, r3
100052c0:	2217      	movs	r2, #23
100052c2:	2330      	movs	r3, #48	@ 0x30
100052c4:	4462      	add	r2, ip
100052c6:	e004      	b.n	100052d2 <_ftoa+0x22e>
100052c8:	9921      	ldr	r1, [sp, #132]	@ 0x84
100052ca:	3401      	adds	r4, #1
100052cc:	5513      	strb	r3, [r2, r4]
100052ce:	428c      	cmp	r4, r1
100052d0:	d059      	beq.n	10005386 <_ftoa+0x2e2>
100052d2:	2c20      	cmp	r4, #32
100052d4:	d1f8      	bne.n	100052c8 <_ftoa+0x224>
100052d6:	2420      	movs	r4, #32
100052d8:	9b22      	ldr	r3, [sp, #136]	@ 0x88
100052da:	9401      	str	r4, [sp, #4]
100052dc:	9303      	str	r3, [sp, #12]
100052de:	9b21      	ldr	r3, [sp, #132]	@ 0x84
100052e0:	9302      	str	r3, [sp, #8]
100052e2:	4653      	mov	r3, sl
100052e4:	e7b9      	b.n	1000525a <_ftoa+0x1b6>
100052e6:	aa06      	add	r2, sp, #24
100052e8:	4694      	mov	ip, r2
100052ea:	2317      	movs	r3, #23
100052ec:	210a      	movs	r1, #10
100052ee:	4463      	add	r3, ip
100052f0:	0030      	movs	r0, r6
100052f2:	3401      	adds	r4, #1
100052f4:	191d      	adds	r5, r3, r4
100052f6:	f000 ff53 	bl	100061a0 <__wrap___aeabi_uidiv>
100052fa:	3130      	adds	r1, #48	@ 0x30
100052fc:	7029      	strb	r1, [r5, #0]
100052fe:	0030      	movs	r0, r6
10005300:	210a      	movs	r1, #10
10005302:	3f01      	subs	r7, #1
10005304:	f000 ff4c 	bl	100061a0 <__wrap___aeabi_uidiv>
10005308:	2e09      	cmp	r6, #9
1000530a:	d946      	bls.n	1000539a <_ftoa+0x2f6>
1000530c:	0006      	movs	r6, r0
1000530e:	2c20      	cmp	r4, #32
10005310:	d1e9      	bne.n	100052e6 <_ftoa+0x242>
10005312:	4655      	mov	r5, sl
10005314:	ab0c      	add	r3, sp, #48	@ 0x30
10005316:	2420      	movs	r4, #32
10005318:	469a      	mov	sl, r3
1000531a:	e7b8      	b.n	1000528e <_ftoa+0x1ea>
1000531c:	2204      	movs	r2, #4
1000531e:	4b3b      	ldr	r3, [pc, #236]	@ (1000540c <_ftoa+0x368>)
10005320:	e796      	b.n	10005250 <_ftoa+0x1ac>
10005322:	9a1e      	ldr	r2, [sp, #120]	@ 0x78
10005324:	9b1f      	ldr	r3, [sp, #124]	@ 0x7c
10005326:	2000      	movs	r0, #0
10005328:	2100      	movs	r1, #0
1000532a:	f001 f980 	bl	1000662e <__wrap___aeabi_dsub>
1000532e:	2301      	movs	r3, #1
10005330:	930b      	str	r3, [sp, #44]	@ 0x2c
10005332:	2380      	movs	r3, #128	@ 0x80
10005334:	9c22      	ldr	r4, [sp, #136]	@ 0x88
10005336:	9a22      	ldr	r2, [sp, #136]	@ 0x88
10005338:	00db      	lsls	r3, r3, #3
1000533a:	901e      	str	r0, [sp, #120]	@ 0x78
1000533c:	911f      	str	r1, [sp, #124]	@ 0x7c
1000533e:	401c      	ands	r4, r3
10005340:	421a      	tst	r2, r3
10005342:	d000      	beq.n	10005346 <_ftoa+0x2a2>
10005344:	e6fc      	b.n	10005140 <_ftoa+0x9c>
10005346:	2200      	movs	r2, #0
10005348:	4b31      	ldr	r3, [pc, #196]	@ (10005410 <_ftoa+0x36c>)
1000534a:	2706      	movs	r7, #6
1000534c:	9206      	str	r2, [sp, #24]
1000534e:	9307      	str	r3, [sp, #28]
10005350:	e70d      	b.n	1000516e <_ftoa+0xca>
10005352:	9b22      	ldr	r3, [sp, #136]	@ 0x88
10005354:	9303      	str	r3, [sp, #12]
10005356:	9b21      	ldr	r3, [sp, #132]	@ 0x84
10005358:	9302      	str	r3, [sp, #8]
1000535a:	2304      	movs	r3, #4
1000535c:	9301      	str	r3, [sp, #4]
1000535e:	4b2d      	ldr	r3, [pc, #180]	@ (10005414 <_ftoa+0x370>)
10005360:	e77b      	b.n	1000525a <_ftoa+0x1b6>
10005362:	2200      	movs	r2, #0
10005364:	9808      	ldr	r0, [sp, #32]
10005366:	9909      	ldr	r1, [sp, #36]	@ 0x24
10005368:	4b26      	ldr	r3, [pc, #152]	@ (10005404 <_ftoa+0x360>)
1000536a:	f001 f9d3 	bl	10006714 <__wrap___aeabi_dcmplt>
1000536e:	2800      	cmp	r0, #0
10005370:	d000      	beq.n	10005374 <_ftoa+0x2d0>
10005372:	e72f      	b.n	100051d4 <_ftoa+0x130>
10005374:	2e00      	cmp	r6, #0
10005376:	d14f      	bne.n	10005418 <_ftoa+0x374>
10005378:	3601      	adds	r6, #1
1000537a:	e72b      	b.n	100051d4 <_ftoa+0x130>
1000537c:	2303      	movs	r3, #3
1000537e:	9a22      	ldr	r2, [sp, #136]	@ 0x88
10005380:	4013      	ands	r3, r2
10005382:	2b01      	cmp	r3, #1
10005384:	d068      	beq.n	10005458 <_ftoa+0x3b4>
10005386:	2c20      	cmp	r4, #32
10005388:	d0a6      	beq.n	100052d8 <_ftoa+0x234>
1000538a:	9b0b      	ldr	r3, [sp, #44]	@ 0x2c
1000538c:	2b00      	cmp	r3, #0
1000538e:	d01f      	beq.n	100053d0 <_ftoa+0x32c>
10005390:	232d      	movs	r3, #45	@ 0x2d
10005392:	4652      	mov	r2, sl
10005394:	5513      	strb	r3, [r2, r4]
10005396:	3401      	adds	r4, #1
10005398:	e79e      	b.n	100052d8 <_ftoa+0x234>
1000539a:	4655      	mov	r5, sl
1000539c:	2c20      	cmp	r4, #32
1000539e:	d0b9      	beq.n	10005314 <_ftoa+0x270>
100053a0:	2230      	movs	r2, #48	@ 0x30
100053a2:	193b      	adds	r3, r7, r4
100053a4:	2f00      	cmp	r7, #0
100053a6:	d04b      	beq.n	10005440 <_ftoa+0x39c>
100053a8:	2017      	movs	r0, #23
100053aa:	a906      	add	r1, sp, #24
100053ac:	3401      	adds	r4, #1
100053ae:	1809      	adds	r1, r1, r0
100053b0:	550a      	strb	r2, [r1, r4]
100053b2:	2c20      	cmp	r4, #32
100053b4:	d0ae      	beq.n	10005314 <_ftoa+0x270>
100053b6:	429c      	cmp	r4, r3
100053b8:	d1f6      	bne.n	100053a8 <_ftoa+0x304>
100053ba:	aa0c      	add	r2, sp, #48	@ 0x30
100053bc:	4692      	mov	sl, r2
100053be:	222e      	movs	r2, #46	@ 0x2e
100053c0:	4651      	mov	r1, sl
100053c2:	1c5c      	adds	r4, r3, #1
100053c4:	54ca      	strb	r2, [r1, r3]
100053c6:	e762      	b.n	1000528e <_ftoa+0x1ea>
100053c8:	2420      	movs	r4, #32
100053ca:	e6cc      	b.n	10005166 <_ftoa+0xc2>
100053cc:	2c20      	cmp	r4, #32
100053ce:	d083      	beq.n	100052d8 <_ftoa+0x234>
100053d0:	9b22      	ldr	r3, [sp, #136]	@ 0x88
100053d2:	075b      	lsls	r3, r3, #29
100053d4:	d408      	bmi.n	100053e8 <_ftoa+0x344>
100053d6:	9b22      	ldr	r3, [sp, #136]	@ 0x88
100053d8:	071b      	lsls	r3, r3, #28
100053da:	d400      	bmi.n	100053de <_ftoa+0x33a>
100053dc:	e77c      	b.n	100052d8 <_ftoa+0x234>
100053de:	2320      	movs	r3, #32
100053e0:	4652      	mov	r2, sl
100053e2:	5513      	strb	r3, [r2, r4]
100053e4:	3401      	adds	r4, #1
100053e6:	e777      	b.n	100052d8 <_ftoa+0x234>
100053e8:	232b      	movs	r3, #43	@ 0x2b
100053ea:	4652      	mov	r2, sl
100053ec:	5513      	strb	r3, [r2, r4]
100053ee:	3401      	adds	r4, #1
100053f0:	e772      	b.n	100052d8 <_ftoa+0x234>
100053f2:	46c0      	nop			@ (mov r8, r8)
100053f4:	ffefffff 	.word	0xffefffff
100053f8:	7fefffff 	.word	0x7fefffff
100053fc:	41cdcd65 	.word	0x41cdcd65
10005400:	c1cdcd65 	.word	0xc1cdcd65
10005404:	3fe00000 	.word	0x3fe00000
10005408:	100086d8 	.word	0x100086d8
1000540c:	100086d0 	.word	0x100086d0
10005410:	412e8480 	.word	0x412e8480
10005414:	100086e0 	.word	0x100086e0
10005418:	07f3      	lsls	r3, r6, #31
1000541a:	d400      	bmi.n	1000541e <_ftoa+0x37a>
1000541c:	e6da      	b.n	100051d4 <_ftoa+0x130>
1000541e:	3601      	adds	r6, #1
10005420:	e6d8      	b.n	100051d4 <_ftoa+0x130>
10005422:	9b21      	ldr	r3, [sp, #132]	@ 0x84
10005424:	3b01      	subs	r3, #1
10005426:	9321      	str	r3, [sp, #132]	@ 0x84
10005428:	42a3      	cmp	r3, r4
1000542a:	d900      	bls.n	1000542e <_ftoa+0x38a>
1000542c:	e746      	b.n	100052bc <_ftoa+0x218>
1000542e:	e7aa      	b.n	10005386 <_ftoa+0x2e2>
10005430:	9b22      	ldr	r3, [sp, #136]	@ 0x88
10005432:	9303      	str	r3, [sp, #12]
10005434:	9b21      	ldr	r3, [sp, #132]	@ 0x84
10005436:	9302      	str	r3, [sp, #8]
10005438:	2303      	movs	r3, #3
1000543a:	9301      	str	r3, [sp, #4]
1000543c:	4b08      	ldr	r3, [pc, #32]	@ (10005460 <_ftoa+0x3bc>)
1000543e:	e70c      	b.n	1000525a <_ftoa+0x1b6>
10005440:	0023      	movs	r3, r4
10005442:	e7ba      	b.n	100053ba <_ftoa+0x316>
10005444:	4b07      	ldr	r3, [pc, #28]	@ (10005464 <_ftoa+0x3c0>)
10005446:	00ea      	lsls	r2, r5, #3
10005448:	189b      	adds	r3, r3, r2
1000544a:	685c      	ldr	r4, [r3, #4]
1000544c:	681b      	ldr	r3, [r3, #0]
1000544e:	002f      	movs	r7, r5
10005450:	9306      	str	r3, [sp, #24]
10005452:	9407      	str	r4, [sp, #28]
10005454:	2400      	movs	r4, #0
10005456:	e68a      	b.n	1000516e <_ftoa+0xca>
10005458:	9b21      	ldr	r3, [sp, #132]	@ 0x84
1000545a:	2b00      	cmp	r3, #0
1000545c:	d093      	beq.n	10005386 <_ftoa+0x2e2>
1000545e:	e720      	b.n	100052a2 <_ftoa+0x1fe>
10005460:	100086dc 	.word	0x100086dc
10005464:	10008888 	.word	0x10008888

10005468 <_vsnprintf>:
10005468:	b5f0      	push	{r4, r5, r6, r7, lr}
1000546a:	4645      	mov	r5, r8
1000546c:	46de      	mov	lr, fp
1000546e:	4657      	mov	r7, sl
10005470:	464e      	mov	r6, r9
10005472:	b5e0      	push	{r5, r6, r7, lr}
10005474:	b0a1      	sub	sp, #132	@ 0x84
10005476:	001d      	movs	r5, r3
10005478:	9b2a      	ldr	r3, [sp, #168]	@ 0xa8
1000547a:	4690      	mov	r8, r2
1000547c:	930b      	str	r3, [sp, #44]	@ 0x2c
1000547e:	4ad0      	ldr	r2, [pc, #832]	@ (100057c0 <_vsnprintf+0x358>)
10005480:	4bd0      	ldr	r3, [pc, #832]	@ (100057c4 <_vsnprintf+0x35c>)
10005482:	4683      	mov	fp, r0
10005484:	468a      	mov	sl, r1
10005486:	601a      	str	r2, [r3, #0]
10005488:	2900      	cmp	r1, #0
1000548a:	d100      	bne.n	1000548e <_vsnprintf+0x26>
1000548c:	e1a4      	b.n	100057d8 <_vsnprintf+0x370>
1000548e:	2300      	movs	r3, #0
10005490:	7828      	ldrb	r0, [r5, #0]
10005492:	4699      	mov	r9, r3
10005494:	2800      	cmp	r0, #0
10005496:	d100      	bne.n	1000549a <_vsnprintf+0x32>
10005498:	e1a6      	b.n	100057e8 <_vsnprintf+0x380>
1000549a:	4bcb      	ldr	r3, [pc, #812]	@ (100057c8 <_vsnprintf+0x360>)
1000549c:	465e      	mov	r6, fp
1000549e:	9309      	str	r3, [sp, #36]	@ 0x24
100054a0:	4bca      	ldr	r3, [pc, #808]	@ (100057cc <_vsnprintf+0x364>)
100054a2:	464c      	mov	r4, r9
100054a4:	46d3      	mov	fp, sl
100054a6:	4647      	mov	r7, r8
100054a8:	930d      	str	r3, [sp, #52]	@ 0x34
100054aa:	e00a      	b.n	100054c2 <_vsnprintf+0x5a>
100054ac:	1c63      	adds	r3, r4, #1
100054ae:	4698      	mov	r8, r3
100054b0:	0022      	movs	r2, r4
100054b2:	003b      	movs	r3, r7
100054b4:	4659      	mov	r1, fp
100054b6:	47b0      	blx	r6
100054b8:	4644      	mov	r4, r8
100054ba:	7828      	ldrb	r0, [r5, #0]
100054bc:	2800      	cmp	r0, #0
100054be:	d100      	bne.n	100054c2 <_vsnprintf+0x5a>
100054c0:	e0cd      	b.n	1000565e <_vsnprintf+0x1f6>
100054c2:	3501      	adds	r5, #1
100054c4:	2825      	cmp	r0, #37	@ 0x25
100054c6:	d1f1      	bne.n	100054ac <_vsnprintf+0x44>
100054c8:	2308      	movs	r3, #8
100054ca:	469a      	mov	sl, r3
100054cc:	3b04      	subs	r3, #4
100054ce:	4699      	mov	r9, r3
100054d0:	3b02      	subs	r3, #2
100054d2:	4698      	mov	r8, r3
100054d4:	3b01      	subs	r3, #1
100054d6:	2200      	movs	r2, #0
100054d8:	469c      	mov	ip, r3
100054da:	940c      	str	r4, [sp, #48]	@ 0x30
100054dc:	7828      	ldrb	r0, [r5, #0]
100054de:	1c69      	adds	r1, r5, #1
100054e0:	0003      	movs	r3, r0
100054e2:	3b20      	subs	r3, #32
100054e4:	b2db      	uxtb	r3, r3
100054e6:	2b10      	cmp	r3, #16
100054e8:	d803      	bhi.n	100054f2 <_vsnprintf+0x8a>
100054ea:	9c09      	ldr	r4, [sp, #36]	@ 0x24
100054ec:	009b      	lsls	r3, r3, #2
100054ee:	58e3      	ldr	r3, [r4, r3]
100054f0:	469f      	mov	pc, r3
100054f2:	0003      	movs	r3, r0
100054f4:	3b30      	subs	r3, #48	@ 0x30
100054f6:	9c0c      	ldr	r4, [sp, #48]	@ 0x30
100054f8:	920a      	str	r2, [sp, #40]	@ 0x28
100054fa:	2b09      	cmp	r3, #9
100054fc:	d97f      	bls.n	100055fe <_vsnprintf+0x196>
100054fe:	2300      	movs	r3, #0
10005500:	4698      	mov	r8, r3
10005502:	282a      	cmp	r0, #42	@ 0x2a
10005504:	d100      	bne.n	10005508 <_vsnprintf+0xa0>
10005506:	e0c1      	b.n	1000568c <_vsnprintf+0x224>
10005508:	2300      	movs	r3, #0
1000550a:	469a      	mov	sl, r3
1000550c:	282e      	cmp	r0, #46	@ 0x2e
1000550e:	d100      	bne.n	10005512 <_vsnprintf+0xaa>
10005510:	e090      	b.n	10005634 <_vsnprintf+0x1cc>
10005512:	0003      	movs	r3, r0
10005514:	3b68      	subs	r3, #104	@ 0x68
10005516:	b2db      	uxtb	r3, r3
10005518:	2b12      	cmp	r3, #18
1000551a:	d81e      	bhi.n	1000555a <_vsnprintf+0xf2>
1000551c:	4aac      	ldr	r2, [pc, #688]	@ (100057d0 <_vsnprintf+0x368>)
1000551e:	009b      	lsls	r3, r3, #2
10005520:	58d3      	ldr	r3, [r2, r3]
10005522:	469f      	mov	pc, r3
10005524:	4663      	mov	r3, ip
10005526:	000d      	movs	r5, r1
10005528:	431a      	orrs	r2, r3
1000552a:	e7d7      	b.n	100054dc <_vsnprintf+0x74>
1000552c:	4643      	mov	r3, r8
1000552e:	000d      	movs	r5, r1
10005530:	431a      	orrs	r2, r3
10005532:	e7d3      	b.n	100054dc <_vsnprintf+0x74>
10005534:	464b      	mov	r3, r9
10005536:	000d      	movs	r5, r1
10005538:	431a      	orrs	r2, r3
1000553a:	e7cf      	b.n	100054dc <_vsnprintf+0x74>
1000553c:	2310      	movs	r3, #16
1000553e:	000d      	movs	r5, r1
10005540:	431a      	orrs	r2, r3
10005542:	e7cb      	b.n	100054dc <_vsnprintf+0x74>
10005544:	4653      	mov	r3, sl
10005546:	000d      	movs	r5, r1
10005548:	431a      	orrs	r2, r3
1000554a:	e7c7      	b.n	100054dc <_vsnprintf+0x74>
1000554c:	2380      	movs	r3, #128	@ 0x80
1000554e:	005b      	lsls	r3, r3, #1
10005550:	9a0a      	ldr	r2, [sp, #40]	@ 0x28
10005552:	7868      	ldrb	r0, [r5, #1]
10005554:	431a      	orrs	r2, r3
10005556:	920a      	str	r2, [sp, #40]	@ 0x28
10005558:	3101      	adds	r1, #1
1000555a:	000d      	movs	r5, r1
1000555c:	2867      	cmp	r0, #103	@ 0x67
1000555e:	d80a      	bhi.n	10005576 <_vsnprintf+0x10e>
10005560:	2824      	cmp	r0, #36	@ 0x24
10005562:	d9a3      	bls.n	100054ac <_vsnprintf+0x44>
10005564:	0003      	movs	r3, r0
10005566:	3b25      	subs	r3, #37	@ 0x25
10005568:	b2db      	uxtb	r3, r3
1000556a:	2b42      	cmp	r3, #66	@ 0x42
1000556c:	d89e      	bhi.n	100054ac <_vsnprintf+0x44>
1000556e:	9a0d      	ldr	r2, [sp, #52]	@ 0x34
10005570:	009b      	lsls	r3, r3, #2
10005572:	58d3      	ldr	r3, [r2, r3]
10005574:	469f      	mov	pc, r3
10005576:	0001      	movs	r1, r0
10005578:	3969      	subs	r1, #105	@ 0x69
1000557a:	b2c9      	uxtb	r1, r1
1000557c:	290f      	cmp	r1, #15
1000557e:	d895      	bhi.n	100054ac <_vsnprintf+0x44>
10005580:	2301      	movs	r3, #1
10005582:	408b      	lsls	r3, r1
10005584:	469c      	mov	ip, r3
10005586:	4b93      	ldr	r3, [pc, #588]	@ (100057d4 <_vsnprintf+0x36c>)
10005588:	4699      	mov	r9, r3
1000558a:	4663      	mov	r3, ip
1000558c:	464a      	mov	r2, r9
1000558e:	4013      	ands	r3, r2
10005590:	930c      	str	r3, [sp, #48]	@ 0x30
10005592:	4662      	mov	r2, ip
10005594:	464b      	mov	r3, r9
10005596:	421a      	tst	r2, r3
10005598:	d000      	beq.n	1000559c <_vsnprintf+0x134>
1000559a:	e25e      	b.n	10005a5a <_vsnprintf+0x5f2>
1000559c:	290a      	cmp	r1, #10
1000559e:	d100      	bne.n	100055a2 <_vsnprintf+0x13a>
100055a0:	e124      	b.n	100057ec <_vsnprintf+0x384>
100055a2:	2907      	cmp	r1, #7
100055a4:	d182      	bne.n	100054ac <_vsnprintf+0x44>
100055a6:	9b0b      	ldr	r3, [sp, #44]	@ 0x2c
100055a8:	cb02      	ldmia	r3!, {r1}
100055aa:	4698      	mov	r8, r3
100055ac:	2900      	cmp	r1, #0
100055ae:	d100      	bne.n	100055b2 <_vsnprintf+0x14a>
100055b0:	e19b      	b.n	100058ea <_vsnprintf+0x482>
100055b2:	2021      	movs	r0, #33	@ 0x21
100055b4:	9a0a      	ldr	r2, [sp, #40]	@ 0x28
100055b6:	4302      	orrs	r2, r0
100055b8:	4691      	mov	r9, r2
100055ba:	ab10      	add	r3, sp, #64	@ 0x40
100055bc:	469c      	mov	ip, r3
100055be:	221f      	movs	r2, #31
100055c0:	230f      	movs	r3, #15
100055c2:	4640      	mov	r0, r8
100055c4:	4462      	add	r2, ip
100055c6:	950b      	str	r5, [sp, #44]	@ 0x2c
100055c8:	469c      	mov	ip, r3
100055ca:	46a0      	mov	r8, r4
100055cc:	0015      	movs	r5, r2
100055ce:	9b0c      	ldr	r3, [sp, #48]	@ 0x30
100055d0:	900a      	str	r0, [sp, #40]	@ 0x28
100055d2:	e002      	b.n	100055da <_vsnprintf+0x172>
100055d4:	2b20      	cmp	r3, #32
100055d6:	d00c      	beq.n	100055f2 <_vsnprintf+0x18a>
100055d8:	0011      	movs	r1, r2
100055da:	4664      	mov	r4, ip
100055dc:	400c      	ands	r4, r1
100055de:	0020      	movs	r0, r4
100055e0:	3037      	adds	r0, #55	@ 0x37
100055e2:	2c09      	cmp	r4, #9
100055e4:	d800      	bhi.n	100055e8 <_vsnprintf+0x180>
100055e6:	3807      	subs	r0, #7
100055e8:	3301      	adds	r3, #1
100055ea:	54e8      	strb	r0, [r5, r3]
100055ec:	090a      	lsrs	r2, r1, #4
100055ee:	290f      	cmp	r1, #15
100055f0:	d8f0      	bhi.n	100055d4 <_vsnprintf+0x16c>
100055f2:	930c      	str	r3, [sp, #48]	@ 0x30
100055f4:	9b0a      	ldr	r3, [sp, #40]	@ 0x28
100055f6:	4644      	mov	r4, r8
100055f8:	9d0b      	ldr	r5, [sp, #44]	@ 0x2c
100055fa:	4698      	mov	r8, r3
100055fc:	e185      	b.n	1000590a <_vsnprintf+0x4a2>
100055fe:	2300      	movs	r3, #0
10005600:	4698      	mov	r8, r3
10005602:	9b0a      	ldr	r3, [sp, #40]	@ 0x28
10005604:	4645      	mov	r5, r8
10005606:	469c      	mov	ip, r3
10005608:	e000      	b.n	1000560c <_vsnprintf+0x1a4>
1000560a:	3101      	adds	r1, #1
1000560c:	00ab      	lsls	r3, r5, #2
1000560e:	195b      	adds	r3, r3, r5
10005610:	005b      	lsls	r3, r3, #1
10005612:	181d      	adds	r5, r3, r0
10005614:	7808      	ldrb	r0, [r1, #0]
10005616:	3d30      	subs	r5, #48	@ 0x30
10005618:	0003      	movs	r3, r0
1000561a:	3b30      	subs	r3, #48	@ 0x30
1000561c:	2b09      	cmp	r3, #9
1000561e:	d9f4      	bls.n	1000560a <_vsnprintf+0x1a2>
10005620:	4663      	mov	r3, ip
10005622:	930a      	str	r3, [sp, #40]	@ 0x28
10005624:	2300      	movs	r3, #0
10005626:	46a8      	mov	r8, r5
10005628:	469a      	mov	sl, r3
1000562a:	000d      	movs	r5, r1
1000562c:	3101      	adds	r1, #1
1000562e:	282e      	cmp	r0, #46	@ 0x2e
10005630:	d000      	beq.n	10005634 <_vsnprintf+0x1cc>
10005632:	e76e      	b.n	10005512 <_vsnprintf+0xaa>
10005634:	2080      	movs	r0, #128	@ 0x80
10005636:	9a0a      	ldr	r2, [sp, #40]	@ 0x28
10005638:	00c0      	lsls	r0, r0, #3
1000563a:	4302      	orrs	r2, r0
1000563c:	920a      	str	r2, [sp, #40]	@ 0x28
1000563e:	2230      	movs	r2, #48	@ 0x30
10005640:	4252      	negs	r2, r2
10005642:	4694      	mov	ip, r2
10005644:	7868      	ldrb	r0, [r5, #1]
10005646:	000b      	movs	r3, r1
10005648:	4484      	add	ip, r0
1000564a:	4662      	mov	r2, ip
1000564c:	2a09      	cmp	r2, #9
1000564e:	d800      	bhi.n	10005652 <_vsnprintf+0x1ea>
10005650:	e12e      	b.n	100058b0 <_vsnprintf+0x448>
10005652:	282a      	cmp	r0, #42	@ 0x2a
10005654:	d100      	bne.n	10005658 <_vsnprintf+0x1f0>
10005656:	e13d      	b.n	100058d4 <_vsnprintf+0x46c>
10005658:	000d      	movs	r5, r1
1000565a:	3101      	adds	r1, #1
1000565c:	e759      	b.n	10005512 <_vsnprintf+0xaa>
1000565e:	46da      	mov	sl, fp
10005660:	46a1      	mov	r9, r4
10005662:	46b3      	mov	fp, r6
10005664:	46b8      	mov	r8, r7
10005666:	45c8      	cmp	r8, r9
10005668:	d803      	bhi.n	10005672 <_vsnprintf+0x20a>
1000566a:	2301      	movs	r3, #1
1000566c:	425b      	negs	r3, r3
1000566e:	4443      	add	r3, r8
10005670:	4699      	mov	r9, r3
10005672:	4643      	mov	r3, r8
10005674:	464a      	mov	r2, r9
10005676:	4651      	mov	r1, sl
10005678:	2000      	movs	r0, #0
1000567a:	47d8      	blx	fp
1000567c:	0020      	movs	r0, r4
1000567e:	b021      	add	sp, #132	@ 0x84
10005680:	bcf0      	pop	{r4, r5, r6, r7}
10005682:	46bb      	mov	fp, r7
10005684:	46b2      	mov	sl, r6
10005686:	46a9      	mov	r9, r5
10005688:	46a0      	mov	r8, r4
1000568a:	bdf0      	pop	{r4, r5, r6, r7, pc}
1000568c:	9b0b      	ldr	r3, [sp, #44]	@ 0x2c
1000568e:	cb04      	ldmia	r3!, {r2}
10005690:	4690      	mov	r8, r2
10005692:	2a00      	cmp	r2, #0
10005694:	db04      	blt.n	100056a0 <_vsnprintf+0x238>
10005696:	7868      	ldrb	r0, [r5, #1]
10005698:	930b      	str	r3, [sp, #44]	@ 0x2c
1000569a:	000d      	movs	r5, r1
1000569c:	3101      	adds	r1, #1
1000569e:	e733      	b.n	10005508 <_vsnprintf+0xa0>
100056a0:	9a0a      	ldr	r2, [sp, #40]	@ 0x28
100056a2:	3828      	subs	r0, #40	@ 0x28
100056a4:	4302      	orrs	r2, r0
100056a6:	920a      	str	r2, [sp, #40]	@ 0x28
100056a8:	4642      	mov	r2, r8
100056aa:	4252      	negs	r2, r2
100056ac:	7868      	ldrb	r0, [r5, #1]
100056ae:	4690      	mov	r8, r2
100056b0:	000d      	movs	r5, r1
100056b2:	930b      	str	r3, [sp, #44]	@ 0x2c
100056b4:	3101      	adds	r1, #1
100056b6:	e727      	b.n	10005508 <_vsnprintf+0xa0>
100056b8:	2867      	cmp	r0, #103	@ 0x67
100056ba:	d100      	bne.n	100056be <_vsnprintf+0x256>
100056bc:	e1c7      	b.n	10005a4e <_vsnprintf+0x5e6>
100056be:	2847      	cmp	r0, #71	@ 0x47
100056c0:	d100      	bne.n	100056c4 <_vsnprintf+0x25c>
100056c2:	e214      	b.n	10005aee <_vsnprintf+0x686>
100056c4:	2845      	cmp	r0, #69	@ 0x45
100056c6:	d100      	bne.n	100056ca <_vsnprintf+0x262>
100056c8:	e216      	b.n	10005af8 <_vsnprintf+0x690>
100056ca:	9a0a      	ldr	r2, [sp, #40]	@ 0x28
100056cc:	2107      	movs	r1, #7
100056ce:	9204      	str	r2, [sp, #16]
100056d0:	4642      	mov	r2, r8
100056d2:	9b0b      	ldr	r3, [sp, #44]	@ 0x2c
100056d4:	9203      	str	r2, [sp, #12]
100056d6:	3307      	adds	r3, #7
100056d8:	4652      	mov	r2, sl
100056da:	438b      	bics	r3, r1
100056dc:	0019      	movs	r1, r3
100056de:	9202      	str	r2, [sp, #8]
100056e0:	c90c      	ldmia	r1!, {r2, r3}
100056e2:	0030      	movs	r0, r6
100056e4:	9200      	str	r2, [sp, #0]
100056e6:	9301      	str	r3, [sp, #4]
100056e8:	910b      	str	r1, [sp, #44]	@ 0x2c
100056ea:	0022      	movs	r2, r4
100056ec:	003b      	movs	r3, r7
100056ee:	4659      	mov	r1, fp
100056f0:	f7ff faa6 	bl	10004c40 <_etoa>
100056f4:	0004      	movs	r4, r0
100056f6:	e6e0      	b.n	100054ba <_vsnprintf+0x52>
100056f8:	2380      	movs	r3, #128	@ 0x80
100056fa:	009b      	lsls	r3, r3, #2
100056fc:	e728      	b.n	10005550 <_vsnprintf+0xe8>
100056fe:	7868      	ldrb	r0, [r5, #1]
10005700:	2868      	cmp	r0, #104	@ 0x68
10005702:	d100      	bne.n	10005706 <_vsnprintf+0x29e>
10005704:	e21b      	b.n	10005b3e <_vsnprintf+0x6d6>
10005706:	2380      	movs	r3, #128	@ 0x80
10005708:	9a0a      	ldr	r2, [sp, #40]	@ 0x28
1000570a:	3101      	adds	r1, #1
1000570c:	431a      	orrs	r2, r3
1000570e:	920a      	str	r2, [sp, #40]	@ 0x28
10005710:	e723      	b.n	1000555a <_vsnprintf+0xf2>
10005712:	7868      	ldrb	r0, [r5, #1]
10005714:	286c      	cmp	r0, #108	@ 0x6c
10005716:	d100      	bne.n	1000571a <_vsnprintf+0x2b2>
10005718:	e209      	b.n	10005b2e <_vsnprintf+0x6c6>
1000571a:	2380      	movs	r3, #128	@ 0x80
1000571c:	9a0a      	ldr	r2, [sp, #40]	@ 0x28
1000571e:	005b      	lsls	r3, r3, #1
10005720:	431a      	orrs	r2, r3
10005722:	920a      	str	r2, [sp, #40]	@ 0x28
10005724:	3101      	adds	r1, #1
10005726:	e718      	b.n	1000555a <_vsnprintf+0xf2>
10005728:	2846      	cmp	r0, #70	@ 0x46
1000572a:	d100      	bne.n	1000572e <_vsnprintf+0x2c6>
1000572c:	e18a      	b.n	10005a44 <_vsnprintf+0x5dc>
1000572e:	9a0a      	ldr	r2, [sp, #40]	@ 0x28
10005730:	2107      	movs	r1, #7
10005732:	9204      	str	r2, [sp, #16]
10005734:	4642      	mov	r2, r8
10005736:	9b0b      	ldr	r3, [sp, #44]	@ 0x2c
10005738:	9203      	str	r2, [sp, #12]
1000573a:	3307      	adds	r3, #7
1000573c:	4652      	mov	r2, sl
1000573e:	438b      	bics	r3, r1
10005740:	0019      	movs	r1, r3
10005742:	9202      	str	r2, [sp, #8]
10005744:	c90c      	ldmia	r1!, {r2, r3}
10005746:	0030      	movs	r0, r6
10005748:	9200      	str	r2, [sp, #0]
1000574a:	9301      	str	r3, [sp, #4]
1000574c:	910b      	str	r1, [sp, #44]	@ 0x2c
1000574e:	0022      	movs	r2, r4
10005750:	003b      	movs	r3, r7
10005752:	4659      	mov	r1, fp
10005754:	f7ff fca6 	bl	100050a4 <_ftoa>
10005758:	0004      	movs	r4, r0
1000575a:	e6ae      	b.n	100054ba <_vsnprintf+0x52>
1000575c:	1c63      	adds	r3, r4, #1
1000575e:	4698      	mov	r8, r3
10005760:	0022      	movs	r2, r4
10005762:	003b      	movs	r3, r7
10005764:	4659      	mov	r1, fp
10005766:	2025      	movs	r0, #37	@ 0x25
10005768:	47b0      	blx	r6
1000576a:	4644      	mov	r4, r8
1000576c:	e6a5      	b.n	100054ba <_vsnprintf+0x52>
1000576e:	9b0b      	ldr	r3, [sp, #44]	@ 0x2c
10005770:	3304      	adds	r3, #4
10005772:	930c      	str	r3, [sp, #48]	@ 0x30
10005774:	1c63      	adds	r3, r4, #1
10005776:	4699      	mov	r9, r3
10005778:	9b0a      	ldr	r3, [sp, #40]	@ 0x28
1000577a:	079a      	lsls	r2, r3, #30
1000577c:	d400      	bmi.n	10005780 <_vsnprintf+0x318>
1000577e:	e1e7      	b.n	10005b50 <_vsnprintf+0x6e8>
10005780:	9b0b      	ldr	r3, [sp, #44]	@ 0x2c
10005782:	0022      	movs	r2, r4
10005784:	7818      	ldrb	r0, [r3, #0]
10005786:	4659      	mov	r1, fp
10005788:	003b      	movs	r3, r7
1000578a:	47b0      	blx	r6
1000578c:	4643      	mov	r3, r8
1000578e:	4444      	add	r4, r8
10005790:	2b01      	cmp	r3, #1
10005792:	d800      	bhi.n	10005796 <_vsnprintf+0x32e>
10005794:	e2b8      	b.n	10005d08 <_vsnprintf+0x8a0>
10005796:	002b      	movs	r3, r5
10005798:	46b8      	mov	r8, r7
1000579a:	0025      	movs	r5, r4
1000579c:	465f      	mov	r7, fp
1000579e:	464c      	mov	r4, r9
100057a0:	4699      	mov	r9, r3
100057a2:	0022      	movs	r2, r4
100057a4:	4643      	mov	r3, r8
100057a6:	3401      	adds	r4, #1
100057a8:	0039      	movs	r1, r7
100057aa:	2020      	movs	r0, #32
100057ac:	47b0      	blx	r6
100057ae:	42ac      	cmp	r4, r5
100057b0:	d1f7      	bne.n	100057a2 <_vsnprintf+0x33a>
100057b2:	002c      	movs	r4, r5
100057b4:	46bb      	mov	fp, r7
100057b6:	464d      	mov	r5, r9
100057b8:	4647      	mov	r7, r8
100057ba:	9b0c      	ldr	r3, [sp, #48]	@ 0x30
100057bc:	930b      	str	r3, [sp, #44]	@ 0x2c
100057be:	e67c      	b.n	100054ba <_vsnprintf+0x52>
100057c0:	10005469 	.word	0x10005469
100057c4:	20000744 	.word	0x20000744
100057c8:	100086e8 	.word	0x100086e8
100057cc:	10008778 	.word	0x10008778
100057d0:	1000872c 	.word	0x1000872c
100057d4:	00009041 	.word	0x00009041
100057d8:	4bdc      	ldr	r3, [pc, #880]	@ (10005b4c <_vsnprintf+0x6e4>)
100057da:	7828      	ldrb	r0, [r5, #0]
100057dc:	469b      	mov	fp, r3
100057de:	2300      	movs	r3, #0
100057e0:	4699      	mov	r9, r3
100057e2:	2800      	cmp	r0, #0
100057e4:	d000      	beq.n	100057e8 <_vsnprintf+0x380>
100057e6:	e658      	b.n	1000549a <_vsnprintf+0x32>
100057e8:	2400      	movs	r4, #0
100057ea:	e73c      	b.n	10005666 <_vsnprintf+0x1fe>
100057ec:	9b0b      	ldr	r3, [sp, #44]	@ 0x2c
100057ee:	cb02      	ldmia	r3!, {r1}
100057f0:	9312      	str	r3, [sp, #72]	@ 0x48
100057f2:	780b      	ldrb	r3, [r1, #0]
100057f4:	469c      	mov	ip, r3
100057f6:	0018      	movs	r0, r3
100057f8:	4653      	mov	r3, sl
100057fa:	2b00      	cmp	r3, #0
100057fc:	d000      	beq.n	10005800 <_vsnprintf+0x398>
100057fe:	e09c      	b.n	1000593a <_vsnprintf+0x4d2>
10005800:	2800      	cmp	r0, #0
10005802:	d012      	beq.n	1000582a <_vsnprintf+0x3c2>
10005804:	2302      	movs	r3, #2
10005806:	425b      	negs	r3, r3
10005808:	3301      	adds	r3, #1
1000580a:	4699      	mov	r9, r3
1000580c:	4489      	add	r9, r1
1000580e:	464a      	mov	r2, r9
10005810:	000b      	movs	r3, r1
10005812:	4689      	mov	r9, r1
10005814:	0011      	movs	r1, r2
10005816:	e001      	b.n	1000581c <_vsnprintf+0x3b4>
10005818:	428b      	cmp	r3, r1
1000581a:	d003      	beq.n	10005824 <_vsnprintf+0x3bc>
1000581c:	785a      	ldrb	r2, [r3, #1]
1000581e:	3301      	adds	r3, #1
10005820:	2a00      	cmp	r2, #0
10005822:	d1f9      	bne.n	10005818 <_vsnprintf+0x3b0>
10005824:	4649      	mov	r1, r9
10005826:	1a5b      	subs	r3, r3, r1
10005828:	930c      	str	r3, [sp, #48]	@ 0x30
1000582a:	2380      	movs	r3, #128	@ 0x80
1000582c:	00db      	lsls	r3, r3, #3
1000582e:	4699      	mov	r9, r3
10005830:	9a0a      	ldr	r2, [sp, #40]	@ 0x28
10005832:	4013      	ands	r3, r2
10005834:	930b      	str	r3, [sp, #44]	@ 0x2c
10005836:	464b      	mov	r3, r9
10005838:	421a      	tst	r2, r3
1000583a:	d004      	beq.n	10005846 <_vsnprintf+0x3de>
1000583c:	9b0c      	ldr	r3, [sp, #48]	@ 0x30
1000583e:	4553      	cmp	r3, sl
10005840:	d901      	bls.n	10005846 <_vsnprintf+0x3de>
10005842:	4653      	mov	r3, sl
10005844:	930c      	str	r3, [sp, #48]	@ 0x30
10005846:	2302      	movs	r3, #2
10005848:	4699      	mov	r9, r3
1000584a:	9a0a      	ldr	r2, [sp, #40]	@ 0x28
1000584c:	4013      	ands	r3, r2
1000584e:	930a      	str	r3, [sp, #40]	@ 0x28
10005850:	464b      	mov	r3, r9
10005852:	4213      	tst	r3, r2
10005854:	d100      	bne.n	10005858 <_vsnprintf+0x3f0>
10005856:	e1b5      	b.n	10005bc4 <_vsnprintf+0x75c>
10005858:	4663      	mov	r3, ip
1000585a:	2b00      	cmp	r3, #0
1000585c:	d100      	bne.n	10005860 <_vsnprintf+0x3f8>
1000585e:	e197      	b.n	10005b90 <_vsnprintf+0x728>
10005860:	9b0b      	ldr	r3, [sp, #44]	@ 0x2c
10005862:	2b00      	cmp	r3, #0
10005864:	d100      	bne.n	10005868 <_vsnprintf+0x400>
10005866:	e14c      	b.n	10005b02 <_vsnprintf+0x69a>
10005868:	46d1      	mov	r9, sl
1000586a:	1b0b      	subs	r3, r1, r4
1000586c:	469a      	mov	sl, r3
1000586e:	002b      	movs	r3, r5
10005870:	44a1      	add	r9, r4
10005872:	464d      	mov	r5, r9
10005874:	0022      	movs	r2, r4
10005876:	46b9      	mov	r9, r7
10005878:	465f      	mov	r7, fp
1000587a:	469b      	mov	fp, r3
1000587c:	e009      	b.n	10005892 <_vsnprintf+0x42a>
1000587e:	464b      	mov	r3, r9
10005880:	0039      	movs	r1, r7
10005882:	1c54      	adds	r4, r2, #1
10005884:	47b0      	blx	r6
10005886:	4653      	mov	r3, sl
10005888:	5d18      	ldrb	r0, [r3, r4]
1000588a:	2800      	cmp	r0, #0
1000588c:	d100      	bne.n	10005890 <_vsnprintf+0x428>
1000588e:	e158      	b.n	10005b42 <_vsnprintf+0x6da>
10005890:	0022      	movs	r2, r4
10005892:	4295      	cmp	r5, r2
10005894:	d1f3      	bne.n	1000587e <_vsnprintf+0x416>
10005896:	465b      	mov	r3, fp
10005898:	46bb      	mov	fp, r7
1000589a:	464f      	mov	r7, r9
1000589c:	46a9      	mov	r9, r5
1000589e:	001d      	movs	r5, r3
100058a0:	464c      	mov	r4, r9
100058a2:	9b0a      	ldr	r3, [sp, #40]	@ 0x28
100058a4:	2b00      	cmp	r3, #0
100058a6:	d000      	beq.n	100058aa <_vsnprintf+0x442>
100058a8:	e172      	b.n	10005b90 <_vsnprintf+0x728>
100058aa:	9b12      	ldr	r3, [sp, #72]	@ 0x48
100058ac:	930b      	str	r3, [sp, #44]	@ 0x2c
100058ae:	e604      	b.n	100054ba <_vsnprintf+0x52>
100058b0:	4655      	mov	r5, sl
100058b2:	9a0a      	ldr	r2, [sp, #40]	@ 0x28
100058b4:	00a9      	lsls	r1, r5, #2
100058b6:	1949      	adds	r1, r1, r5
100058b8:	0049      	lsls	r1, r1, #1
100058ba:	3301      	adds	r3, #1
100058bc:	180d      	adds	r5, r1, r0
100058be:	7818      	ldrb	r0, [r3, #0]
100058c0:	3d30      	subs	r5, #48	@ 0x30
100058c2:	0001      	movs	r1, r0
100058c4:	3930      	subs	r1, #48	@ 0x30
100058c6:	2909      	cmp	r1, #9
100058c8:	d9f4      	bls.n	100058b4 <_vsnprintf+0x44c>
100058ca:	46aa      	mov	sl, r5
100058cc:	920a      	str	r2, [sp, #40]	@ 0x28
100058ce:	001d      	movs	r5, r3
100058d0:	1c59      	adds	r1, r3, #1
100058d2:	e61e      	b.n	10005512 <_vsnprintf+0xaa>
100058d4:	9b0b      	ldr	r3, [sp, #44]	@ 0x2c
100058d6:	78a8      	ldrb	r0, [r5, #2]
100058d8:	cb04      	ldmia	r3!, {r2}
100058da:	3502      	adds	r5, #2
100058dc:	43d1      	mvns	r1, r2
100058de:	17c9      	asrs	r1, r1, #31
100058e0:	400a      	ands	r2, r1
100058e2:	4692      	mov	sl, r2
100058e4:	930b      	str	r3, [sp, #44]	@ 0x2c
100058e6:	1c69      	adds	r1, r5, #1
100058e8:	e613      	b.n	10005512 <_vsnprintf+0xaa>
100058ea:	9b0a      	ldr	r3, [sp, #40]	@ 0x28
100058ec:	2110      	movs	r1, #16
100058ee:	001a      	movs	r2, r3
100058f0:	438a      	bics	r2, r1
100058f2:	0010      	movs	r0, r2
100058f4:	3111      	adds	r1, #17
100058f6:	4308      	orrs	r0, r1
100058f8:	4681      	mov	r9, r0
100058fa:	2080      	movs	r0, #128	@ 0x80
100058fc:	001a      	movs	r2, r3
100058fe:	00c0      	lsls	r0, r0, #3
10005900:	4002      	ands	r2, r0
10005902:	0011      	movs	r1, r2
10005904:	4203      	tst	r3, r0
10005906:	d100      	bne.n	1000590a <_vsnprintf+0x4a2>
10005908:	e657      	b.n	100055ba <_vsnprintf+0x152>
1000590a:	464b      	mov	r3, r9
1000590c:	2208      	movs	r2, #8
1000590e:	9306      	str	r3, [sp, #24]
10005910:	4653      	mov	r3, sl
10005912:	9205      	str	r2, [sp, #20]
10005914:	3208      	adds	r2, #8
10005916:	9203      	str	r2, [sp, #12]
10005918:	2200      	movs	r2, #0
1000591a:	9304      	str	r3, [sp, #16]
1000591c:	9b0c      	ldr	r3, [sp, #48]	@ 0x30
1000591e:	9202      	str	r2, [sp, #8]
10005920:	9301      	str	r3, [sp, #4]
10005922:	ab18      	add	r3, sp, #96	@ 0x60
10005924:	0022      	movs	r2, r4
10005926:	9300      	str	r3, [sp, #0]
10005928:	4659      	mov	r1, fp
1000592a:	003b      	movs	r3, r7
1000592c:	0030      	movs	r0, r6
1000592e:	f7ff f87b 	bl	10004a28 <_ntoa_format>
10005932:	4643      	mov	r3, r8
10005934:	0004      	movs	r4, r0
10005936:	930b      	str	r3, [sp, #44]	@ 0x2c
10005938:	e5bf      	b.n	100054ba <_vsnprintf+0x52>
1000593a:	2800      	cmp	r0, #0
1000593c:	d100      	bne.n	10005940 <_vsnprintf+0x4d8>
1000593e:	e774      	b.n	1000582a <_vsnprintf+0x3c2>
10005940:	4653      	mov	r3, sl
10005942:	3b01      	subs	r3, #1
10005944:	e760      	b.n	10005808 <_vsnprintf+0x3a0>
10005946:	2862      	cmp	r0, #98	@ 0x62
10005948:	d100      	bne.n	1000594c <_vsnprintf+0x4e4>
1000594a:	e1df      	b.n	10005d0c <_vsnprintf+0x8a4>
1000594c:	2858      	cmp	r0, #88	@ 0x58
1000594e:	d100      	bne.n	10005952 <_vsnprintf+0x4ea>
10005950:	e1ec      	b.n	10005d2c <_vsnprintf+0x8c4>
10005952:	990a      	ldr	r1, [sp, #40]	@ 0x28
10005954:	2380      	movs	r3, #128	@ 0x80
10005956:	000a      	movs	r2, r1
10005958:	00db      	lsls	r3, r3, #3
1000595a:	401a      	ands	r2, r3
1000595c:	0010      	movs	r0, r2
1000595e:	000a      	movs	r2, r1
10005960:	4219      	tst	r1, r3
10005962:	d100      	bne.n	10005966 <_vsnprintf+0x4fe>
10005964:	e1bd      	b.n	10005ce2 <_vsnprintf+0x87a>
10005966:	2311      	movs	r3, #17
10005968:	439a      	bics	r2, r3
1000596a:	920c      	str	r2, [sp, #48]	@ 0x30
1000596c:	9a0c      	ldr	r2, [sp, #48]	@ 0x30
1000596e:	2380      	movs	r3, #128	@ 0x80
10005970:	0011      	movs	r1, r2
10005972:	009b      	lsls	r3, r3, #2
10005974:	4019      	ands	r1, r3
10005976:	468c      	mov	ip, r1
10005978:	421a      	tst	r2, r3
1000597a:	d000      	beq.n	1000597e <_vsnprintf+0x516>
1000597c:	e146      	b.n	10005c0c <_vsnprintf+0x7a4>
1000597e:	2380      	movs	r3, #128	@ 0x80
10005980:	0011      	movs	r1, r2
10005982:	005b      	lsls	r3, r3, #1
10005984:	4019      	ands	r1, r3
10005986:	4689      	mov	r9, r1
10005988:	990b      	ldr	r1, [sp, #44]	@ 0x2c
1000598a:	3104      	adds	r1, #4
1000598c:	910a      	str	r1, [sp, #40]	@ 0x28
1000598e:	421a      	tst	r2, r3
10005990:	d000      	beq.n	10005994 <_vsnprintf+0x52c>
10005992:	e28f      	b.n	10005eb4 <_vsnprintf+0xa4c>
10005994:	0013      	movs	r3, r2
10005996:	065b      	lsls	r3, r3, #25
10005998:	d500      	bpl.n	1000599c <_vsnprintf+0x534>
1000599a:	e19e      	b.n	10005cda <_vsnprintf+0x872>
1000599c:	0013      	movs	r3, r2
1000599e:	061b      	lsls	r3, r3, #24
100059a0:	d400      	bmi.n	100059a4 <_vsnprintf+0x53c>
100059a2:	e326      	b.n	10005ff2 <_vsnprintf+0xb8a>
100059a4:	9b0b      	ldr	r3, [sp, #44]	@ 0x2c
100059a6:	2200      	movs	r2, #0
100059a8:	5e9b      	ldrsh	r3, [r3, r2]
100059aa:	17d9      	asrs	r1, r3, #31
100059ac:	185a      	adds	r2, r3, r1
100059ae:	404a      	eors	r2, r1
100059b0:	b292      	uxth	r2, r2
100059b2:	0fd9      	lsrs	r1, r3, #31
100059b4:	910b      	str	r1, [sp, #44]	@ 0x2c
100059b6:	2b00      	cmp	r3, #0
100059b8:	d100      	bne.n	100059bc <_vsnprintf+0x554>
100059ba:	e277      	b.n	10005eac <_vsnprintf+0xa44>
100059bc:	0010      	movs	r0, r2
100059be:	aa10      	add	r2, sp, #64	@ 0x40
100059c0:	4694      	mov	ip, r2
100059c2:	4642      	mov	r2, r8
100059c4:	231f      	movs	r3, #31
100059c6:	9212      	str	r2, [sp, #72]	@ 0x48
100059c8:	4652      	mov	r2, sl
100059ca:	4463      	add	r3, ip
100059cc:	46aa      	mov	sl, r5
100059ce:	9414      	str	r4, [sp, #80]	@ 0x50
100059d0:	464d      	mov	r5, r9
100059d2:	0004      	movs	r4, r0
100059d4:	46b9      	mov	r9, r7
100059d6:	46b0      	mov	r8, r6
100059d8:	001f      	movs	r7, r3
100059da:	9213      	str	r2, [sp, #76]	@ 0x4c
100059dc:	e001      	b.n	100059e2 <_vsnprintf+0x57a>
100059de:	2d20      	cmp	r5, #32
100059e0:	d00f      	beq.n	10005a02 <_vsnprintf+0x59a>
100059e2:	0020      	movs	r0, r4
100059e4:	210a      	movs	r1, #10
100059e6:	f000 fbdb 	bl	100061a0 <__wrap___aeabi_uidiv>
100059ea:	3501      	adds	r5, #1
100059ec:	197e      	adds	r6, r7, r5
100059ee:	3130      	adds	r1, #48	@ 0x30
100059f0:	7031      	strb	r1, [r6, #0]
100059f2:	0020      	movs	r0, r4
100059f4:	210a      	movs	r1, #10
100059f6:	f000 fbd3 	bl	100061a0 <__wrap___aeabi_uidiv>
100059fa:	0026      	movs	r6, r4
100059fc:	0004      	movs	r4, r0
100059fe:	2e09      	cmp	r6, #9
10005a00:	d8ed      	bhi.n	100059de <_vsnprintf+0x576>
10005a02:	9b12      	ldr	r3, [sp, #72]	@ 0x48
10005a04:	4646      	mov	r6, r8
10005a06:	4698      	mov	r8, r3
10005a08:	9b13      	ldr	r3, [sp, #76]	@ 0x4c
10005a0a:	464f      	mov	r7, r9
10005a0c:	46a9      	mov	r9, r5
10005a0e:	4655      	mov	r5, sl
10005a10:	469a      	mov	sl, r3
10005a12:	9c14      	ldr	r4, [sp, #80]	@ 0x50
10005a14:	9b0c      	ldr	r3, [sp, #48]	@ 0x30
10005a16:	9306      	str	r3, [sp, #24]
10005a18:	4643      	mov	r3, r8
10005a1a:	9305      	str	r3, [sp, #20]
10005a1c:	4653      	mov	r3, sl
10005a1e:	9304      	str	r3, [sp, #16]
10005a20:	230a      	movs	r3, #10
10005a22:	9303      	str	r3, [sp, #12]
10005a24:	9b0b      	ldr	r3, [sp, #44]	@ 0x2c
10005a26:	9302      	str	r3, [sp, #8]
10005a28:	464b      	mov	r3, r9
10005a2a:	9301      	str	r3, [sp, #4]
10005a2c:	ab18      	add	r3, sp, #96	@ 0x60
10005a2e:	0022      	movs	r2, r4
10005a30:	9300      	str	r3, [sp, #0]
10005a32:	4659      	mov	r1, fp
10005a34:	003b      	movs	r3, r7
10005a36:	0030      	movs	r0, r6
10005a38:	f7fe fff6 	bl	10004a28 <_ntoa_format>
10005a3c:	9b0a      	ldr	r3, [sp, #40]	@ 0x28
10005a3e:	0004      	movs	r4, r0
10005a40:	930b      	str	r3, [sp, #44]	@ 0x2c
10005a42:	e53a      	b.n	100054ba <_vsnprintf+0x52>
10005a44:	2320      	movs	r3, #32
10005a46:	9a0a      	ldr	r2, [sp, #40]	@ 0x28
10005a48:	431a      	orrs	r2, r3
10005a4a:	920a      	str	r2, [sp, #40]	@ 0x28
10005a4c:	e66f      	b.n	1000572e <_vsnprintf+0x2c6>
10005a4e:	2380      	movs	r3, #128	@ 0x80
10005a50:	9a0a      	ldr	r2, [sp, #40]	@ 0x28
10005a52:	011b      	lsls	r3, r3, #4
10005a54:	431a      	orrs	r2, r3
10005a56:	920a      	str	r2, [sp, #40]	@ 0x28
10005a58:	e637      	b.n	100056ca <_vsnprintf+0x262>
10005a5a:	2878      	cmp	r0, #120	@ 0x78
10005a5c:	d000      	beq.n	10005a60 <_vsnprintf+0x5f8>
10005a5e:	e1af      	b.n	10005dc0 <_vsnprintf+0x958>
10005a60:	980a      	ldr	r0, [sp, #40]	@ 0x28
10005a62:	2380      	movs	r3, #128	@ 0x80
10005a64:	0002      	movs	r2, r0
10005a66:	00db      	lsls	r3, r3, #3
10005a68:	401a      	ands	r2, r3
10005a6a:	0011      	movs	r1, r2
10005a6c:	0002      	movs	r2, r0
10005a6e:	4218      	tst	r0, r3
10005a70:	d100      	bne.n	10005a74 <_vsnprintf+0x60c>
10005a72:	e2d0      	b.n	10006016 <_vsnprintf+0xbae>
10005a74:	230d      	movs	r3, #13
10005a76:	439a      	bics	r2, r3
10005a78:	0010      	movs	r0, r2
10005a7a:	3303      	adds	r3, #3
10005a7c:	930a      	str	r3, [sp, #40]	@ 0x28
10005a7e:	2380      	movs	r3, #128	@ 0x80
10005a80:	0002      	movs	r2, r0
10005a82:	009b      	lsls	r3, r3, #2
10005a84:	401a      	ands	r2, r3
10005a86:	4694      	mov	ip, r2
10005a88:	4218      	tst	r0, r3
10005a8a:	d000      	beq.n	10005a8e <_vsnprintf+0x626>
10005a8c:	e1ac      	b.n	10005de8 <_vsnprintf+0x980>
10005a8e:	2380      	movs	r3, #128	@ 0x80
10005a90:	0002      	movs	r2, r0
10005a92:	005b      	lsls	r3, r3, #1
10005a94:	401a      	ands	r2, r3
10005a96:	4691      	mov	r9, r2
10005a98:	9a0b      	ldr	r2, [sp, #44]	@ 0x2c
10005a9a:	3204      	adds	r2, #4
10005a9c:	920c      	str	r2, [sp, #48]	@ 0x30
10005a9e:	4218      	tst	r0, r3
10005aa0:	d000      	beq.n	10005aa4 <_vsnprintf+0x63c>
10005aa2:	e24a      	b.n	10005f3a <_vsnprintf+0xad2>
10005aa4:	0643      	lsls	r3, r0, #25
10005aa6:	d400      	bmi.n	10005aaa <_vsnprintf+0x642>
10005aa8:	e293      	b.n	10005fd2 <_vsnprintf+0xb6a>
10005aaa:	9b0b      	ldr	r3, [sp, #44]	@ 0x2c
10005aac:	781b      	ldrb	r3, [r3, #0]
10005aae:	9308      	str	r3, [sp, #32]
10005ab0:	2b00      	cmp	r3, #0
10005ab2:	d000      	beq.n	10005ab6 <_vsnprintf+0x64e>
10005ab4:	e14b      	b.n	10005d4e <_vsnprintf+0x8e6>
10005ab6:	3310      	adds	r3, #16
10005ab8:	4398      	bics	r0, r3
10005aba:	2900      	cmp	r1, #0
10005abc:	d100      	bne.n	10005ac0 <_vsnprintf+0x658>
10005abe:	e146      	b.n	10005d4e <_vsnprintf+0x8e6>
10005ac0:	2300      	movs	r3, #0
10005ac2:	4699      	mov	r9, r3
10005ac4:	4643      	mov	r3, r8
10005ac6:	9305      	str	r3, [sp, #20]
10005ac8:	4653      	mov	r3, sl
10005aca:	9304      	str	r3, [sp, #16]
10005acc:	9b0a      	ldr	r3, [sp, #40]	@ 0x28
10005ace:	9006      	str	r0, [sp, #24]
10005ad0:	9303      	str	r3, [sp, #12]
10005ad2:	2300      	movs	r3, #0
10005ad4:	9302      	str	r3, [sp, #8]
10005ad6:	464b      	mov	r3, r9
10005ad8:	9301      	str	r3, [sp, #4]
10005ada:	ab18      	add	r3, sp, #96	@ 0x60
10005adc:	0022      	movs	r2, r4
10005ade:	9300      	str	r3, [sp, #0]
10005ae0:	4659      	mov	r1, fp
10005ae2:	003b      	movs	r3, r7
10005ae4:	0030      	movs	r0, r6
10005ae6:	f7fe ff9f 	bl	10004a28 <_ntoa_format>
10005aea:	0004      	movs	r4, r0
10005aec:	e665      	b.n	100057ba <_vsnprintf+0x352>
10005aee:	2380      	movs	r3, #128	@ 0x80
10005af0:	9a0a      	ldr	r2, [sp, #40]	@ 0x28
10005af2:	011b      	lsls	r3, r3, #4
10005af4:	431a      	orrs	r2, r3
10005af6:	920a      	str	r2, [sp, #40]	@ 0x28
10005af8:	2320      	movs	r3, #32
10005afa:	9a0a      	ldr	r2, [sp, #40]	@ 0x28
10005afc:	431a      	orrs	r2, r3
10005afe:	920a      	str	r2, [sp, #40]	@ 0x28
10005b00:	e5e3      	b.n	100056ca <_vsnprintf+0x262>
10005b02:	1b0b      	subs	r3, r1, r4
10005b04:	469a      	mov	sl, r3
10005b06:	9b0c      	ldr	r3, [sp, #48]	@ 0x30
10005b08:	4699      	mov	r9, r3
10005b0a:	002b      	movs	r3, r5
10005b0c:	465d      	mov	r5, fp
10005b0e:	469b      	mov	fp, r3
10005b10:	0022      	movs	r2, r4
10005b12:	003b      	movs	r3, r7
10005b14:	0029      	movs	r1, r5
10005b16:	47b0      	blx	r6
10005b18:	4653      	mov	r3, sl
10005b1a:	3401      	adds	r4, #1
10005b1c:	5d18      	ldrb	r0, [r3, r4]
10005b1e:	2800      	cmp	r0, #0
10005b20:	d1f6      	bne.n	10005b10 <_vsnprintf+0x6a8>
10005b22:	464b      	mov	r3, r9
10005b24:	930c      	str	r3, [sp, #48]	@ 0x30
10005b26:	465b      	mov	r3, fp
10005b28:	46ab      	mov	fp, r5
10005b2a:	001d      	movs	r5, r3
10005b2c:	e6b9      	b.n	100058a2 <_vsnprintf+0x43a>
10005b2e:	23c0      	movs	r3, #192	@ 0xc0
10005b30:	009b      	lsls	r3, r3, #2
10005b32:	9a0a      	ldr	r2, [sp, #40]	@ 0x28
10005b34:	78a8      	ldrb	r0, [r5, #2]
10005b36:	431a      	orrs	r2, r3
10005b38:	920a      	str	r2, [sp, #40]	@ 0x28
10005b3a:	1ce9      	adds	r1, r5, #3
10005b3c:	e50d      	b.n	1000555a <_vsnprintf+0xf2>
10005b3e:	23c0      	movs	r3, #192	@ 0xc0
10005b40:	e7f7      	b.n	10005b32 <_vsnprintf+0x6ca>
10005b42:	465d      	mov	r5, fp
10005b44:	46bb      	mov	fp, r7
10005b46:	464f      	mov	r7, r9
10005b48:	e6ab      	b.n	100058a2 <_vsnprintf+0x43a>
10005b4a:	46c0      	nop			@ (mov r8, r8)
10005b4c:	10004995 	.word	0x10004995
10005b50:	4643      	mov	r3, r8
10005b52:	2b01      	cmp	r3, #1
10005b54:	d800      	bhi.n	10005b58 <_vsnprintf+0x6f0>
10005b56:	e0d1      	b.n	10005cfc <_vsnprintf+0x894>
10005b58:	1e63      	subs	r3, r4, #1
10005b5a:	4443      	add	r3, r8
10005b5c:	46b9      	mov	r9, r7
10005b5e:	001d      	movs	r5, r3
10005b60:	465f      	mov	r7, fp
10005b62:	46a2      	mov	sl, r4
10005b64:	468b      	mov	fp, r1
10005b66:	0022      	movs	r2, r4
10005b68:	464b      	mov	r3, r9
10005b6a:	3401      	adds	r4, #1
10005b6c:	0039      	movs	r1, r7
10005b6e:	2020      	movs	r0, #32
10005b70:	47b0      	blx	r6
10005b72:	42ac      	cmp	r4, r5
10005b74:	d1f7      	bne.n	10005b66 <_vsnprintf+0x6fe>
10005b76:	465d      	mov	r5, fp
10005b78:	46bb      	mov	fp, r7
10005b7a:	464f      	mov	r7, r9
10005b7c:	46a1      	mov	r9, r4
10005b7e:	4654      	mov	r4, sl
10005b80:	9b0b      	ldr	r3, [sp, #44]	@ 0x2c
10005b82:	464a      	mov	r2, r9
10005b84:	7818      	ldrb	r0, [r3, #0]
10005b86:	4659      	mov	r1, fp
10005b88:	003b      	movs	r3, r7
10005b8a:	4444      	add	r4, r8
10005b8c:	47b0      	blx	r6
10005b8e:	e614      	b.n	100057ba <_vsnprintf+0x352>
10005b90:	9b0c      	ldr	r3, [sp, #48]	@ 0x30
10005b92:	46a1      	mov	r9, r4
10005b94:	4598      	cmp	r8, r3
10005b96:	d800      	bhi.n	10005b9a <_vsnprintf+0x732>
10005b98:	e687      	b.n	100058aa <_vsnprintf+0x442>
10005b9a:	4444      	add	r4, r8
10005b9c:	1ae4      	subs	r4, r4, r3
10005b9e:	002b      	movs	r3, r5
10005ba0:	46b8      	mov	r8, r7
10005ba2:	0025      	movs	r5, r4
10005ba4:	465f      	mov	r7, fp
10005ba6:	464c      	mov	r4, r9
10005ba8:	4699      	mov	r9, r3
10005baa:	0022      	movs	r2, r4
10005bac:	4643      	mov	r3, r8
10005bae:	3401      	adds	r4, #1
10005bb0:	0039      	movs	r1, r7
10005bb2:	2020      	movs	r0, #32
10005bb4:	47b0      	blx	r6
10005bb6:	42ac      	cmp	r4, r5
10005bb8:	d1f7      	bne.n	10005baa <_vsnprintf+0x742>
10005bba:	002c      	movs	r4, r5
10005bbc:	46bb      	mov	fp, r7
10005bbe:	464d      	mov	r5, r9
10005bc0:	4647      	mov	r7, r8
10005bc2:	e672      	b.n	100058aa <_vsnprintf+0x442>
10005bc4:	980c      	ldr	r0, [sp, #48]	@ 0x30
10005bc6:	4580      	cmp	r8, r0
10005bc8:	d800      	bhi.n	10005bcc <_vsnprintf+0x764>
10005bca:	e21c      	b.n	10006006 <_vsnprintf+0xb9e>
10005bcc:	4643      	mov	r3, r8
10005bce:	191a      	adds	r2, r3, r4
10005bd0:	1a13      	subs	r3, r2, r0
10005bd2:	4699      	mov	r9, r3
10005bd4:	002b      	movs	r3, r5
10005bd6:	464d      	mov	r5, r9
10005bd8:	46b9      	mov	r9, r7
10005bda:	465f      	mov	r7, fp
10005bdc:	469b      	mov	fp, r3
10005bde:	910c      	str	r1, [sp, #48]	@ 0x30
10005be0:	0022      	movs	r2, r4
10005be2:	464b      	mov	r3, r9
10005be4:	3401      	adds	r4, #1
10005be6:	0039      	movs	r1, r7
10005be8:	2020      	movs	r0, #32
10005bea:	47b0      	blx	r6
10005bec:	42ac      	cmp	r4, r5
10005bee:	d1f7      	bne.n	10005be0 <_vsnprintf+0x778>
10005bf0:	4643      	mov	r3, r8
10005bf2:	990c      	ldr	r1, [sp, #48]	@ 0x30
10005bf4:	3301      	adds	r3, #1
10005bf6:	930c      	str	r3, [sp, #48]	@ 0x30
10005bf8:	780b      	ldrb	r3, [r1, #0]
10005bfa:	465d      	mov	r5, fp
10005bfc:	469c      	mov	ip, r3
10005bfe:	46bb      	mov	fp, r7
10005c00:	464f      	mov	r7, r9
10005c02:	4660      	mov	r0, ip
10005c04:	2800      	cmp	r0, #0
10005c06:	d000      	beq.n	10005c0a <_vsnprintf+0x7a2>
10005c08:	e62a      	b.n	10005860 <_vsnprintf+0x3f8>
10005c0a:	e64e      	b.n	100058aa <_vsnprintf+0x442>
10005c0c:	2207      	movs	r2, #7
10005c0e:	9b0b      	ldr	r3, [sp, #44]	@ 0x2c
10005c10:	3307      	adds	r3, #7
10005c12:	4393      	bics	r3, r2
10005c14:	3201      	adds	r2, #1
10005c16:	4694      	mov	ip, r2
10005c18:	449c      	add	ip, r3
10005c1a:	4662      	mov	r2, ip
10005c1c:	920b      	str	r2, [sp, #44]	@ 0x2c
10005c1e:	cb0c      	ldmia	r3, {r2, r3}
10005c20:	0fd9      	lsrs	r1, r3, #31
10005c22:	910a      	str	r1, [sp, #40]	@ 0x28
10005c24:	0011      	movs	r1, r2
10005c26:	4319      	orrs	r1, r3
10005c28:	d05f      	beq.n	10005cea <_vsnprintf+0x882>
10005c2a:	17d9      	asrs	r1, r3, #31
10005c2c:	9111      	str	r1, [sp, #68]	@ 0x44
10005c2e:	9110      	str	r1, [sp, #64]	@ 0x40
10005c30:	4051      	eors	r1, r2
10005c32:	910e      	str	r1, [sp, #56]	@ 0x38
10005c34:	9911      	ldr	r1, [sp, #68]	@ 0x44
10005c36:	4059      	eors	r1, r3
10005c38:	910f      	str	r1, [sp, #60]	@ 0x3c
10005c3a:	980e      	ldr	r0, [sp, #56]	@ 0x38
10005c3c:	990f      	ldr	r1, [sp, #60]	@ 0x3c
10005c3e:	9a10      	ldr	r2, [sp, #64]	@ 0x40
10005c40:	9b11      	ldr	r3, [sp, #68]	@ 0x44
10005c42:	1a80      	subs	r0, r0, r2
10005c44:	4199      	sbcs	r1, r3
10005c46:	900e      	str	r0, [sp, #56]	@ 0x38
10005c48:	910f      	str	r1, [sp, #60]	@ 0x3c
10005c4a:	aa10      	add	r2, sp, #64	@ 0x40
10005c4c:	2300      	movs	r3, #0
10005c4e:	4694      	mov	ip, r2
10005c50:	4642      	mov	r2, r8
10005c52:	4699      	mov	r9, r3
10005c54:	9212      	str	r2, [sp, #72]	@ 0x48
10005c56:	4652      	mov	r2, sl
10005c58:	331f      	adds	r3, #31
10005c5a:	4463      	add	r3, ip
10005c5c:	46b0      	mov	r8, r6
10005c5e:	46aa      	mov	sl, r5
10005c60:	464e      	mov	r6, r9
10005c62:	9414      	str	r4, [sp, #80]	@ 0x50
10005c64:	46b9      	mov	r9, r7
10005c66:	9c0e      	ldr	r4, [sp, #56]	@ 0x38
10005c68:	9d0f      	ldr	r5, [sp, #60]	@ 0x3c
10005c6a:	001f      	movs	r7, r3
10005c6c:	9213      	str	r2, [sp, #76]	@ 0x4c
10005c6e:	e001      	b.n	10005c74 <_vsnprintf+0x80c>
10005c70:	2e20      	cmp	r6, #32
10005c72:	d010      	beq.n	10005c96 <_vsnprintf+0x82e>
10005c74:	0020      	movs	r0, r4
10005c76:	0029      	movs	r1, r5
10005c78:	220a      	movs	r2, #10
10005c7a:	2300      	movs	r3, #0
10005c7c:	f000 face 	bl	1000621c <__wrap___aeabi_uldivmod>
10005c80:	3601      	adds	r6, #1
10005c82:	3230      	adds	r2, #48	@ 0x30
10005c84:	002b      	movs	r3, r5
10005c86:	55ba      	strb	r2, [r7, r6]
10005c88:	000d      	movs	r5, r1
10005c8a:	0022      	movs	r2, r4
10005c8c:	0004      	movs	r4, r0
10005c8e:	2b00      	cmp	r3, #0
10005c90:	d1ee      	bne.n	10005c70 <_vsnprintf+0x808>
10005c92:	2a09      	cmp	r2, #9
10005c94:	d8ec      	bhi.n	10005c70 <_vsnprintf+0x808>
10005c96:	9b12      	ldr	r3, [sp, #72]	@ 0x48
10005c98:	464f      	mov	r7, r9
10005c9a:	46b1      	mov	r9, r6
10005c9c:	4646      	mov	r6, r8
10005c9e:	4698      	mov	r8, r3
10005ca0:	9b13      	ldr	r3, [sp, #76]	@ 0x4c
10005ca2:	940e      	str	r4, [sp, #56]	@ 0x38
10005ca4:	950f      	str	r5, [sp, #60]	@ 0x3c
10005ca6:	4655      	mov	r5, sl
10005ca8:	469a      	mov	sl, r3
10005caa:	9c14      	ldr	r4, [sp, #80]	@ 0x50
10005cac:	9b0c      	ldr	r3, [sp, #48]	@ 0x30
10005cae:	9306      	str	r3, [sp, #24]
10005cb0:	4643      	mov	r3, r8
10005cb2:	9305      	str	r3, [sp, #20]
10005cb4:	4653      	mov	r3, sl
10005cb6:	9304      	str	r3, [sp, #16]
10005cb8:	230a      	movs	r3, #10
10005cba:	9303      	str	r3, [sp, #12]
10005cbc:	9b0a      	ldr	r3, [sp, #40]	@ 0x28
10005cbe:	9302      	str	r3, [sp, #8]
10005cc0:	464b      	mov	r3, r9
10005cc2:	9301      	str	r3, [sp, #4]
10005cc4:	ab18      	add	r3, sp, #96	@ 0x60
10005cc6:	0022      	movs	r2, r4
10005cc8:	9300      	str	r3, [sp, #0]
10005cca:	4659      	mov	r1, fp
10005ccc:	003b      	movs	r3, r7
10005cce:	0030      	movs	r0, r6
10005cd0:	f7fe feaa 	bl	10004a28 <_ntoa_format>
10005cd4:	0004      	movs	r4, r0
10005cd6:	f7ff fbf0 	bl	100054ba <_vsnprintf+0x52>
10005cda:	9b0b      	ldr	r3, [sp, #44]	@ 0x2c
10005cdc:	781b      	ldrb	r3, [r3, #0]
10005cde:	001a      	movs	r2, r3
10005ce0:	e667      	b.n	100059b2 <_vsnprintf+0x54a>
10005ce2:	2310      	movs	r3, #16
10005ce4:	439a      	bics	r2, r3
10005ce6:	920c      	str	r2, [sp, #48]	@ 0x30
10005ce8:	e640      	b.n	1000596c <_vsnprintf+0x504>
10005cea:	2300      	movs	r3, #0
10005cec:	4699      	mov	r9, r3
10005cee:	2800      	cmp	r0, #0
10005cf0:	d1dc      	bne.n	10005cac <_vsnprintf+0x844>
10005cf2:	2200      	movs	r2, #0
10005cf4:	2300      	movs	r3, #0
10005cf6:	920e      	str	r2, [sp, #56]	@ 0x38
10005cf8:	930f      	str	r3, [sp, #60]	@ 0x3c
10005cfa:	e7a6      	b.n	10005c4a <_vsnprintf+0x7e2>
10005cfc:	9b0b      	ldr	r3, [sp, #44]	@ 0x2c
10005cfe:	0022      	movs	r2, r4
10005d00:	7818      	ldrb	r0, [r3, #0]
10005d02:	4659      	mov	r1, fp
10005d04:	003b      	movs	r3, r7
10005d06:	47b0      	blx	r6
10005d08:	464c      	mov	r4, r9
10005d0a:	e556      	b.n	100057ba <_vsnprintf+0x352>
10005d0c:	980a      	ldr	r0, [sp, #40]	@ 0x28
10005d0e:	2380      	movs	r3, #128	@ 0x80
10005d10:	0002      	movs	r2, r0
10005d12:	00db      	lsls	r3, r3, #3
10005d14:	401a      	ands	r2, r3
10005d16:	0011      	movs	r1, r2
10005d18:	4218      	tst	r0, r3
10005d1a:	d100      	bne.n	10005d1e <_vsnprintf+0x8b6>
10005d1c:	e15f      	b.n	10005fde <_vsnprintf+0xb76>
10005d1e:	0002      	movs	r2, r0
10005d20:	230d      	movs	r3, #13
10005d22:	439a      	bics	r2, r3
10005d24:	3b0b      	subs	r3, #11
10005d26:	0010      	movs	r0, r2
10005d28:	930a      	str	r3, [sp, #40]	@ 0x28
10005d2a:	e6a8      	b.n	10005a7e <_vsnprintf+0x616>
10005d2c:	980a      	ldr	r0, [sp, #40]	@ 0x28
10005d2e:	2380      	movs	r3, #128	@ 0x80
10005d30:	0002      	movs	r2, r0
10005d32:	00db      	lsls	r3, r3, #3
10005d34:	401a      	ands	r2, r3
10005d36:	0011      	movs	r1, r2
10005d38:	0002      	movs	r2, r0
10005d3a:	4218      	tst	r0, r3
10005d3c:	d100      	bne.n	10005d40 <_vsnprintf+0x8d8>
10005d3e:	e166      	b.n	1000600e <_vsnprintf+0xba6>
10005d40:	230d      	movs	r3, #13
10005d42:	2020      	movs	r0, #32
10005d44:	439a      	bics	r2, r3
10005d46:	3303      	adds	r3, #3
10005d48:	4310      	orrs	r0, r2
10005d4a:	930a      	str	r3, [sp, #40]	@ 0x28
10005d4c:	e697      	b.n	10005a7e <_vsnprintf+0x616>
10005d4e:	2361      	movs	r3, #97	@ 0x61
10005d50:	0682      	lsls	r2, r0, #26
10005d52:	d500      	bpl.n	10005d56 <_vsnprintf+0x8ee>
10005d54:	2341      	movs	r3, #65	@ 0x41
10005d56:	b2db      	uxtb	r3, r3
10005d58:	3b0a      	subs	r3, #10
10005d5a:	930b      	str	r3, [sp, #44]	@ 0x2c
10005d5c:	4643      	mov	r3, r8
10005d5e:	a910      	add	r1, sp, #64	@ 0x40
10005d60:	221f      	movs	r2, #31
10005d62:	468c      	mov	ip, r1
10005d64:	9312      	str	r3, [sp, #72]	@ 0x48
10005d66:	4653      	mov	r3, sl
10005d68:	4462      	add	r2, ip
10005d6a:	46aa      	mov	sl, r5
10005d6c:	9414      	str	r4, [sp, #80]	@ 0x50
10005d6e:	9715      	str	r7, [sp, #84]	@ 0x54
10005d70:	464c      	mov	r4, r9
10005d72:	4680      	mov	r8, r0
10005d74:	46b1      	mov	r9, r6
10005d76:	0017      	movs	r7, r2
10005d78:	9e0a      	ldr	r6, [sp, #40]	@ 0x28
10005d7a:	9d08      	ldr	r5, [sp, #32]
10005d7c:	9313      	str	r3, [sp, #76]	@ 0x4c
10005d7e:	e008      	b.n	10005d92 <_vsnprintf+0x92a>
10005d80:	3330      	adds	r3, #48	@ 0x30
10005d82:	b2db      	uxtb	r3, r3
10005d84:	3401      	adds	r4, #1
10005d86:	553b      	strb	r3, [r7, r4]
10005d88:	42b5      	cmp	r5, r6
10005d8a:	d30e      	bcc.n	10005daa <_vsnprintf+0x942>
10005d8c:	2c20      	cmp	r4, #32
10005d8e:	d00c      	beq.n	10005daa <_vsnprintf+0x942>
10005d90:	0005      	movs	r5, r0
10005d92:	0031      	movs	r1, r6
10005d94:	0028      	movs	r0, r5
10005d96:	f000 fa03 	bl	100061a0 <__wrap___aeabi_uidiv>
10005d9a:	b2cb      	uxtb	r3, r1
10005d9c:	2909      	cmp	r1, #9
10005d9e:	d9ef      	bls.n	10005d80 <_vsnprintf+0x918>
10005da0:	9a0b      	ldr	r2, [sp, #44]	@ 0x2c
10005da2:	4694      	mov	ip, r2
10005da4:	4463      	add	r3, ip
10005da6:	b2db      	uxtb	r3, r3
10005da8:	e7ec      	b.n	10005d84 <_vsnprintf+0x91c>
10005daa:	9b12      	ldr	r3, [sp, #72]	@ 0x48
10005dac:	4640      	mov	r0, r8
10005dae:	4698      	mov	r8, r3
10005db0:	9b13      	ldr	r3, [sp, #76]	@ 0x4c
10005db2:	464e      	mov	r6, r9
10005db4:	4655      	mov	r5, sl
10005db6:	46a1      	mov	r9, r4
10005db8:	469a      	mov	sl, r3
10005dba:	9c14      	ldr	r4, [sp, #80]	@ 0x50
10005dbc:	9f15      	ldr	r7, [sp, #84]	@ 0x54
10005dbe:	e681      	b.n	10005ac4 <_vsnprintf+0x65c>
10005dc0:	286f      	cmp	r0, #111	@ 0x6f
10005dc2:	d000      	beq.n	10005dc6 <_vsnprintf+0x95e>
10005dc4:	e137      	b.n	10006036 <_vsnprintf+0xbce>
10005dc6:	990a      	ldr	r1, [sp, #40]	@ 0x28
10005dc8:	230c      	movs	r3, #12
10005dca:	000a      	movs	r2, r1
10005dcc:	439a      	bics	r2, r3
10005dce:	2380      	movs	r3, #128	@ 0x80
10005dd0:	0010      	movs	r0, r2
10005dd2:	000a      	movs	r2, r1
10005dd4:	00db      	lsls	r3, r3, #3
10005dd6:	401a      	ands	r2, r3
10005dd8:	0011      	movs	r1, r2
10005dda:	9a0a      	ldr	r2, [sp, #40]	@ 0x28
10005ddc:	421a      	tst	r2, r3
10005dde:	d000      	beq.n	10005de2 <_vsnprintf+0x97a>
10005de0:	e121      	b.n	10006026 <_vsnprintf+0xbbe>
10005de2:	2308      	movs	r3, #8
10005de4:	930a      	str	r3, [sp, #40]	@ 0x28
10005de6:	e64a      	b.n	10005a7e <_vsnprintf+0x616>
10005de8:	9a0b      	ldr	r2, [sp, #44]	@ 0x2c
10005dea:	3bfa      	subs	r3, #250	@ 0xfa
10005dec:	3bff      	subs	r3, #255	@ 0xff
10005dee:	3207      	adds	r2, #7
10005df0:	439a      	bics	r2, r3
10005df2:	3301      	adds	r3, #1
10005df4:	469c      	mov	ip, r3
10005df6:	4494      	add	ip, r2
10005df8:	4663      	mov	r3, ip
10005dfa:	930b      	str	r3, [sp, #44]	@ 0x2c
10005dfc:	6813      	ldr	r3, [r2, #0]
10005dfe:	6852      	ldr	r2, [r2, #4]
10005e00:	9308      	str	r3, [sp, #32]
10005e02:	4313      	orrs	r3, r2
10005e04:	9212      	str	r2, [sp, #72]	@ 0x48
10005e06:	1e1a      	subs	r2, r3, #0
10005e08:	d105      	bne.n	10005e16 <_vsnprintf+0x9ae>
10005e0a:	2300      	movs	r3, #0
10005e0c:	3210      	adds	r2, #16
10005e0e:	4699      	mov	r9, r3
10005e10:	4390      	bics	r0, r2
10005e12:	2900      	cmp	r1, #0
10005e14:	d141      	bne.n	10005e9a <_vsnprintf+0xa32>
10005e16:	2261      	movs	r2, #97	@ 0x61
10005e18:	0681      	lsls	r1, r0, #26
10005e1a:	d500      	bpl.n	10005e1e <_vsnprintf+0x9b6>
10005e1c:	2241      	movs	r2, #65	@ 0x41
10005e1e:	b2d2      	uxtb	r2, r2
10005e20:	3a0a      	subs	r2, #10
10005e22:	920c      	str	r2, [sp, #48]	@ 0x30
10005e24:	4642      	mov	r2, r8
10005e26:	2300      	movs	r3, #0
10005e28:	a910      	add	r1, sp, #64	@ 0x40
10005e2a:	9213      	str	r2, [sp, #76]	@ 0x4c
10005e2c:	4652      	mov	r2, sl
10005e2e:	468c      	mov	ip, r1
10005e30:	4699      	mov	r9, r3
10005e32:	9214      	str	r2, [sp, #80]	@ 0x50
10005e34:	331f      	adds	r3, #31
10005e36:	9a0a      	ldr	r2, [sp, #40]	@ 0x28
10005e38:	4463      	add	r3, ip
10005e3a:	46aa      	mov	sl, r5
10005e3c:	9415      	str	r4, [sp, #84]	@ 0x54
10005e3e:	9617      	str	r6, [sp, #92]	@ 0x5c
10005e40:	464c      	mov	r4, r9
10005e42:	4690      	mov	r8, r2
10005e44:	46b9      	mov	r9, r7
10005e46:	9e08      	ldr	r6, [sp, #32]
10005e48:	001f      	movs	r7, r3
10005e4a:	9d12      	ldr	r5, [sp, #72]	@ 0x48
10005e4c:	9016      	str	r0, [sp, #88]	@ 0x58
10005e4e:	e00a      	b.n	10005e66 <_vsnprintf+0x9fe>
10005e50:	3230      	adds	r2, #48	@ 0x30
10005e52:	b2d2      	uxtb	r2, r2
10005e54:	2300      	movs	r3, #0
10005e56:	3401      	adds	r4, #1
10005e58:	553a      	strb	r2, [r7, r4]
10005e5a:	42ab      	cmp	r3, r5
10005e5c:	d011      	beq.n	10005e82 <_vsnprintf+0xa1a>
10005e5e:	2c20      	cmp	r4, #32
10005e60:	d011      	beq.n	10005e86 <_vsnprintf+0xa1e>
10005e62:	0006      	movs	r6, r0
10005e64:	000d      	movs	r5, r1
10005e66:	4642      	mov	r2, r8
10005e68:	2300      	movs	r3, #0
10005e6a:	0030      	movs	r0, r6
10005e6c:	0029      	movs	r1, r5
10005e6e:	f000 f9d5 	bl	1000621c <__wrap___aeabi_uldivmod>
10005e72:	b2d2      	uxtb	r2, r2
10005e74:	2a09      	cmp	r2, #9
10005e76:	d9eb      	bls.n	10005e50 <_vsnprintf+0x9e8>
10005e78:	9b0c      	ldr	r3, [sp, #48]	@ 0x30
10005e7a:	469c      	mov	ip, r3
10005e7c:	4462      	add	r2, ip
10005e7e:	b2d2      	uxtb	r2, r2
10005e80:	e7e8      	b.n	10005e54 <_vsnprintf+0x9ec>
10005e82:	45b0      	cmp	r8, r6
10005e84:	d9eb      	bls.n	10005e5e <_vsnprintf+0x9f6>
10005e86:	9b13      	ldr	r3, [sp, #76]	@ 0x4c
10005e88:	4655      	mov	r5, sl
10005e8a:	4698      	mov	r8, r3
10005e8c:	9b14      	ldr	r3, [sp, #80]	@ 0x50
10005e8e:	464f      	mov	r7, r9
10005e90:	469a      	mov	sl, r3
10005e92:	46a1      	mov	r9, r4
10005e94:	9816      	ldr	r0, [sp, #88]	@ 0x58
10005e96:	9e17      	ldr	r6, [sp, #92]	@ 0x5c
10005e98:	9c15      	ldr	r4, [sp, #84]	@ 0x54
10005e9a:	4643      	mov	r3, r8
10005e9c:	9305      	str	r3, [sp, #20]
10005e9e:	4653      	mov	r3, sl
10005ea0:	9304      	str	r3, [sp, #16]
10005ea2:	9b0a      	ldr	r3, [sp, #40]	@ 0x28
10005ea4:	9006      	str	r0, [sp, #24]
10005ea6:	9303      	str	r3, [sp, #12]
10005ea8:	2300      	movs	r3, #0
10005eaa:	e708      	b.n	10005cbe <_vsnprintf+0x856>
10005eac:	2800      	cmp	r0, #0
10005eae:	d000      	beq.n	10005eb2 <_vsnprintf+0xa4a>
10005eb0:	e5b0      	b.n	10005a14 <_vsnprintf+0x5ac>
10005eb2:	e584      	b.n	100059be <_vsnprintf+0x556>
10005eb4:	9b0b      	ldr	r3, [sp, #44]	@ 0x2c
10005eb6:	681b      	ldr	r3, [r3, #0]
10005eb8:	0fda      	lsrs	r2, r3, #31
10005eba:	0011      	movs	r1, r2
10005ebc:	2b00      	cmp	r3, #0
10005ebe:	d100      	bne.n	10005ec2 <_vsnprintf+0xa5a>
10005ec0:	e094      	b.n	10005fec <_vsnprintf+0xb84>
10005ec2:	17da      	asrs	r2, r3, #31
10005ec4:	1898      	adds	r0, r3, r2
10005ec6:	4050      	eors	r0, r2
10005ec8:	aa10      	add	r2, sp, #64	@ 0x40
10005eca:	4691      	mov	r9, r2
10005ecc:	4642      	mov	r2, r8
10005ece:	231f      	movs	r3, #31
10005ed0:	9212      	str	r2, [sp, #72]	@ 0x48
10005ed2:	4652      	mov	r2, sl
10005ed4:	444b      	add	r3, r9
10005ed6:	46a0      	mov	r8, r4
10005ed8:	46aa      	mov	sl, r5
10005eda:	9714      	str	r7, [sp, #80]	@ 0x50
10005edc:	0004      	movs	r4, r0
10005ede:	46b1      	mov	r9, r6
10005ee0:	4665      	mov	r5, ip
10005ee2:	001f      	movs	r7, r3
10005ee4:	910b      	str	r1, [sp, #44]	@ 0x2c
10005ee6:	9213      	str	r2, [sp, #76]	@ 0x4c
10005ee8:	e001      	b.n	10005eee <_vsnprintf+0xa86>
10005eea:	2d20      	cmp	r5, #32
10005eec:	d00f      	beq.n	10005f0e <_vsnprintf+0xaa6>
10005eee:	0020      	movs	r0, r4
10005ef0:	210a      	movs	r1, #10
10005ef2:	f000 f955 	bl	100061a0 <__wrap___aeabi_uidiv>
10005ef6:	3501      	adds	r5, #1
10005ef8:	197e      	adds	r6, r7, r5
10005efa:	3130      	adds	r1, #48	@ 0x30
10005efc:	7031      	strb	r1, [r6, #0]
10005efe:	0020      	movs	r0, r4
10005f00:	210a      	movs	r1, #10
10005f02:	f000 f94d 	bl	100061a0 <__wrap___aeabi_uidiv>
10005f06:	0026      	movs	r6, r4
10005f08:	0004      	movs	r4, r0
10005f0a:	2e09      	cmp	r6, #9
10005f0c:	d8ed      	bhi.n	10005eea <_vsnprintf+0xa82>
10005f0e:	9b12      	ldr	r3, [sp, #72]	@ 0x48
10005f10:	4644      	mov	r4, r8
10005f12:	4698      	mov	r8, r3
10005f14:	9b0b      	ldr	r3, [sp, #44]	@ 0x2c
10005f16:	46ac      	mov	ip, r5
10005f18:	0019      	movs	r1, r3
10005f1a:	9b13      	ldr	r3, [sp, #76]	@ 0x4c
10005f1c:	4655      	mov	r5, sl
10005f1e:	464e      	mov	r6, r9
10005f20:	469a      	mov	sl, r3
10005f22:	9f14      	ldr	r7, [sp, #80]	@ 0x50
10005f24:	9b0c      	ldr	r3, [sp, #48]	@ 0x30
10005f26:	9102      	str	r1, [sp, #8]
10005f28:	9306      	str	r3, [sp, #24]
10005f2a:	4643      	mov	r3, r8
10005f2c:	9305      	str	r3, [sp, #20]
10005f2e:	4653      	mov	r3, sl
10005f30:	9304      	str	r3, [sp, #16]
10005f32:	230a      	movs	r3, #10
10005f34:	9303      	str	r3, [sp, #12]
10005f36:	4663      	mov	r3, ip
10005f38:	e577      	b.n	10005a2a <_vsnprintf+0x5c2>
10005f3a:	9b0b      	ldr	r3, [sp, #44]	@ 0x2c
10005f3c:	681b      	ldr	r3, [r3, #0]
10005f3e:	9308      	str	r3, [sp, #32]
10005f40:	2b00      	cmp	r3, #0
10005f42:	d103      	bne.n	10005f4c <_vsnprintf+0xae4>
10005f44:	3310      	adds	r3, #16
10005f46:	4398      	bics	r0, r3
10005f48:	2900      	cmp	r1, #0
10005f4a:	d137      	bne.n	10005fbc <_vsnprintf+0xb54>
10005f4c:	2361      	movs	r3, #97	@ 0x61
10005f4e:	0682      	lsls	r2, r0, #26
10005f50:	d500      	bpl.n	10005f54 <_vsnprintf+0xaec>
10005f52:	2341      	movs	r3, #65	@ 0x41
10005f54:	b2db      	uxtb	r3, r3
10005f56:	3b0a      	subs	r3, #10
10005f58:	930b      	str	r3, [sp, #44]	@ 0x2c
10005f5a:	4643      	mov	r3, r8
10005f5c:	a910      	add	r1, sp, #64	@ 0x40
10005f5e:	4689      	mov	r9, r1
10005f60:	221f      	movs	r2, #31
10005f62:	9312      	str	r3, [sp, #72]	@ 0x48
10005f64:	4653      	mov	r3, sl
10005f66:	444a      	add	r2, r9
10005f68:	46aa      	mov	sl, r5
10005f6a:	46b1      	mov	r9, r6
10005f6c:	9414      	str	r4, [sp, #80]	@ 0x50
10005f6e:	9715      	str	r7, [sp, #84]	@ 0x54
10005f70:	4664      	mov	r4, ip
10005f72:	4680      	mov	r8, r0
10005f74:	0017      	movs	r7, r2
10005f76:	9d08      	ldr	r5, [sp, #32]
10005f78:	9e0a      	ldr	r6, [sp, #40]	@ 0x28
10005f7a:	9313      	str	r3, [sp, #76]	@ 0x4c
10005f7c:	e008      	b.n	10005f90 <_vsnprintf+0xb28>
10005f7e:	3330      	adds	r3, #48	@ 0x30
10005f80:	b2db      	uxtb	r3, r3
10005f82:	3401      	adds	r4, #1
10005f84:	553b      	strb	r3, [r7, r4]
10005f86:	42b5      	cmp	r5, r6
10005f88:	d30e      	bcc.n	10005fa8 <_vsnprintf+0xb40>
10005f8a:	2c20      	cmp	r4, #32
10005f8c:	d00c      	beq.n	10005fa8 <_vsnprintf+0xb40>
10005f8e:	0005      	movs	r5, r0
10005f90:	0031      	movs	r1, r6
10005f92:	0028      	movs	r0, r5
10005f94:	f000 f904 	bl	100061a0 <__wrap___aeabi_uidiv>
10005f98:	b2cb      	uxtb	r3, r1
10005f9a:	2909      	cmp	r1, #9
10005f9c:	d9ef      	bls.n	10005f7e <_vsnprintf+0xb16>
10005f9e:	9a0b      	ldr	r2, [sp, #44]	@ 0x2c
10005fa0:	4694      	mov	ip, r2
10005fa2:	4463      	add	r3, ip
10005fa4:	b2db      	uxtb	r3, r3
10005fa6:	e7ec      	b.n	10005f82 <_vsnprintf+0xb1a>
10005fa8:	9b12      	ldr	r3, [sp, #72]	@ 0x48
10005faa:	4640      	mov	r0, r8
10005fac:	4698      	mov	r8, r3
10005fae:	9b13      	ldr	r3, [sp, #76]	@ 0x4c
10005fb0:	4655      	mov	r5, sl
10005fb2:	464e      	mov	r6, r9
10005fb4:	469a      	mov	sl, r3
10005fb6:	46a4      	mov	ip, r4
10005fb8:	9f15      	ldr	r7, [sp, #84]	@ 0x54
10005fba:	9c14      	ldr	r4, [sp, #80]	@ 0x50
10005fbc:	4643      	mov	r3, r8
10005fbe:	9305      	str	r3, [sp, #20]
10005fc0:	4653      	mov	r3, sl
10005fc2:	9304      	str	r3, [sp, #16]
10005fc4:	9b0a      	ldr	r3, [sp, #40]	@ 0x28
10005fc6:	9006      	str	r0, [sp, #24]
10005fc8:	9303      	str	r3, [sp, #12]
10005fca:	2300      	movs	r3, #0
10005fcc:	9302      	str	r3, [sp, #8]
10005fce:	4663      	mov	r3, ip
10005fd0:	e582      	b.n	10005ad8 <_vsnprintf+0x670>
10005fd2:	0603      	lsls	r3, r0, #24
10005fd4:	d513      	bpl.n	10005ffe <_vsnprintf+0xb96>
10005fd6:	9b0b      	ldr	r3, [sp, #44]	@ 0x2c
10005fd8:	881b      	ldrh	r3, [r3, #0]
10005fda:	9308      	str	r3, [sp, #32]
10005fdc:	e568      	b.n	10005ab0 <_vsnprintf+0x648>
10005fde:	0002      	movs	r2, r0
10005fe0:	230c      	movs	r3, #12
10005fe2:	439a      	bics	r2, r3
10005fe4:	3b0a      	subs	r3, #10
10005fe6:	0010      	movs	r0, r2
10005fe8:	930a      	str	r3, [sp, #40]	@ 0x28
10005fea:	e548      	b.n	10005a7e <_vsnprintf+0x616>
10005fec:	2800      	cmp	r0, #0
10005fee:	d199      	bne.n	10005f24 <_vsnprintf+0xabc>
10005ff0:	e76a      	b.n	10005ec8 <_vsnprintf+0xa60>
10005ff2:	9b0b      	ldr	r3, [sp, #44]	@ 0x2c
10005ff4:	681b      	ldr	r3, [r3, #0]
10005ff6:	17d9      	asrs	r1, r3, #31
10005ff8:	185a      	adds	r2, r3, r1
10005ffa:	404a      	eors	r2, r1
10005ffc:	e4d9      	b.n	100059b2 <_vsnprintf+0x54a>
10005ffe:	9b0b      	ldr	r3, [sp, #44]	@ 0x2c
10006000:	681b      	ldr	r3, [r3, #0]
10006002:	9308      	str	r3, [sp, #32]
10006004:	e554      	b.n	10005ab0 <_vsnprintf+0x648>
10006006:	0003      	movs	r3, r0
10006008:	3301      	adds	r3, #1
1000600a:	930c      	str	r3, [sp, #48]	@ 0x30
1000600c:	e5f9      	b.n	10005c02 <_vsnprintf+0x79a>
1000600e:	2320      	movs	r3, #32
10006010:	9a0a      	ldr	r2, [sp, #40]	@ 0x28
10006012:	431a      	orrs	r2, r3
10006014:	920a      	str	r2, [sp, #40]	@ 0x28
10006016:	230c      	movs	r3, #12
10006018:	9a0a      	ldr	r2, [sp, #40]	@ 0x28
1000601a:	2100      	movs	r1, #0
1000601c:	439a      	bics	r2, r3
1000601e:	3304      	adds	r3, #4
10006020:	0010      	movs	r0, r2
10006022:	930a      	str	r3, [sp, #40]	@ 0x28
10006024:	e52b      	b.n	10005a7e <_vsnprintf+0x616>
10006026:	9b0a      	ldr	r3, [sp, #40]	@ 0x28
10006028:	930c      	str	r3, [sp, #48]	@ 0x30
1000602a:	2308      	movs	r3, #8
1000602c:	930a      	str	r3, [sp, #40]	@ 0x28
1000602e:	230d      	movs	r3, #13
10006030:	980c      	ldr	r0, [sp, #48]	@ 0x30
10006032:	4398      	bics	r0, r3
10006034:	e523      	b.n	10005a7e <_vsnprintf+0x616>
10006036:	2310      	movs	r3, #16
10006038:	9a0a      	ldr	r2, [sp, #40]	@ 0x28
1000603a:	439a      	bics	r2, r3
1000603c:	920c      	str	r2, [sp, #48]	@ 0x30
1000603e:	2869      	cmp	r0, #105	@ 0x69
10006040:	d10a      	bne.n	10006058 <_vsnprintf+0xbf0>
10006042:	990a      	ldr	r1, [sp, #40]	@ 0x28
10006044:	2380      	movs	r3, #128	@ 0x80
10006046:	000a      	movs	r2, r1
10006048:	00db      	lsls	r3, r3, #3
1000604a:	401a      	ands	r2, r3
1000604c:	0010      	movs	r0, r2
1000604e:	000a      	movs	r2, r1
10006050:	4219      	tst	r1, r3
10006052:	d100      	bne.n	10006056 <_vsnprintf+0xbee>
10006054:	e48a      	b.n	1000596c <_vsnprintf+0x504>
10006056:	e486      	b.n	10005966 <_vsnprintf+0x4fe>
10006058:	990a      	ldr	r1, [sp, #40]	@ 0x28
1000605a:	231c      	movs	r3, #28
1000605c:	000a      	movs	r2, r1
1000605e:	439a      	bics	r2, r3
10006060:	2380      	movs	r3, #128	@ 0x80
10006062:	0010      	movs	r0, r2
10006064:	000a      	movs	r2, r1
10006066:	00db      	lsls	r3, r3, #3
10006068:	401a      	ands	r2, r3
1000606a:	0011      	movs	r1, r2
1000606c:	9a0a      	ldr	r2, [sp, #40]	@ 0x28
1000606e:	421a      	tst	r2, r3
10006070:	d102      	bne.n	10006078 <_vsnprintf+0xc10>
10006072:	230a      	movs	r3, #10
10006074:	930a      	str	r3, [sp, #40]	@ 0x28
10006076:	e502      	b.n	10005a7e <_vsnprintf+0x616>
10006078:	230a      	movs	r3, #10
1000607a:	930a      	str	r3, [sp, #40]	@ 0x28
1000607c:	e7d7      	b.n	1000602e <_vsnprintf+0xbc6>
1000607e:	46c0      	nop			@ (mov r8, r8)

10006080 <__wrap_sprintf>:
10006080:	b40e      	push	{r1, r2, r3}
10006082:	2201      	movs	r2, #1
10006084:	b530      	push	{r4, r5, lr}
10006086:	b084      	sub	sp, #16
10006088:	ac07      	add	r4, sp, #28
1000608a:	cc08      	ldmia	r4!, {r3}
1000608c:	4d06      	ldr	r5, [pc, #24]	@ (100060a8 <__wrap_sprintf+0x28>)
1000608e:	0001      	movs	r1, r0
10006090:	9400      	str	r4, [sp, #0]
10006092:	0028      	movs	r0, r5
10006094:	4252      	negs	r2, r2
10006096:	9403      	str	r4, [sp, #12]
10006098:	f7ff f9e6 	bl	10005468 <_vsnprintf>
1000609c:	b004      	add	sp, #16
1000609e:	bc30      	pop	{r4, r5}
100060a0:	bc08      	pop	{r3}
100060a2:	b003      	add	sp, #12
100060a4:	4718      	bx	r3
100060a6:	46c0      	nop			@ (mov r8, r8)
100060a8:	1000498d 	.word	0x1000498d

100060ac <weak_raw_vprintf>:
100060ac:	b510      	push	{r4, lr}
100060ae:	4a09      	ldr	r2, [pc, #36]	@ (100060d4 <weak_raw_vprintf+0x28>)
100060b0:	0003      	movs	r3, r0
100060b2:	6814      	ldr	r4, [r2, #0]
100060b4:	b084      	sub	sp, #16
100060b6:	2c00      	cmp	r4, #0
100060b8:	d008      	beq.n	100060cc <weak_raw_vprintf+0x20>
100060ba:	2201      	movs	r2, #1
100060bc:	9100      	str	r1, [sp, #0]
100060be:	4806      	ldr	r0, [pc, #24]	@ (100060d8 <weak_raw_vprintf+0x2c>)
100060c0:	4252      	negs	r2, r2
100060c2:	a903      	add	r1, sp, #12
100060c4:	47a0      	blx	r4
100060c6:	2001      	movs	r0, #1
100060c8:	b004      	add	sp, #16
100060ca:	bd10      	pop	{r4, pc}
100060cc:	f001 fa98 	bl	10007600 <__wrap_puts>
100060d0:	2000      	movs	r0, #0
100060d2:	e7f9      	b.n	100060c8 <weak_raw_vprintf+0x1c>
100060d4:	20000744 	.word	0x20000744
100060d8:	10004c31 	.word	0x10004c31

100060dc <__aeabi_bits_init>:
100060dc:	4801      	ldr	r0, [pc, #4]	@ (100060e4 <__aeabi_bits_init+0x8>)
100060de:	2104      	movs	r1, #4
100060e0:	4b01      	ldr	r3, [pc, #4]	@ (100060e8 <__aeabi_bits_init+0xc>)
100060e2:	4718      	bx	r3
100060e4:	20000220 	.word	0x20000220
100060e8:	1000610d 	.word	0x1000610d

100060ec <rom_func_lookup>:
100060ec:	2314      	movs	r3, #20
100060ee:	b510      	push	{r4, lr}
100060f0:	0001      	movs	r1, r0
100060f2:	8818      	ldrh	r0, [r3, #0]
100060f4:	3304      	adds	r3, #4
100060f6:	881b      	ldrh	r3, [r3, #0]
100060f8:	4798      	blx	r3
100060fa:	bd10      	pop	{r4, pc}

100060fc <rom_data_lookup>:
100060fc:	2316      	movs	r3, #22
100060fe:	b510      	push	{r4, lr}
10006100:	0001      	movs	r1, r0
10006102:	8818      	ldrh	r0, [r3, #0]
10006104:	3302      	adds	r3, #2
10006106:	881b      	ldrh	r3, [r3, #0]
10006108:	4798      	blx	r3
1000610a:	bd10      	pop	{r4, pc}

1000610c <rom_funcs_lookup>:
1000610c:	b5f8      	push	{r3, r4, r5, r6, r7, lr}
1000610e:	4647      	mov	r7, r8
10006110:	46ce      	mov	lr, r9
10006112:	b580      	push	{r7, lr}
10006114:	1e0f      	subs	r7, r1, #0
10006116:	d019      	beq.n	1000614c <rom_funcs_lookup+0x40>
10006118:	2314      	movs	r3, #20
1000611a:	4699      	mov	r9, r3
1000611c:	3304      	adds	r3, #4
1000611e:	0004      	movs	r4, r0
10006120:	2500      	movs	r5, #0
10006122:	2601      	movs	r6, #1
10006124:	4698      	mov	r8, r3
10006126:	464b      	mov	r3, r9
10006128:	8818      	ldrh	r0, [r3, #0]
1000612a:	4643      	mov	r3, r8
1000612c:	6821      	ldr	r1, [r4, #0]
1000612e:	881b      	ldrh	r3, [r3, #0]
10006130:	4798      	blx	r3
10006132:	c401      	stmia	r4!, {r0}
10006134:	1e43      	subs	r3, r0, #1
10006136:	4198      	sbcs	r0, r3
10006138:	3501      	adds	r5, #1
1000613a:	4240      	negs	r0, r0
1000613c:	4006      	ands	r6, r0
1000613e:	42af      	cmp	r7, r5
10006140:	d1f1      	bne.n	10006126 <rom_funcs_lookup+0x1a>
10006142:	0030      	movs	r0, r6
10006144:	bcc0      	pop	{r6, r7}
10006146:	46b9      	mov	r9, r7
10006148:	46b0      	mov	r8, r6
1000614a:	bdf8      	pop	{r3, r4, r5, r6, r7, pc}
1000614c:	2601      	movs	r6, #1
1000614e:	e7f8      	b.n	10006142 <rom_funcs_lookup+0x36>

10006150 <__wrap___aeabi_idiv>:
10006150:	4a12      	ldr	r2, [pc, #72]	@ (1000619c <divmod_s32s32_savestate+0x18>)
10006152:	6f93      	ldr	r3, [r2, #120]	@ 0x78
10006154:	089b      	lsrs	r3, r3, #2
10006156:	d215      	bcs.n	10006184 <divmod_s32s32_savestate>

10006158 <divmod_s32s32_unsafe>:
10006158:	6690      	str	r0, [r2, #104]	@ 0x68
1000615a:	66d1      	str	r1, [r2, #108]	@ 0x6c
1000615c:	2900      	cmp	r1, #0
1000615e:	d005      	beq.n	1000616c <divmod_s32s32_unsafe+0x14>
10006160:	e7ff      	b.n	10006162 <divmod_s32s32_unsafe+0xa>
10006162:	e7ff      	b.n	10006164 <divmod_s32s32_unsafe+0xc>
10006164:	e7ff      	b.n	10006166 <divmod_s32s32_unsafe+0xe>
10006166:	6f51      	ldr	r1, [r2, #116]	@ 0x74
10006168:	6f10      	ldr	r0, [r2, #112]	@ 0x70
1000616a:	4770      	bx	lr
1000616c:	b504      	push	{r2, lr}
1000616e:	2180      	movs	r1, #128	@ 0x80
10006170:	0609      	lsls	r1, r1, #24
10006172:	17c2      	asrs	r2, r0, #31
10006174:	4051      	eors	r1, r2
10006176:	2800      	cmp	r0, #0
10006178:	d000      	beq.n	1000617c <divmod_s32s32_unsafe+0x24>
1000617a:	43c8      	mvns	r0, r1
1000617c:	f001 ff08 	bl	10007f90 <____aeabi_idiv0_veneer>
10006180:	2100      	movs	r1, #0
10006182:	bd04      	pop	{r2, pc}

10006184 <divmod_s32s32_savestate>:
10006184:	b5f0      	push	{r4, r5, r6, r7, lr}
10006186:	6e14      	ldr	r4, [r2, #96]	@ 0x60
10006188:	6e55      	ldr	r5, [r2, #100]	@ 0x64
1000618a:	6f57      	ldr	r7, [r2, #116]	@ 0x74
1000618c:	6f16      	ldr	r6, [r2, #112]	@ 0x70
1000618e:	f7ff ffe3 	bl	10006158 <divmod_s32s32_unsafe>
10006192:	6614      	str	r4, [r2, #96]	@ 0x60
10006194:	6655      	str	r5, [r2, #100]	@ 0x64
10006196:	6757      	str	r7, [r2, #116]	@ 0x74
10006198:	6716      	str	r6, [r2, #112]	@ 0x70
1000619a:	bdf0      	pop	{r4, r5, r6, r7, pc}
1000619c:	d0000000 	.word	0xd0000000

100061a0 <__wrap___aeabi_uidiv>:
100061a0:	4a11      	ldr	r2, [pc, #68]	@ (100061e8 <divmod_u32u32_savestate+0x18>)
100061a2:	6f93      	ldr	r3, [r2, #120]	@ 0x78
100061a4:	089b      	lsrs	r3, r3, #2
100061a6:	d213      	bcs.n	100061d0 <divmod_u32u32_savestate>

100061a8 <divmod_u32u32_unsafe>:
100061a8:	6610      	str	r0, [r2, #96]	@ 0x60
100061aa:	6651      	str	r1, [r2, #100]	@ 0x64
100061ac:	2900      	cmp	r1, #0
100061ae:	d005      	beq.n	100061bc <divmod_u32u32_unsafe+0x14>
100061b0:	e7ff      	b.n	100061b2 <divmod_u32u32_unsafe+0xa>
100061b2:	e7ff      	b.n	100061b4 <divmod_u32u32_unsafe+0xc>
100061b4:	e7ff      	b.n	100061b6 <divmod_u32u32_unsafe+0xe>
100061b6:	6f51      	ldr	r1, [r2, #116]	@ 0x74
100061b8:	6f10      	ldr	r0, [r2, #112]	@ 0x70
100061ba:	4770      	bx	lr
100061bc:	b504      	push	{r2, lr}
100061be:	2800      	cmp	r0, #0
100061c0:	d001      	beq.n	100061c6 <divmod_u32u32_unsafe+0x1e>
100061c2:	2000      	movs	r0, #0
100061c4:	43c0      	mvns	r0, r0
100061c6:	f001 fee3 	bl	10007f90 <____aeabi_idiv0_veneer>
100061ca:	2100      	movs	r1, #0
100061cc:	bd04      	pop	{r2, pc}
100061ce:	46c0      	nop			@ (mov r8, r8)

100061d0 <divmod_u32u32_savestate>:
100061d0:	b5f0      	push	{r4, r5, r6, r7, lr}
100061d2:	6e14      	ldr	r4, [r2, #96]	@ 0x60
100061d4:	6e55      	ldr	r5, [r2, #100]	@ 0x64
100061d6:	6f57      	ldr	r7, [r2, #116]	@ 0x74
100061d8:	6f16      	ldr	r6, [r2, #112]	@ 0x70
100061da:	f7ff ffe5 	bl	100061a8 <divmod_u32u32_unsafe>
100061de:	6614      	str	r4, [r2, #96]	@ 0x60
100061e0:	6655      	str	r5, [r2, #100]	@ 0x64
100061e2:	6757      	str	r7, [r2, #116]	@ 0x74
100061e4:	6716      	str	r6, [r2, #112]	@ 0x70
100061e6:	bdf0      	pop	{r4, r5, r6, r7, pc}
100061e8:	d0000000 	.word	0xd0000000

100061ec <__wrap___aeabi_ldivmod>:
100061ec:	4694      	mov	ip, r2
100061ee:	4a4a      	ldr	r2, [pc, #296]	@ (10006318 <udiv0+0x1a>)
100061f0:	6f92      	ldr	r2, [r2, #120]	@ 0x78
100061f2:	0892      	lsrs	r2, r2, #2
100061f4:	4662      	mov	r2, ip
100061f6:	d201      	bcs.n	100061fc <divmod_s64s64_savestate>
100061f8:	e028      	b.n	1000624c <divmod_s64s64_unsafe>
100061fa:	46c0      	nop			@ (mov r8, r8)

100061fc <divmod_s64s64_savestate>:
100061fc:	b5f0      	push	{r4, r5, r6, r7, lr}
100061fe:	4e46      	ldr	r6, [pc, #280]	@ (10006318 <udiv0+0x1a>)
10006200:	6e34      	ldr	r4, [r6, #96]	@ 0x60
10006202:	6e75      	ldr	r5, [r6, #100]	@ 0x64
10006204:	6f77      	ldr	r7, [r6, #116]	@ 0x74
10006206:	6f36      	ldr	r6, [r6, #112]	@ 0x70
10006208:	f000 f820 	bl	1000624c <divmod_s64s64_unsafe>
1000620c:	4694      	mov	ip, r2
1000620e:	4a42      	ldr	r2, [pc, #264]	@ (10006318 <udiv0+0x1a>)
10006210:	6614      	str	r4, [r2, #96]	@ 0x60
10006212:	6655      	str	r5, [r2, #100]	@ 0x64
10006214:	6757      	str	r7, [r2, #116]	@ 0x74
10006216:	6716      	str	r6, [r2, #112]	@ 0x70
10006218:	4662      	mov	r2, ip
1000621a:	bdf0      	pop	{r4, r5, r6, r7, pc}

1000621c <__wrap___aeabi_uldivmod>:
1000621c:	4694      	mov	ip, r2
1000621e:	4a3e      	ldr	r2, [pc, #248]	@ (10006318 <udiv0+0x1a>)
10006220:	6f92      	ldr	r2, [r2, #120]	@ 0x78
10006222:	0892      	lsrs	r2, r2, #2
10006224:	4662      	mov	r2, ip
10006226:	d201      	bcs.n	1000622c <divmod_u64u64_savestate>
10006228:	e054      	b.n	100062d4 <divmod_u64u64_unsafe>
1000622a:	46c0      	nop			@ (mov r8, r8)

1000622c <divmod_u64u64_savestate>:
1000622c:	b5f0      	push	{r4, r5, r6, r7, lr}
1000622e:	4e3a      	ldr	r6, [pc, #232]	@ (10006318 <udiv0+0x1a>)
10006230:	6e34      	ldr	r4, [r6, #96]	@ 0x60
10006232:	6e75      	ldr	r5, [r6, #100]	@ 0x64
10006234:	6f77      	ldr	r7, [r6, #116]	@ 0x74
10006236:	6f36      	ldr	r6, [r6, #112]	@ 0x70
10006238:	f000 f84c 	bl	100062d4 <divmod_u64u64_unsafe>
1000623c:	4694      	mov	ip, r2
1000623e:	4a36      	ldr	r2, [pc, #216]	@ (10006318 <udiv0+0x1a>)
10006240:	6614      	str	r4, [r2, #96]	@ 0x60
10006242:	6655      	str	r5, [r2, #100]	@ 0x64
10006244:	6757      	str	r7, [r2, #116]	@ 0x74
10006246:	6716      	str	r6, [r2, #112]	@ 0x70
10006248:	4662      	mov	r2, ip
1000624a:	bdf0      	pop	{r4, r5, r6, r7, pc}

1000624c <divmod_s64s64_unsafe>:
1000624c:	2b00      	cmp	r3, #0
1000624e:	db24      	blt.n	1000629a <l42_1+0x26>
10006250:	d011      	beq.n	10006276 <l42_1+0x2>
10006252:	2900      	cmp	r1, #0
10006254:	da3e      	bge.n	100062d4 <divmod_u64u64_unsafe>
10006256:	b500      	push	{lr}
10006258:	43c9      	mvns	r1, r1
1000625a:	4240      	negs	r0, r0
1000625c:	d100      	bne.n	10006260 <l40_1>
1000625e:	3101      	adds	r1, #1

10006260 <l40_1>:
10006260:	f000 f838 	bl	100062d4 <divmod_u64u64_unsafe>
10006264:	43c9      	mvns	r1, r1
10006266:	4240      	negs	r0, r0
10006268:	d100      	bne.n	1000626c <l41_1>
1000626a:	3101      	adds	r1, #1

1000626c <l41_1>:
1000626c:	43db      	mvns	r3, r3
1000626e:	4252      	negs	r2, r2
10006270:	d100      	bne.n	10006274 <l42_1>
10006272:	3301      	adds	r3, #1

10006274 <l42_1>:
10006274:	bd00      	pop	{pc}
10006276:	2a00      	cmp	r2, #0
10006278:	d1eb      	bne.n	10006252 <divmod_s64s64_unsafe+0x6>
1000627a:	2800      	cmp	r0, #0
1000627c:	d101      	bne.n	10006282 <l42_1+0xe>
1000627e:	2900      	cmp	r1, #0
10006280:	d005      	beq.n	1000628e <l42_1+0x1a>
10006282:	2000      	movs	r0, #0
10006284:	0fc9      	lsrs	r1, r1, #31
10006286:	07c9      	lsls	r1, r1, #31
10006288:	d101      	bne.n	1000628e <l42_1+0x1a>
1000628a:	43c0      	mvns	r0, r0
1000628c:	0841      	lsrs	r1, r0, #1
1000628e:	b500      	push	{lr}
10006290:	f001 fe76 	bl	10007f80 <____aeabi_ldiv0_veneer>
10006294:	2200      	movs	r2, #0
10006296:	2300      	movs	r3, #0
10006298:	bd00      	pop	{pc}
1000629a:	b500      	push	{lr}
1000629c:	2900      	cmp	r1, #0
1000629e:	db0a      	blt.n	100062b6 <l44_1+0x2>
100062a0:	43db      	mvns	r3, r3
100062a2:	4252      	negs	r2, r2
100062a4:	d100      	bne.n	100062a8 <l43_1>
100062a6:	3301      	adds	r3, #1

100062a8 <l43_1>:
100062a8:	f000 f814 	bl	100062d4 <divmod_u64u64_unsafe>
100062ac:	43c9      	mvns	r1, r1
100062ae:	4240      	negs	r0, r0
100062b0:	d100      	bne.n	100062b4 <l44_1>
100062b2:	3101      	adds	r1, #1

100062b4 <l44_1>:
100062b4:	bd00      	pop	{pc}
100062b6:	43c9      	mvns	r1, r1
100062b8:	4240      	negs	r0, r0
100062ba:	d100      	bne.n	100062be <l45_1>
100062bc:	3101      	adds	r1, #1

100062be <l45_1>:
100062be:	43db      	mvns	r3, r3
100062c0:	4252      	negs	r2, r2
100062c2:	d100      	bne.n	100062c6 <l46_1>
100062c4:	3301      	adds	r3, #1

100062c6 <l46_1>:
100062c6:	f000 f805 	bl	100062d4 <divmod_u64u64_unsafe>
100062ca:	43db      	mvns	r3, r3
100062cc:	4252      	negs	r2, r2
100062ce:	d100      	bne.n	100062d2 <l47_1>
100062d0:	3301      	adds	r3, #1

100062d2 <l47_1>:
100062d2:	bd00      	pop	{pc}

100062d4 <divmod_u64u64_unsafe>:
100062d4:	2900      	cmp	r1, #0
100062d6:	d123      	bne.n	10006320 <y64>
100062d8:	2b00      	cmp	r3, #0
100062da:	d118      	bne.n	1000630e <udiv0+0x10>
100062dc:	2a00      	cmp	r2, #0
100062de:	d00c      	beq.n	100062fa <divmod_u64u64_unsafe+0x26>
100062e0:	46bc      	mov	ip, r7
100062e2:	4f0d      	ldr	r7, [pc, #52]	@ (10006318 <udiv0+0x1a>)
100062e4:	6638      	str	r0, [r7, #96]	@ 0x60
100062e6:	667a      	str	r2, [r7, #100]	@ 0x64
100062e8:	2100      	movs	r1, #0
100062ea:	2300      	movs	r3, #0
100062ec:	e7ff      	b.n	100062ee <divmod_u64u64_unsafe+0x1a>
100062ee:	e7ff      	b.n	100062f0 <divmod_u64u64_unsafe+0x1c>
100062f0:	e7ff      	b.n	100062f2 <divmod_u64u64_unsafe+0x1e>
100062f2:	6f7a      	ldr	r2, [r7, #116]	@ 0x74
100062f4:	6f38      	ldr	r0, [r7, #112]	@ 0x70
100062f6:	4667      	mov	r7, ip
100062f8:	4770      	bx	lr
100062fa:	2800      	cmp	r0, #0
100062fc:	d001      	beq.n	10006302 <udiv0+0x4>

100062fe <udiv0>:
100062fe:	4807      	ldr	r0, [pc, #28]	@ (1000631c <udiv0+0x1e>)
10006300:	0001      	movs	r1, r0
10006302:	b500      	push	{lr}
10006304:	f001 fe3c 	bl	10007f80 <____aeabi_ldiv0_veneer>
10006308:	2200      	movs	r2, #0
1000630a:	2300      	movs	r3, #0
1000630c:	bd00      	pop	{pc}
1000630e:	0002      	movs	r2, r0
10006310:	000b      	movs	r3, r1
10006312:	2000      	movs	r0, #0
10006314:	2100      	movs	r1, #0
10006316:	4770      	bx	lr
10006318:	d0000000 	.word	0xd0000000
1000631c:	ffffffff 	.word	0xffffffff

10006320 <y64>:
10006320:	2b00      	cmp	r3, #0
10006322:	d000      	beq.n	10006326 <y64+0x6>
10006324:	e0bf      	b.n	100064a6 <y64_x48>
10006326:	0c13      	lsrs	r3, r2, #16
10006328:	d128      	bne.n	1000637c <y64_x32>
1000632a:	2a00      	cmp	r2, #0
1000632c:	d0e7      	beq.n	100062fe <udiv0>
1000632e:	b480      	push	{r7}
10006330:	4f11      	ldr	r7, [pc, #68]	@ (10006378 <y64+0x58>)
10006332:	6639      	str	r1, [r7, #96]	@ 0x60
10006334:	667a      	str	r2, [r7, #100]	@ 0x64
10006336:	e7ff      	b.n	10006338 <y64+0x18>
10006338:	e7ff      	b.n	1000633a <y64+0x1a>
1000633a:	b430      	push	{r4, r5}
1000633c:	0c04      	lsrs	r4, r0, #16
1000633e:	6f7b      	ldr	r3, [r7, #116]	@ 0x74
10006340:	6f39      	ldr	r1, [r7, #112]	@ 0x70
10006342:	041b      	lsls	r3, r3, #16
10006344:	4323      	orrs	r3, r4
10006346:	663b      	str	r3, [r7, #96]	@ 0x60
10006348:	667a      	str	r2, [r7, #100]	@ 0x64
1000634a:	e7ff      	b.n	1000634c <y64+0x2c>
1000634c:	e7ff      	b.n	1000634e <y64+0x2e>
1000634e:	e7ff      	b.n	10006350 <y64+0x30>
10006350:	46c0      	nop			@ (mov r8, r8)
10006352:	b284      	uxth	r4, r0
10006354:	6f7b      	ldr	r3, [r7, #116]	@ 0x74
10006356:	6f3d      	ldr	r5, [r7, #112]	@ 0x70
10006358:	041b      	lsls	r3, r3, #16
1000635a:	4323      	orrs	r3, r4
1000635c:	663b      	str	r3, [r7, #96]	@ 0x60
1000635e:	667a      	str	r2, [r7, #100]	@ 0x64
10006360:	e7ff      	b.n	10006362 <y64+0x42>
10006362:	e7ff      	b.n	10006364 <y64+0x44>
10006364:	46c0      	nop			@ (mov r8, r8)
10006366:	2300      	movs	r3, #0
10006368:	042c      	lsls	r4, r5, #16
1000636a:	0c2d      	lsrs	r5, r5, #16
1000636c:	6f7a      	ldr	r2, [r7, #116]	@ 0x74
1000636e:	6f38      	ldr	r0, [r7, #112]	@ 0x70
10006370:	1900      	adds	r0, r0, r4
10006372:	4169      	adcs	r1, r5
10006374:	bcb0      	pop	{r4, r5, r7}
10006376:	4770      	bx	lr
10006378:	d0000000 	.word	0xd0000000

1000637c <y64_x32>:
1000637c:	b5f0      	push	{r4, r5, r6, r7, lr}
1000637e:	4694      	mov	ip, r2
10006380:	2500      	movs	r5, #0
10006382:	0e14      	lsrs	r4, r2, #24
10006384:	d101      	bne.n	1000638a <y64_x32+0xe>
10006386:	0212      	lsls	r2, r2, #8
10006388:	3508      	adds	r5, #8
1000638a:	0f14      	lsrs	r4, r2, #28
1000638c:	d101      	bne.n	10006392 <y64_x32+0x16>
1000638e:	0112      	lsls	r2, r2, #4
10006390:	3504      	adds	r5, #4
10006392:	0f94      	lsrs	r4, r2, #30
10006394:	d101      	bne.n	1000639a <y64_x32+0x1e>
10006396:	0092      	lsls	r2, r2, #2
10006398:	3502      	adds	r5, #2
1000639a:	0fd4      	lsrs	r4, r2, #31
1000639c:	d101      	bne.n	100063a2 <y64_x32+0x26>
1000639e:	0052      	lsls	r2, r2, #1
100063a0:	3501      	adds	r5, #1
100063a2:	0bd4      	lsrs	r4, r2, #15
100063a4:	3401      	adds	r4, #1
100063a6:	4f25      	ldr	r7, [pc, #148]	@ (1000643c <y64_x32+0xc0>)
100063a8:	667c      	str	r4, [r7, #100]	@ 0x64
100063aa:	4c25      	ldr	r4, [pc, #148]	@ (10006440 <y64_x32+0xc4>)
100063ac:	663c      	str	r4, [r7, #96]	@ 0x60
100063ae:	0c0e      	lsrs	r6, r1, #16
100063b0:	b293      	uxth	r3, r2
100063b2:	e7ff      	b.n	100063b4 <y64_x32+0x38>
100063b4:	e7ff      	b.n	100063b6 <y64_x32+0x3a>
100063b6:	e7ff      	b.n	100063b8 <y64_x32+0x3c>
100063b8:	6f3c      	ldr	r4, [r7, #112]	@ 0x70
100063ba:	4366      	muls	r6, r4
100063bc:	0c36      	lsrs	r6, r6, #16
100063be:	0377      	lsls	r7, r6, #13
100063c0:	46be      	mov	lr, r7
100063c2:	4373      	muls	r3, r6
100063c4:	0bdf      	lsrs	r7, r3, #15
100063c6:	045b      	lsls	r3, r3, #17
100063c8:	1ac0      	subs	r0, r0, r3
100063ca:	41b9      	sbcs	r1, r7
100063cc:	0c13      	lsrs	r3, r2, #16
100063ce:	4373      	muls	r3, r6
100063d0:	18db      	adds	r3, r3, r3
100063d2:	1ac9      	subs	r1, r1, r3
100063d4:	08ce      	lsrs	r6, r1, #3
100063d6:	4366      	muls	r6, r4
100063d8:	0c36      	lsrs	r6, r6, #16
100063da:	44b6      	add	lr, r6
100063dc:	b293      	uxth	r3, r2
100063de:	4373      	muls	r3, r6
100063e0:	0f1f      	lsrs	r7, r3, #28
100063e2:	011b      	lsls	r3, r3, #4
100063e4:	1ac0      	subs	r0, r0, r3
100063e6:	41b9      	sbcs	r1, r7
100063e8:	0c13      	lsrs	r3, r2, #16
100063ea:	4373      	muls	r3, r6
100063ec:	0b1f      	lsrs	r7, r3, #12
100063ee:	051b      	lsls	r3, r3, #20
100063f0:	1ac0      	subs	r0, r0, r3
100063f2:	41b9      	sbcs	r1, r7
100063f4:	0d86      	lsrs	r6, r0, #22
100063f6:	028f      	lsls	r7, r1, #10
100063f8:	433e      	orrs	r6, r7
100063fa:	4366      	muls	r6, r4
100063fc:	0c36      	lsrs	r6, r6, #16
100063fe:	2d09      	cmp	r5, #9
10006400:	db24      	blt.n	1000644c <last0>
10006402:	0a52      	lsrs	r2, r2, #9
10006404:	4372      	muls	r2, r6
10006406:	1a80      	subs	r0, r0, r2
10006408:	0377      	lsls	r7, r6, #13
1000640a:	0a46      	lsrs	r6, r0, #9
1000640c:	4366      	muls	r6, r4
1000640e:	0c36      	lsrs	r6, r6, #16
10006410:	2316      	movs	r3, #22
10006412:	1b5b      	subs	r3, r3, r5
10006414:	40de      	lsrs	r6, r3
10006416:	40df      	lsrs	r7, r3
10006418:	19bf      	adds	r7, r7, r6
1000641a:	4664      	mov	r4, ip
1000641c:	4366      	muls	r6, r4
1000641e:	1b82      	subs	r2, r0, r6
10006420:	4670      	mov	r0, lr
10006422:	3504      	adds	r5, #4
10006424:	3306      	adds	r3, #6
10006426:	0001      	movs	r1, r0
10006428:	40d9      	lsrs	r1, r3
1000642a:	40a8      	lsls	r0, r5
1000642c:	19c0      	adds	r0, r0, r7
1000642e:	d300      	bcc.n	10006432 <y64_x32+0xb6>
10006430:	3101      	adds	r1, #1
10006432:	42a2      	cmp	r2, r4
10006434:	d206      	bcs.n	10006444 <y64_x32+0xc8>
10006436:	2300      	movs	r3, #0
10006438:	bdf0      	pop	{r4, r5, r6, r7, pc}
1000643a:	0000      	.short	0x0000
1000643c:	d0000000 	.word	0xd0000000
10006440:	ffffffff 	.word	0xffffffff
10006444:	1b12      	subs	r2, r2, r4
10006446:	3001      	adds	r0, #1
10006448:	d3f3      	bcc.n	10006432 <y64_x32+0xb6>
1000644a:	e7f1      	b.n	10006430 <y64_x32+0xb4>

1000644c <last0>:
1000644c:	2709      	movs	r7, #9
1000644e:	1b7f      	subs	r7, r7, r5
10006450:	40fe      	lsrs	r6, r7
10006452:	4664      	mov	r4, ip
10006454:	b2a2      	uxth	r2, r4
10006456:	4372      	muls	r2, r6
10006458:	1a80      	subs	r0, r0, r2
1000645a:	d200      	bcs.n	1000645e <last0+0x12>
1000645c:	3901      	subs	r1, #1
1000645e:	0c22      	lsrs	r2, r4, #16
10006460:	4372      	muls	r2, r6
10006462:	0c13      	lsrs	r3, r2, #16
10006464:	0412      	lsls	r2, r2, #16
10006466:	1a82      	subs	r2, r0, r2
10006468:	4199      	sbcs	r1, r3
1000646a:	000b      	movs	r3, r1
1000646c:	4670      	mov	r0, lr
1000646e:	3504      	adds	r5, #4
10006470:	3713      	adds	r7, #19
10006472:	0001      	movs	r1, r0
10006474:	40f9      	lsrs	r1, r7
10006476:	40a8      	lsls	r0, r5
10006478:	1980      	adds	r0, r0, r6
1000647a:	d300      	bcc.n	1000647e <last0+0x32>
1000647c:	3101      	adds	r1, #1
1000647e:	2b00      	cmp	r3, #0
10006480:	d102      	bne.n	10006488 <last0+0x3c>
10006482:	42a2      	cmp	r2, r4
10006484:	d20a      	bcs.n	1000649c <last0+0x50>
10006486:	bdf0      	pop	{r4, r5, r6, r7, pc}
10006488:	3001      	adds	r0, #1
1000648a:	d300      	bcc.n	1000648e <last0+0x42>
1000648c:	3101      	adds	r1, #1
1000648e:	1b12      	subs	r2, r2, r4
10006490:	d2fa      	bcs.n	10006488 <last0+0x3c>
10006492:	3b01      	subs	r3, #1
10006494:	d1f8      	bne.n	10006488 <last0+0x3c>
10006496:	42a2      	cmp	r2, r4
10006498:	d200      	bcs.n	1000649c <last0+0x50>
1000649a:	bdf0      	pop	{r4, r5, r6, r7, pc}
1000649c:	3001      	adds	r0, #1
1000649e:	d300      	bcc.n	100064a2 <last0+0x56>
100064a0:	3101      	adds	r1, #1
100064a2:	1b12      	subs	r2, r2, r4
100064a4:	e7f7      	b.n	10006496 <last0+0x4a>

100064a6 <y64_x48>:
100064a6:	b5f0      	push	{r4, r5, r6, r7, lr}
100064a8:	0c1c      	lsrs	r4, r3, #16
100064aa:	d000      	beq.n	100064ae <y64_x48+0x8>
100064ac:	e080      	b.n	100065b0 <y64_x64>
100064ae:	b40c      	push	{r2, r3}
100064b0:	2500      	movs	r5, #0
100064b2:	0a1c      	lsrs	r4, r3, #8
100064b4:	d104      	bne.n	100064c0 <y64_x48+0x1a>
100064b6:	021b      	lsls	r3, r3, #8
100064b8:	0e16      	lsrs	r6, r2, #24
100064ba:	4333      	orrs	r3, r6
100064bc:	0212      	lsls	r2, r2, #8
100064be:	3508      	adds	r5, #8
100064c0:	0b1c      	lsrs	r4, r3, #12
100064c2:	d104      	bne.n	100064ce <y64_x48+0x28>
100064c4:	011b      	lsls	r3, r3, #4
100064c6:	0f16      	lsrs	r6, r2, #28
100064c8:	4333      	orrs	r3, r6
100064ca:	0112      	lsls	r2, r2, #4
100064cc:	3504      	adds	r5, #4
100064ce:	0b9c      	lsrs	r4, r3, #14
100064d0:	d104      	bne.n	100064dc <y64_x48+0x36>
100064d2:	009b      	lsls	r3, r3, #2
100064d4:	0f96      	lsrs	r6, r2, #30
100064d6:	4333      	orrs	r3, r6
100064d8:	0092      	lsls	r2, r2, #2
100064da:	3502      	adds	r5, #2
100064dc:	0bdc      	lsrs	r4, r3, #15
100064de:	d102      	bne.n	100064e6 <y64_x48+0x40>
100064e0:	1892      	adds	r2, r2, r2
100064e2:	415b      	adcs	r3, r3
100064e4:	3501      	adds	r5, #1
100064e6:	001c      	movs	r4, r3
100064e8:	1897      	adds	r7, r2, r2
100064ea:	4164      	adcs	r4, r4
100064ec:	3401      	adds	r4, #1
100064ee:	4f46      	ldr	r7, [pc, #280]	@ (10006608 <y64_x64+0x58>)
100064f0:	667c      	str	r4, [r7, #100]	@ 0x64
100064f2:	4c46      	ldr	r4, [pc, #280]	@ (1000660c <y64_x64+0x5c>)
100064f4:	663c      	str	r4, [r7, #96]	@ 0x60
100064f6:	0c0e      	lsrs	r6, r1, #16
100064f8:	e7ff      	b.n	100064fa <y64_x48+0x54>
100064fa:	e7ff      	b.n	100064fc <y64_x48+0x56>
100064fc:	e7ff      	b.n	100064fe <y64_x48+0x58>
100064fe:	46c0      	nop			@ (mov r8, r8)
10006500:	6f3c      	ldr	r4, [r7, #112]	@ 0x70
10006502:	4366      	muls	r6, r4
10006504:	0c36      	lsrs	r6, r6, #16
10006506:	0377      	lsls	r7, r6, #13
10006508:	46be      	mov	lr, r7
1000650a:	b297      	uxth	r7, r2
1000650c:	4377      	muls	r7, r6
1000650e:	1bc0      	subs	r0, r0, r7
10006510:	d200      	bcs.n	10006514 <y64_x48+0x6e>
10006512:	3901      	subs	r1, #1
10006514:	1bc0      	subs	r0, r0, r7
10006516:	d200      	bcs.n	1000651a <y64_x48+0x74>
10006518:	3901      	subs	r1, #1
1000651a:	b29f      	uxth	r7, r3
1000651c:	4377      	muls	r7, r6
1000651e:	1bc9      	subs	r1, r1, r7
10006520:	1bc9      	subs	r1, r1, r7
10006522:	0c17      	lsrs	r7, r2, #16
10006524:	4377      	muls	r7, r6
10006526:	047e      	lsls	r6, r7, #17
10006528:	0bff      	lsrs	r7, r7, #15
1000652a:	1b80      	subs	r0, r0, r6
1000652c:	41b9      	sbcs	r1, r7
1000652e:	08ce      	lsrs	r6, r1, #3
10006530:	4366      	muls	r6, r4
10006532:	0c36      	lsrs	r6, r6, #16
10006534:	2d0c      	cmp	r5, #12
10006536:	db33      	blt.n	100065a0 <last1>
10006538:	44b6      	add	lr, r6
1000653a:	0b12      	lsrs	r2, r2, #12
1000653c:	051f      	lsls	r7, r3, #20
1000653e:	433a      	orrs	r2, r7
10006540:	0b1b      	lsrs	r3, r3, #12
10006542:	b297      	uxth	r7, r2
10006544:	4377      	muls	r7, r6
10006546:	1bc0      	subs	r0, r0, r7
10006548:	d200      	bcs.n	1000654c <y64_x48+0xa6>
1000654a:	3901      	subs	r1, #1
1000654c:	b29f      	uxth	r7, r3
1000654e:	4377      	muls	r7, r6
10006550:	1bc9      	subs	r1, r1, r7
10006552:	0c17      	lsrs	r7, r2, #16
10006554:	4377      	muls	r7, r6
10006556:	043e      	lsls	r6, r7, #16
10006558:	0c3f      	lsrs	r7, r7, #16
1000655a:	1b80      	subs	r0, r0, r6
1000655c:	41b9      	sbcs	r1, r7
1000655e:	0d86      	lsrs	r6, r0, #22
10006560:	028f      	lsls	r7, r1, #10
10006562:	433e      	orrs	r6, r7
10006564:	4366      	muls	r6, r4
10006566:	2729      	movs	r7, #41	@ 0x29
10006568:	1b7f      	subs	r7, r7, r5
1000656a:	40fe      	lsrs	r6, r7
1000656c:	3d0c      	subs	r5, #12
1000656e:	4677      	mov	r7, lr
10006570:	40af      	lsls	r7, r5
10006572:	19bf      	adds	r7, r7, r6
10006574:	bc30      	pop	{r4, r5}
10006576:	b2a2      	uxth	r2, r4
10006578:	b2ab      	uxth	r3, r5
1000657a:	4372      	muls	r2, r6
1000657c:	4373      	muls	r3, r6
1000657e:	1a80      	subs	r0, r0, r2
10006580:	4199      	sbcs	r1, r3
10006582:	0c22      	lsrs	r2, r4, #16
10006584:	4372      	muls	r2, r6
10006586:	0c13      	lsrs	r3, r2, #16
10006588:	0412      	lsls	r2, r2, #16
1000658a:	1a80      	subs	r0, r0, r2
1000658c:	4199      	sbcs	r1, r3
1000658e:	0002      	movs	r2, r0
10006590:	000b      	movs	r3, r1
10006592:	3701      	adds	r7, #1
10006594:	1b00      	subs	r0, r0, r4
10006596:	41a9      	sbcs	r1, r5
10006598:	d2f9      	bcs.n	1000658e <y64_x48+0xe8>
1000659a:	1e78      	subs	r0, r7, #1
1000659c:	2100      	movs	r1, #0
1000659e:	bdf0      	pop	{r4, r5, r6, r7, pc}

100065a0 <last1>:
100065a0:	270c      	movs	r7, #12
100065a2:	1b7f      	subs	r7, r7, r5
100065a4:	40fe      	lsrs	r6, r7
100065a6:	4677      	mov	r7, lr
100065a8:	0b7f      	lsrs	r7, r7, #13
100065aa:	40af      	lsls	r7, r5
100065ac:	19ff      	adds	r7, r7, r7
100065ae:	e7e0      	b.n	10006572 <y64_x48+0xcc>

100065b0 <y64_x64>:
100065b0:	2400      	movs	r4, #0
100065b2:	1c5d      	adds	r5, r3, #1
100065b4:	d007      	beq.n	100065c6 <y64_x64+0x16>
100065b6:	4f14      	ldr	r7, [pc, #80]	@ (10006608 <y64_x64+0x58>)
100065b8:	667d      	str	r5, [r7, #100]	@ 0x64
100065ba:	6639      	str	r1, [r7, #96]	@ 0x60
100065bc:	e7ff      	b.n	100065be <y64_x64+0xe>
100065be:	e7ff      	b.n	100065c0 <y64_x64+0x10>
100065c0:	e7ff      	b.n	100065c2 <y64_x64+0x12>
100065c2:	e7ff      	b.n	100065c4 <y64_x64+0x14>
100065c4:	6f3c      	ldr	r4, [r7, #112]	@ 0x70
100065c6:	b295      	uxth	r5, r2
100065c8:	b29e      	uxth	r6, r3
100065ca:	4365      	muls	r5, r4
100065cc:	4366      	muls	r6, r4
100065ce:	1b40      	subs	r0, r0, r5
100065d0:	41b1      	sbcs	r1, r6
100065d2:	0c15      	lsrs	r5, r2, #16
100065d4:	0c1e      	lsrs	r6, r3, #16
100065d6:	4365      	muls	r5, r4
100065d8:	4366      	muls	r6, r4
100065da:	0436      	lsls	r6, r6, #16
100065dc:	0c2f      	lsrs	r7, r5, #16
100065de:	433e      	orrs	r6, r7
100065e0:	042d      	lsls	r5, r5, #16
100065e2:	1b40      	subs	r0, r0, r5
100065e4:	41b1      	sbcs	r1, r6
100065e6:	4299      	cmp	r1, r3
100065e8:	d204      	bcs.n	100065f4 <y64_x64+0x44>
100065ea:	0002      	movs	r2, r0
100065ec:	000b      	movs	r3, r1
100065ee:	0020      	movs	r0, r4
100065f0:	2100      	movs	r1, #0
100065f2:	bdf0      	pop	{r4, r5, r6, r7, pc}
100065f4:	d101      	bne.n	100065fa <y64_x64+0x4a>
100065f6:	4290      	cmp	r0, r2
100065f8:	d3f7      	bcc.n	100065ea <y64_x64+0x3a>
100065fa:	1a80      	subs	r0, r0, r2
100065fc:	4199      	sbcs	r1, r3
100065fe:	3401      	adds	r4, #1
10006600:	4299      	cmp	r1, r3
10006602:	d3f2      	bcc.n	100065ea <y64_x64+0x3a>
10006604:	e7f6      	b.n	100065f4 <y64_x64+0x44>
10006606:	0000      	.short	0x0000
10006608:	d0000000 	.word	0xd0000000
1000660c:	ffffffff 	.word	0xffffffff

10006610 <push_r8_r11>:
10006610:	4644      	mov	r4, r8
10006612:	464d      	mov	r5, r9
10006614:	4656      	mov	r6, sl
10006616:	465f      	mov	r7, fp
10006618:	b4f0      	push	{r4, r5, r6, r7}
1000661a:	4770      	bx	lr

1000661c <pop_r8_r11>:
1000661c:	bcf0      	pop	{r4, r5, r6, r7}
1000661e:	46a0      	mov	r8, r4
10006620:	46a9      	mov	r9, r5
10006622:	46b2      	mov	sl, r6
10006624:	46bb      	mov	fp, r7
10006626:	4770      	bx	lr

10006628 <__wrap___aeabi_drsub>:
10006628:	4048      	eors	r0, r1
1000662a:	4041      	eors	r1, r0
1000662c:	4048      	eors	r0, r1

1000662e <__wrap___aeabi_dsub>:
1000662e:	b418      	push	{r3, r4}
10006630:	4b1b      	ldr	r3, [pc, #108]	@ (100066a0 <__wrap___aeabi_dmul+0x12>)
10006632:	685b      	ldr	r3, [r3, #4]
10006634:	46fc      	mov	ip, pc
10006636:	9301      	str	r3, [sp, #4]
10006638:	bd08      	pop	{r3, pc}
1000663a:	df04      	.short	0xdf04
1000663c:	100068d3 	.word	0x100068d3

10006640 <__wrap___aeabi_dadd>:
10006640:	b418      	push	{r3, r4}
10006642:	4b17      	ldr	r3, [pc, #92]	@ (100066a0 <__wrap___aeabi_dmul+0x12>)
10006644:	681b      	ldr	r3, [r3, #0]
10006646:	46fc      	mov	ip, pc
10006648:	9301      	str	r3, [sp, #4]
1000664a:	bd08      	pop	{r3, pc}
1000664c:	68dddf00 	.word	0x68dddf00
10006650:	1000      	.short	0x1000

10006652 <__wrap___aeabi_ddiv>:
10006652:	4694      	mov	ip, r2
10006654:	4a13      	ldr	r2, [pc, #76]	@ (100066a4 <__wrap___aeabi_dmul+0x16>)
10006656:	6f92      	ldr	r2, [r2, #120]	@ 0x78
10006658:	0892      	lsrs	r2, r2, #2
1000665a:	d209      	bcs.n	10006670 <ddiv_save_state>
1000665c:	4662      	mov	r2, ip

1000665e <ddiv_shim_call>:
1000665e:	b418      	push	{r3, r4}
10006660:	4b0f      	ldr	r3, [pc, #60]	@ (100066a0 <__wrap___aeabi_dmul+0x12>)
10006662:	68db      	ldr	r3, [r3, #12]
10006664:	46fc      	mov	ip, pc
10006666:	9301      	str	r3, [sp, #4]
10006668:	bd08      	pop	{r3, pc}
1000666a:	df0c      	.short	0xdf0c
1000666c:	10006b95 	.word	0x10006b95

10006670 <ddiv_save_state>:
10006670:	4a0c      	ldr	r2, [pc, #48]	@ (100066a4 <__wrap___aeabi_dmul+0x16>)
10006672:	b5f0      	push	{r4, r5, r6, r7, lr}
10006674:	6e14      	ldr	r4, [r2, #96]	@ 0x60
10006676:	6e55      	ldr	r5, [r2, #100]	@ 0x64
10006678:	6f57      	ldr	r7, [r2, #116]	@ 0x74
1000667a:	6f16      	ldr	r6, [r2, #112]	@ 0x70
1000667c:	4662      	mov	r2, ip
1000667e:	f7ff ffee 	bl	1000665e <ddiv_shim_call>
10006682:	4a08      	ldr	r2, [pc, #32]	@ (100066a4 <__wrap___aeabi_dmul+0x16>)
10006684:	6614      	str	r4, [r2, #96]	@ 0x60
10006686:	6655      	str	r5, [r2, #100]	@ 0x64
10006688:	6757      	str	r7, [r2, #116]	@ 0x74
1000668a:	6716      	str	r6, [r2, #112]	@ 0x70
1000668c:	bdf0      	pop	{r4, r5, r6, r7, pc}

1000668e <__wrap___aeabi_dmul>:
1000668e:	b418      	push	{r3, r4}
10006690:	4b03      	ldr	r3, [pc, #12]	@ (100066a0 <__wrap___aeabi_dmul+0x12>)
10006692:	689b      	ldr	r3, [r3, #8]
10006694:	46fc      	mov	ip, pc
10006696:	9301      	str	r3, [sp, #4]
10006698:	bd08      	pop	{r3, pc}
1000669a:	df08      	.short	0xdf08
1000669c:	10006a39 	.word	0x10006a39
100066a0:	200003c8 	.word	0x200003c8
100066a4:	d0000000 	.word	0xd0000000

100066a8 <__wrap___aeabi_cdrcmple>:
100066a8:	b5ff      	push	{r0, r1, r2, r3, r4, r5, r6, r7, lr}
100066aa:	4050      	eors	r0, r2
100066ac:	4042      	eors	r2, r0
100066ae:	4050      	eors	r0, r2
100066b0:	4059      	eors	r1, r3
100066b2:	404b      	eors	r3, r1
100066b4:	4059      	eors	r1, r3
100066b6:	e000      	b.n	100066ba <__aeabi_dfcmple_guts>

100066b8 <__wrap___aeabi_cdcmpeq>:
100066b8:	b5ff      	push	{r0, r1, r2, r3, r4, r5, r6, r7, lr}

100066ba <__aeabi_dfcmple_guts>:
100066ba:	4f15      	ldr	r7, [pc, #84]	@ (10006710 <__aeabi_dfcmple_guts+0x56>)
100066bc:	004c      	lsls	r4, r1, #1
100066be:	0d64      	lsrs	r4, r4, #21
100066c0:	d003      	beq.n	100066ca <__aeabi_dfcmple_guts+0x10>
100066c2:	42bc      	cmp	r4, r7
100066c4:	d104      	bne.n	100066d0 <__aeabi_dfcmple_guts+0x16>
100066c6:	030c      	lsls	r4, r1, #12
100066c8:	d814      	bhi.n	100066f4 <__aeabi_dfcmple_guts+0x3a>
100066ca:	2000      	movs	r0, #0
100066cc:	0d09      	lsrs	r1, r1, #20
100066ce:	0509      	lsls	r1, r1, #20
100066d0:	005c      	lsls	r4, r3, #1
100066d2:	0d64      	lsrs	r4, r4, #21
100066d4:	d003      	beq.n	100066de <__aeabi_dfcmple_guts+0x24>
100066d6:	42bc      	cmp	r4, r7
100066d8:	d104      	bne.n	100066e4 <__aeabi_dfcmple_guts+0x2a>
100066da:	031c      	lsls	r4, r3, #12
100066dc:	d80a      	bhi.n	100066f4 <__aeabi_dfcmple_guts+0x3a>
100066de:	2200      	movs	r2, #0
100066e0:	0d1b      	lsrs	r3, r3, #20
100066e2:	051b      	lsls	r3, r3, #20
100066e4:	2601      	movs	r6, #1
100066e6:	404b      	eors	r3, r1
100066e8:	d409      	bmi.n	100066fe <__aeabi_dfcmple_guts+0x44>
100066ea:	404b      	eors	r3, r1
100066ec:	d503      	bpl.n	100066f6 <__aeabi_dfcmple_guts+0x3c>
100066ee:	428b      	cmp	r3, r1
100066f0:	d100      	bne.n	100066f4 <__aeabi_dfcmple_guts+0x3a>
100066f2:	4282      	cmp	r2, r0
100066f4:	bdff      	pop	{r0, r1, r2, r3, r4, r5, r6, r7, pc}
100066f6:	4299      	cmp	r1, r3
100066f8:	d1fc      	bne.n	100066f4 <__aeabi_dfcmple_guts+0x3a>
100066fa:	4290      	cmp	r0, r2
100066fc:	bdff      	pop	{r0, r1, r2, r3, r4, r5, r6, r7, pc}
100066fe:	430b      	orrs	r3, r1
10006700:	18db      	adds	r3, r3, r3
10006702:	4303      	orrs	r3, r0
10006704:	4313      	orrs	r3, r2
10006706:	d0f5      	beq.n	100066f4 <__aeabi_dfcmple_guts+0x3a>
10006708:	43c9      	mvns	r1, r1
1000670a:	1849      	adds	r1, r1, r1
1000670c:	bdff      	pop	{r0, r1, r2, r3, r4, r5, r6, r7, pc}
1000670e:	0000      	.short	0x0000
10006710:	000007ff 	.word	0x000007ff

10006714 <__wrap___aeabi_dcmplt>:
10006714:	b500      	push	{lr}
10006716:	f7ff ffcf 	bl	100066b8 <__wrap___aeabi_cdcmpeq>
1000671a:	4180      	sbcs	r0, r0
1000671c:	bd00      	pop	{pc}
1000671e:	46c0      	nop			@ (mov r8, r8)

10006720 <__wrap___aeabi_dcmpge>:
10006720:	b500      	push	{lr}
10006722:	f7ff ffc1 	bl	100066a8 <__wrap___aeabi_cdrcmple>
10006726:	d901      	bls.n	1000672c <__wrap___aeabi_dcmpge+0xc>
10006728:	2000      	movs	r0, #0
1000672a:	bd00      	pop	{pc}
1000672c:	2001      	movs	r0, #1
1000672e:	bd00      	pop	{pc}

10006730 <__wrap___aeabi_dcmpgt>:
10006730:	b500      	push	{lr}
10006732:	f7ff ffb9 	bl	100066a8 <__wrap___aeabi_cdrcmple>
10006736:	4180      	sbcs	r0, r0
10006738:	bd00      	pop	{pc}

1000673a <__wrap___aeabi_dcmpun>:
1000673a:	2001      	movs	r0, #1
1000673c:	0540      	lsls	r0, r0, #21
1000673e:	004a      	lsls	r2, r1, #1
10006740:	1812      	adds	r2, r2, r0
10006742:	d804      	bhi.n	1000674e <__wrap___aeabi_dcmpun+0x14>
10006744:	005a      	lsls	r2, r3, #1
10006746:	1812      	adds	r2, r2, r0
10006748:	d801      	bhi.n	1000674e <__wrap___aeabi_dcmpun+0x14>
1000674a:	2000      	movs	r0, #0
1000674c:	4770      	bx	lr
1000674e:	2001      	movs	r0, #1
10006750:	4770      	bx	lr
10006752:	2000      	movs	r0, #0
10006754:	4770      	bx	lr
	...

10006758 <__wrap___aeabi_ui2d>:
10006758:	2100      	movs	r1, #0
1000675a:	2800      	cmp	r0, #0
1000675c:	d105      	bne.n	1000676a <__wrap___aeabi_i2d+0xa>
1000675e:	4770      	bx	lr

10006760 <__wrap___aeabi_i2d>:
10006760:	17c1      	asrs	r1, r0, #31
10006762:	4048      	eors	r0, r1
10006764:	1a40      	subs	r0, r0, r1
10006766:	d0fa      	beq.n	1000675e <__wrap___aeabi_ui2d+0x6>
10006768:	07c9      	lsls	r1, r1, #31
1000676a:	b513      	push	{r0, r1, r4, lr}
1000676c:	4b06      	ldr	r3, [pc, #24]	@ (10006788 <__wrap___aeabi_i2d+0x28>)
1000676e:	681b      	ldr	r3, [r3, #0]
10006770:	4798      	blx	r3
10006772:	bc0c      	pop	{r2, r3}
10006774:	1c44      	adds	r4, r0, #1
10006776:	40a2      	lsls	r2, r4
10006778:	0510      	lsls	r0, r2, #20
1000677a:	0b12      	lsrs	r2, r2, #12
1000677c:	4903      	ldr	r1, [pc, #12]	@ (1000678c <__wrap___aeabi_i2d+0x2c>)
1000677e:	1b09      	subs	r1, r1, r4
10006780:	0509      	lsls	r1, r1, #20
10006782:	4319      	orrs	r1, r3
10006784:	4311      	orrs	r1, r2
10006786:	bd10      	pop	{r4, pc}
10006788:	200008c4 	.word	0x200008c4
1000678c:	0000041f 	.word	0x0000041f

10006790 <__wrap___aeabi_d2iz>:
10006790:	b510      	push	{r4, lr}
10006792:	004c      	lsls	r4, r1, #1
10006794:	0d62      	lsrs	r2, r4, #21
10006796:	2380      	movs	r3, #128	@ 0x80
10006798:	18d2      	adds	r2, r2, r3
1000679a:	00db      	lsls	r3, r3, #3
1000679c:	1ad2      	subs	r2, r2, r3
1000679e:	055b      	lsls	r3, r3, #21
100067a0:	2a7e      	cmp	r2, #126	@ 0x7e
100067a2:	dd10      	ble.n	100067c6 <__wrap___aeabi_d2iz+0x36>
100067a4:	3a9e      	subs	r2, #158	@ 0x9e
100067a6:	da13      	bge.n	100067d0 <__wrap___aeabi_d2iz+0x40>
100067a8:	17cc      	asrs	r4, r1, #31
100067aa:	0309      	lsls	r1, r1, #12
100067ac:	0849      	lsrs	r1, r1, #1
100067ae:	4319      	orrs	r1, r3
100067b0:	4252      	negs	r2, r2
100067b2:	40d1      	lsrs	r1, r2
100067b4:	0064      	lsls	r4, r4, #1
100067b6:	3401      	adds	r4, #1
100067b8:	3215      	adds	r2, #21
100067ba:	2a20      	cmp	r2, #32
100067bc:	da05      	bge.n	100067ca <__wrap___aeabi_d2iz+0x3a>
100067be:	40d0      	lsrs	r0, r2
100067c0:	4308      	orrs	r0, r1
100067c2:	4360      	muls	r0, r4
100067c4:	bd10      	pop	{r4, pc}
100067c6:	2000      	movs	r0, #0
100067c8:	bd10      	pop	{r4, pc}
100067ca:	4608      	mov	r0, r1
100067cc:	4360      	muls	r0, r4
100067ce:	bd10      	pop	{r4, pc}
100067d0:	0fc8      	lsrs	r0, r1, #31
100067d2:	18c0      	adds	r0, r0, r3
100067d4:	3801      	subs	r0, #1
100067d6:	bd10      	pop	{r4, pc}

100067d8 <__wrap___aeabi_d2uiz>:
100067d8:	b418      	push	{r3, r4}
100067da:	4b04      	ldr	r3, [pc, #16]	@ (100067ec <__wrap___aeabi_d2uiz+0x14>)
100067dc:	6a5b      	ldr	r3, [r3, #36]	@ 0x24
100067de:	46fc      	mov	ip, pc
100067e0:	9301      	str	r3, [sp, #4]
100067e2:	bd08      	pop	{r3, pc}
100067e4:	6dc9df24 	.word	0x6dc9df24
100067e8:	00001000 	.word	0x00001000
100067ec:	200003c8 	.word	0x200003c8

100067f0 <__wrap_atan2>:
100067f0:	b418      	push	{r3, r4}
100067f2:	4b04      	ldr	r3, [pc, #16]	@ (10006804 <__wrap_atan2+0x14>)
100067f4:	6d9b      	ldr	r3, [r3, #88]	@ 0x58
100067f6:	46fc      	mov	ip, pc
100067f8:	9301      	str	r3, [sp, #4]
100067fa:	bd08      	pop	{r3, pc}
100067fc:	7089df58 	.word	0x7089df58
10006800:	00001000 	.word	0x00001000
10006804:	200003c8 	.word	0x200003c8

10006808 <__aeabi_double_init>:
10006808:	2313      	movs	r3, #19
1000680a:	b570      	push	{r4, r5, r6, lr}
1000680c:	781d      	ldrb	r5, [r3, #0]
1000680e:	2d01      	cmp	r5, #1
10006810:	d015      	beq.n	1000683e <__aeabi_double_init+0x36>
10006812:	dd10      	ble.n	10006836 <__aeabi_double_init+0x2e>
10006814:	481d      	ldr	r0, [pc, #116]	@ (1000688c <__aeabi_double_init+0x84>)
10006816:	f7ff fc71 	bl	100060fc <rom_data_lookup>
1000681a:	4c1d      	ldr	r4, [pc, #116]	@ (10006890 <__aeabi_double_init+0x88>)
1000681c:	0001      	movs	r1, r0
1000681e:	2280      	movs	r2, #128	@ 0x80
10006820:	0020      	movs	r0, r4
10006822:	f000 fe51 	bl	100074c8 <__wrap___aeabi_memcpy>
10006826:	2d02      	cmp	r5, #2
10006828:	d02d      	beq.n	10006886 <__aeabi_double_init+0x7e>
1000682a:	481a      	ldr	r0, [pc, #104]	@ (10006894 <__aeabi_double_init+0x8c>)
1000682c:	f7ff fc5e 	bl	100060ec <rom_func_lookup>
10006830:	4b19      	ldr	r3, [pc, #100]	@ (10006898 <__aeabi_double_init+0x90>)
10006832:	6018      	str	r0, [r3, #0]
10006834:	bd70      	pop	{r4, r5, r6, pc}
10006836:	4b19      	ldr	r3, [pc, #100]	@ (1000689c <__aeabi_double_init+0x94>)
10006838:	4c15      	ldr	r4, [pc, #84]	@ (10006890 <__aeabi_double_init+0x88>)
1000683a:	64a3      	str	r3, [r4, #72]	@ 0x48
1000683c:	e7f5      	b.n	1000682a <__aeabi_double_init+0x22>
1000683e:	4b17      	ldr	r3, [pc, #92]	@ (1000689c <__aeabi_double_init+0x94>)
10006840:	4c13      	ldr	r4, [pc, #76]	@ (10006890 <__aeabi_double_init+0x88>)
10006842:	6023      	str	r3, [r4, #0]
10006844:	6063      	str	r3, [r4, #4]
10006846:	60a3      	str	r3, [r4, #8]
10006848:	60e3      	str	r3, [r4, #12]
1000684a:	6123      	str	r3, [r4, #16]
1000684c:	6163      	str	r3, [r4, #20]
1000684e:	61a3      	str	r3, [r4, #24]
10006850:	61e3      	str	r3, [r4, #28]
10006852:	6223      	str	r3, [r4, #32]
10006854:	6263      	str	r3, [r4, #36]	@ 0x24
10006856:	62a3      	str	r3, [r4, #40]	@ 0x28
10006858:	62e3      	str	r3, [r4, #44]	@ 0x2c
1000685a:	6323      	str	r3, [r4, #48]	@ 0x30
1000685c:	6363      	str	r3, [r4, #52]	@ 0x34
1000685e:	63a3      	str	r3, [r4, #56]	@ 0x38
10006860:	63e3      	str	r3, [r4, #60]	@ 0x3c
10006862:	6423      	str	r3, [r4, #64]	@ 0x40
10006864:	6463      	str	r3, [r4, #68]	@ 0x44
10006866:	64a3      	str	r3, [r4, #72]	@ 0x48
10006868:	64e3      	str	r3, [r4, #76]	@ 0x4c
1000686a:	6523      	str	r3, [r4, #80]	@ 0x50
1000686c:	6563      	str	r3, [r4, #84]	@ 0x54
1000686e:	65a3      	str	r3, [r4, #88]	@ 0x58
10006870:	65e3      	str	r3, [r4, #92]	@ 0x5c
10006872:	6623      	str	r3, [r4, #96]	@ 0x60
10006874:	6663      	str	r3, [r4, #100]	@ 0x64
10006876:	66a3      	str	r3, [r4, #104]	@ 0x68
10006878:	66e3      	str	r3, [r4, #108]	@ 0x6c
1000687a:	6723      	str	r3, [r4, #112]	@ 0x70
1000687c:	6763      	str	r3, [r4, #116]	@ 0x74
1000687e:	67a3      	str	r3, [r4, #120]	@ 0x78
10006880:	67e3      	str	r3, [r4, #124]	@ 0x7c
10006882:	64a3      	str	r3, [r4, #72]	@ 0x48
10006884:	e7d1      	b.n	1000682a <__aeabi_double_init+0x22>
10006886:	4b05      	ldr	r3, [pc, #20]	@ (1000689c <__aeabi_double_init+0x94>)
10006888:	64a3      	str	r3, [r4, #72]	@ 0x48
1000688a:	e7ce      	b.n	1000682a <__aeabi_double_init+0x22>
1000688c:	00004453 	.word	0x00004453
10006890:	200003c8 	.word	0x200003c8
10006894:	0000334c 	.word	0x0000334c
10006898:	200008c4 	.word	0x200008c4
1000689c:	100068a1 	.word	0x100068a1

100068a0 <double_table_shim_on_use_helper>:
100068a0:	b507      	push	{r0, r1, r2, lr}
100068a2:	4660      	mov	r0, ip
100068a4:	8801      	ldrh	r1, [r0, #0]
100068a6:	0a0a      	lsrs	r2, r1, #8
100068a8:	3002      	adds	r0, #2
100068aa:	2adf      	cmp	r2, #223	@ 0xdf
100068ac:	d1fa      	bne.n	100068a4 <double_table_shim_on_use_helper+0x4>
100068ae:	b2c9      	uxtb	r1, r1
100068b0:	0882      	lsrs	r2, r0, #2
100068b2:	d304      	bcc.n	100068be <double_table_shim_on_use_helper+0x1e>
100068b4:	8802      	ldrh	r2, [r0, #0]
100068b6:	8840      	ldrh	r0, [r0, #2]
100068b8:	0400      	lsls	r0, r0, #16
100068ba:	4310      	orrs	r0, r2
100068bc:	e000      	b.n	100068c0 <double_table_shim_on_use_helper+0x20>
100068be:	6800      	ldr	r0, [r0, #0]
100068c0:	4a01      	ldr	r2, [pc, #4]	@ (100068c8 <double_table_shim_on_use_helper+0x28>)
100068c2:	5050      	str	r0, [r2, r1]
100068c4:	9003      	str	r0, [sp, #12]
100068c6:	bd07      	pop	{r0, r1, r2, pc}
100068c8:	200003c8 	.word	0x200003c8

100068cc <drsub_shim>:
100068cc:	b40f      	push	{r0, r1, r2, r3}
100068ce:	bc03      	pop	{r0, r1}
100068d0:	bc0c      	pop	{r2, r3}

100068d2 <dsub_shim>:
100068d2:	b5f0      	push	{r4, r5, r6, r7, lr}
100068d4:	2401      	movs	r4, #1
100068d6:	07e4      	lsls	r4, r4, #31
100068d8:	4063      	eors	r3, r4
100068da:	e000      	b.n	100068de <da_entry>

100068dc <dadd_shim>:
100068dc:	b5f0      	push	{r4, r5, r6, r7, lr}

100068de <da_entry>:
100068de:	0d0c      	lsrs	r4, r1, #20
100068e0:	0fcf      	lsrs	r7, r1, #31
100068e2:	1e66      	subs	r6, r4, #1
100068e4:	0536      	lsls	r6, r6, #20
100068e6:	1b89      	subs	r1, r1, r6
100068e8:	0564      	lsls	r4, r4, #21
100068ea:	d303      	bcc.n	100068f4 <l8_1>
100068ec:	43c9      	mvns	r1, r1
100068ee:	4240      	negs	r0, r0
100068f0:	d300      	bcc.n	100068f4 <l8_1>
100068f2:	3101      	adds	r1, #1

100068f4 <l8_1>:
100068f4:	0d64      	lsrs	r4, r4, #21
100068f6:	d003      	beq.n	10006900 <l8_2>
100068f8:	1c66      	adds	r6, r4, #1
100068fa:	0af6      	lsrs	r6, r6, #11
100068fc:	d007      	beq.n	1000690e <l8_3>
100068fe:	1be4      	subs	r4, r4, r7

10006900 <l8_2>:
10006900:	2000      	movs	r0, #0
10006902:	007f      	lsls	r7, r7, #1
10006904:	1c79      	adds	r1, r7, #1
10006906:	0789      	lsls	r1, r1, #30
10006908:	1289      	asrs	r1, r1, #10
1000690a:	3c80      	subs	r4, #128	@ 0x80
1000690c:	0324      	lsls	r4, r4, #12

1000690e <l8_3>:
1000690e:	0d1d      	lsrs	r5, r3, #20
10006910:	0fdf      	lsrs	r7, r3, #31
10006912:	1e6e      	subs	r6, r5, #1
10006914:	0536      	lsls	r6, r6, #20
10006916:	1b9b      	subs	r3, r3, r6
10006918:	056d      	lsls	r5, r5, #21
1000691a:	d303      	bcc.n	10006924 <l9_1>
1000691c:	43db      	mvns	r3, r3
1000691e:	4252      	negs	r2, r2
10006920:	d300      	bcc.n	10006924 <l9_1>
10006922:	3301      	adds	r3, #1

10006924 <l9_1>:
10006924:	0d6d      	lsrs	r5, r5, #21
10006926:	d003      	beq.n	10006930 <l9_2>
10006928:	1c6e      	adds	r6, r5, #1
1000692a:	0af6      	lsrs	r6, r6, #11
1000692c:	d007      	beq.n	1000693e <l9_3>
1000692e:	1bed      	subs	r5, r5, r7

10006930 <l9_2>:
10006930:	2200      	movs	r2, #0
10006932:	007f      	lsls	r7, r7, #1
10006934:	1c7b      	adds	r3, r7, #1
10006936:	079b      	lsls	r3, r3, #30
10006938:	129b      	asrs	r3, r3, #10
1000693a:	3d80      	subs	r5, #128	@ 0x80
1000693c:	032d      	lsls	r5, r5, #12

1000693e <l9_3>:
1000693e:	1b2f      	subs	r7, r5, r4
10006940:	1b66      	subs	r6, r4, r5
10006942:	d458      	bmi.n	100069f6 <da_ygtx>
10006944:	46a4      	mov	ip, r4
10006946:	2e20      	cmp	r6, #32
10006948:	da46      	bge.n	100069d8 <da_xrgty>
1000694a:	3720      	adds	r7, #32
1000694c:	0014      	movs	r4, r2
1000694e:	40bc      	lsls	r4, r7

10006950 <da_xgty0>:
10006950:	001d      	movs	r5, r3
10006952:	40bd      	lsls	r5, r7
10006954:	40f2      	lsrs	r2, r6
10006956:	4133      	asrs	r3, r6
10006958:	432a      	orrs	r2, r5

1000695a <da_add>:
1000695a:	1880      	adds	r0, r0, r2
1000695c:	4159      	adcs	r1, r3

1000695e <da_pack>:
1000695e:	0fcb      	lsrs	r3, r1, #31
10006960:	d005      	beq.n	1000696e <da_pack+0x10>
10006962:	43c9      	mvns	r1, r1
10006964:	43c0      	mvns	r0, r0
10006966:	2200      	movs	r2, #0
10006968:	4264      	negs	r4, r4
1000696a:	4150      	adcs	r0, r2
1000696c:	4151      	adcs	r1, r2
1000696e:	4662      	mov	r2, ip
10006970:	0d4d      	lsrs	r5, r1, #21
10006972:	d128      	bne.n	100069c6 <da_0>
10006974:	0d0d      	lsrs	r5, r1, #20
10006976:	d107      	bne.n	10006988 <da_1>
10006978:	2800      	cmp	r0, #0
1000697a:	d01f      	beq.n	100069bc <da_5>

1000697c <da_2>:
1000697c:	1924      	adds	r4, r4, r4
1000697e:	4140      	adcs	r0, r0
10006980:	4149      	adcs	r1, r1
10006982:	3a01      	subs	r2, #1
10006984:	0d0d      	lsrs	r5, r1, #20
10006986:	d0f9      	beq.n	1000697c <da_2>

10006988 <da_1>:
10006988:	0064      	lsls	r4, r4, #1
1000698a:	d306      	bcc.n	1000699a <da_3>

1000698c <da_4>:
1000698c:	3001      	adds	r0, #1
1000698e:	d300      	bcc.n	10006992 <da_4+0x6>
10006990:	3101      	adds	r1, #1
10006992:	2c00      	cmp	r4, #0
10006994:	d101      	bne.n	1000699a <da_3>
10006996:	0840      	lsrs	r0, r0, #1
10006998:	0040      	lsls	r0, r0, #1

1000699a <da_3>:
1000699a:	3a01      	subs	r2, #1
1000699c:	d40b      	bmi.n	100069b6 <da_6>
1000699e:	1c94      	adds	r4, r2, #2
100069a0:	0ae4      	lsrs	r4, r4, #11
100069a2:	d104      	bne.n	100069ae <da_7>
100069a4:	0512      	lsls	r2, r2, #20
100069a6:	4411      	add	r1, r2
100069a8:	07db      	lsls	r3, r3, #31
100069aa:	4419      	add	r1, r3
100069ac:	bdf0      	pop	{r4, r5, r6, r7, pc}

100069ae <da_7>:
100069ae:	07d9      	lsls	r1, r3, #31
100069b0:	4b20      	ldr	r3, [pc, #128]	@ (10006a34 <da_xmgty+0x4>)
100069b2:	4319      	orrs	r1, r3
100069b4:	e000      	b.n	100069b8 <da_6+0x2>

100069b6 <da_6>:
100069b6:	07d9      	lsls	r1, r3, #31
100069b8:	2000      	movs	r0, #0
100069ba:	bdf0      	pop	{r4, r5, r6, r7, pc}

100069bc <da_5>:
100069bc:	2900      	cmp	r1, #0
100069be:	d1dd      	bne.n	1000697c <da_2>
100069c0:	2c00      	cmp	r4, #0
100069c2:	d1db      	bne.n	1000697c <da_2>
100069c4:	bdf0      	pop	{r4, r5, r6, r7, pc}

100069c6 <da_0>:
100069c6:	3201      	adds	r2, #1
100069c8:	07c6      	lsls	r6, r0, #31
100069ca:	0840      	lsrs	r0, r0, #1
100069cc:	07cd      	lsls	r5, r1, #31
100069ce:	4328      	orrs	r0, r5
100069d0:	0849      	lsrs	r1, r1, #1
100069d2:	2e00      	cmp	r6, #0
100069d4:	d0e1      	beq.n	1000699a <da_3>
100069d6:	e7d9      	b.n	1000698c <da_4>

100069d8 <da_xrgty>:
100069d8:	2e3c      	cmp	r6, #60	@ 0x3c
100069da:	da29      	bge.n	10006a30 <da_xmgty>
100069dc:	3e20      	subs	r6, #32
100069de:	3740      	adds	r7, #64	@ 0x40
100069e0:	0014      	movs	r4, r2
100069e2:	40bc      	lsls	r4, r7
100069e4:	d000      	beq.n	100069e8 <da_xrgty+0x10>
100069e6:	2401      	movs	r4, #1
100069e8:	40f2      	lsrs	r2, r6
100069ea:	4314      	orrs	r4, r2
100069ec:	001a      	movs	r2, r3
100069ee:	40bb      	lsls	r3, r7
100069f0:	431c      	orrs	r4, r3
100069f2:	17d3      	asrs	r3, r2, #31
100069f4:	e7ac      	b.n	10006950 <da_xgty0>

100069f6 <da_ygtx>:
100069f6:	46ac      	mov	ip, r5
100069f8:	2f20      	cmp	r7, #32
100069fa:	da08      	bge.n	10006a0e <da_yrgtx>
100069fc:	3620      	adds	r6, #32
100069fe:	0004      	movs	r4, r0
10006a00:	40b4      	lsls	r4, r6

10006a02 <da_ygtx0>:
10006a02:	000d      	movs	r5, r1
10006a04:	40b5      	lsls	r5, r6
10006a06:	40f8      	lsrs	r0, r7
10006a08:	4139      	asrs	r1, r7
10006a0a:	4328      	orrs	r0, r5
10006a0c:	e7a5      	b.n	1000695a <da_add>

10006a0e <da_yrgtx>:
10006a0e:	2f3c      	cmp	r7, #60	@ 0x3c
10006a10:	da0c      	bge.n	10006a2c <da_ymgtx>
10006a12:	3f20      	subs	r7, #32
10006a14:	3640      	adds	r6, #64	@ 0x40
10006a16:	0004      	movs	r4, r0
10006a18:	40b4      	lsls	r4, r6
10006a1a:	d000      	beq.n	10006a1e <da_yrgtx+0x10>
10006a1c:	2401      	movs	r4, #1
10006a1e:	40f8      	lsrs	r0, r7
10006a20:	4304      	orrs	r4, r0
10006a22:	0008      	movs	r0, r1
10006a24:	40b1      	lsls	r1, r6
10006a26:	430c      	orrs	r4, r1
10006a28:	17c1      	asrs	r1, r0, #31
10006a2a:	e7ea      	b.n	10006a02 <da_ygtx0>

10006a2c <da_ymgtx>:
10006a2c:	0010      	movs	r0, r2
10006a2e:	0019      	movs	r1, r3

10006a30 <da_xmgty>:
10006a30:	2400      	movs	r4, #0
10006a32:	e794      	b.n	1000695e <da_pack>
10006a34:	7ff00000 	.word	0x7ff00000

10006a38 <dmul_shim>:
10006a38:	b5f0      	push	{r4, r5, r6, r7, lr}
10006a3a:	0d0c      	lsrs	r4, r1, #20
10006a3c:	1e66      	subs	r6, r4, #1
10006a3e:	0536      	lsls	r6, r6, #20
10006a40:	1b89      	subs	r1, r1, r6
10006a42:	0ae6      	lsrs	r6, r4, #11
10006a44:	0564      	lsls	r4, r4, #21
10006a46:	0d64      	lsrs	r4, r4, #21
10006a48:	d002      	beq.n	10006a50 <l12_1>
10006a4a:	1c65      	adds	r5, r4, #1
10006a4c:	0aed      	lsrs	r5, r5, #11
10006a4e:	d004      	beq.n	10006a5a <l12_2>

10006a50 <l12_1>:
10006a50:	2000      	movs	r0, #0
10006a52:	2101      	movs	r1, #1
10006a54:	0509      	lsls	r1, r1, #20
10006a56:	3c80      	subs	r4, #128	@ 0x80
10006a58:	0324      	lsls	r4, r4, #12

10006a5a <l12_2>:
10006a5a:	46a4      	mov	ip, r4
10006a5c:	0d1c      	lsrs	r4, r3, #20
10006a5e:	1e67      	subs	r7, r4, #1
10006a60:	053f      	lsls	r7, r7, #20
10006a62:	1bdb      	subs	r3, r3, r7
10006a64:	0ae7      	lsrs	r7, r4, #11
10006a66:	0564      	lsls	r4, r4, #21
10006a68:	0d64      	lsrs	r4, r4, #21
10006a6a:	d002      	beq.n	10006a72 <l13_1>
10006a6c:	1c65      	adds	r5, r4, #1
10006a6e:	0aed      	lsrs	r5, r5, #11
10006a70:	d004      	beq.n	10006a7c <l13_2>

10006a72 <l13_1>:
10006a72:	2200      	movs	r2, #0
10006a74:	2301      	movs	r3, #1
10006a76:	051b      	lsls	r3, r3, #20
10006a78:	3c80      	subs	r4, #128	@ 0x80
10006a7a:	0324      	lsls	r4, r4, #12

10006a7c <l13_2>:
10006a7c:	4077      	eors	r7, r6
10006a7e:	4464      	add	r4, ip
10006a80:	b497      	push	{r0, r1, r2, r4, r7}
10006a82:	b284      	uxth	r4, r0
10006a84:	b296      	uxth	r6, r2
10006a86:	4374      	muls	r4, r6
10006a88:	0c07      	lsrs	r7, r0, #16
10006a8a:	437e      	muls	r6, r7
10006a8c:	0c15      	lsrs	r5, r2, #16
10006a8e:	436f      	muls	r7, r5
10006a90:	b280      	uxth	r0, r0
10006a92:	4368      	muls	r0, r5
10006a94:	1836      	adds	r6, r6, r0
10006a96:	d302      	bcc.n	10006a9e <l14_1>
10006a98:	2001      	movs	r0, #1
10006a9a:	0400      	lsls	r0, r0, #16
10006a9c:	183f      	adds	r7, r7, r0

10006a9e <l14_1>:
10006a9e:	0430      	lsls	r0, r6, #16
10006aa0:	0c35      	lsrs	r5, r6, #16
10006aa2:	1900      	adds	r0, r0, r4
10006aa4:	417d      	adcs	r5, r7
10006aa6:	4684      	mov	ip, r0
10006aa8:	b288      	uxth	r0, r1
10006aaa:	b29a      	uxth	r2, r3
10006aac:	4350      	muls	r0, r2
10006aae:	0c0c      	lsrs	r4, r1, #16
10006ab0:	4362      	muls	r2, r4
10006ab2:	0c1f      	lsrs	r7, r3, #16
10006ab4:	437c      	muls	r4, r7
10006ab6:	b28e      	uxth	r6, r1
10006ab8:	437e      	muls	r6, r7
10006aba:	1992      	adds	r2, r2, r6
10006abc:	d302      	bcc.n	10006ac4 <l15_1>
10006abe:	2601      	movs	r6, #1
10006ac0:	0436      	lsls	r6, r6, #16
10006ac2:	19a4      	adds	r4, r4, r6

10006ac4 <l15_1>:
10006ac4:	0416      	lsls	r6, r2, #16
10006ac6:	0c17      	lsrs	r7, r2, #16
10006ac8:	1836      	adds	r6, r6, r0
10006aca:	4167      	adcs	r7, r4
10006acc:	bc01      	pop	{r0}
10006ace:	b281      	uxth	r1, r0
10006ad0:	b29a      	uxth	r2, r3
10006ad2:	4351      	muls	r1, r2
10006ad4:	0c04      	lsrs	r4, r0, #16
10006ad6:	4362      	muls	r2, r4
10006ad8:	0c1b      	lsrs	r3, r3, #16
10006ada:	435c      	muls	r4, r3
10006adc:	b280      	uxth	r0, r0
10006ade:	4358      	muls	r0, r3
10006ae0:	1812      	adds	r2, r2, r0
10006ae2:	d302      	bcc.n	10006aea <l16_1>
10006ae4:	2001      	movs	r0, #1
10006ae6:	0400      	lsls	r0, r0, #16
10006ae8:	1824      	adds	r4, r4, r0

10006aea <l16_1>:
10006aea:	0410      	lsls	r0, r2, #16
10006aec:	0c13      	lsrs	r3, r2, #16
10006aee:	1840      	adds	r0, r0, r1
10006af0:	4163      	adcs	r3, r4
10006af2:	182d      	adds	r5, r5, r0
10006af4:	415e      	adcs	r6, r3
10006af6:	2000      	movs	r0, #0
10006af8:	4147      	adcs	r7, r0
10006afa:	bc06      	pop	{r1, r2}
10006afc:	b288      	uxth	r0, r1
10006afe:	b293      	uxth	r3, r2
10006b00:	4358      	muls	r0, r3
10006b02:	0c0c      	lsrs	r4, r1, #16
10006b04:	4363      	muls	r3, r4
10006b06:	0c12      	lsrs	r2, r2, #16
10006b08:	4354      	muls	r4, r2
10006b0a:	b289      	uxth	r1, r1
10006b0c:	4351      	muls	r1, r2
10006b0e:	185b      	adds	r3, r3, r1
10006b10:	d302      	bcc.n	10006b18 <l17_1>
10006b12:	2101      	movs	r1, #1
10006b14:	0409      	lsls	r1, r1, #16
10006b16:	1864      	adds	r4, r4, r1

10006b18 <l17_1>:
10006b18:	0419      	lsls	r1, r3, #16
10006b1a:	0c1a      	lsrs	r2, r3, #16
10006b1c:	1809      	adds	r1, r1, r0
10006b1e:	4162      	adcs	r2, r4
10006b20:	186d      	adds	r5, r5, r1
10006b22:	4156      	adcs	r6, r2
10006b24:	2000      	movs	r0, #0
10006b26:	4147      	adcs	r7, r0
10006b28:	bc18      	pop	{r3, r4}
10006b2a:	02f9      	lsls	r1, r7, #11
10006b2c:	0d72      	lsrs	r2, r6, #21
10006b2e:	4311      	orrs	r1, r2
10006b30:	02f0      	lsls	r0, r6, #11
10006b32:	0d6a      	lsrs	r2, r5, #21
10006b34:	4310      	orrs	r0, r2
10006b36:	02ed      	lsls	r5, r5, #11
10006b38:	0d0a      	lsrs	r2, r1, #20
10006b3a:	d103      	bne.n	10006b44 <l17_1+0x2c>
10006b3c:	196d      	adds	r5, r5, r5
10006b3e:	4140      	adcs	r0, r0
10006b40:	4149      	adcs	r1, r1
10006b42:	3b01      	subs	r3, #1
10006b44:	4e12      	ldr	r6, [pc, #72]	@ (10006b90 <dm_1+0xa>)
10006b46:	1b9b      	subs	r3, r3, r6
10006b48:	0076      	lsls	r6, r6, #1
10006b4a:	42b3      	cmp	r3, r6
10006b4c:	d20e      	bcs.n	10006b6c <dm_0>
10006b4e:	006d      	lsls	r5, r5, #1
10006b50:	d307      	bcc.n	10006b62 <l17_1+0x4a>
10006b52:	3001      	adds	r0, #1
10006b54:	2600      	movs	r6, #0
10006b56:	4171      	adcs	r1, r6
10006b58:	4666      	mov	r6, ip
10006b5a:	4335      	orrs	r5, r6
10006b5c:	d101      	bne.n	10006b62 <l17_1+0x4a>
10006b5e:	0840      	lsrs	r0, r0, #1
10006b60:	0040      	lsls	r0, r0, #1
10006b62:	051b      	lsls	r3, r3, #20
10006b64:	18c9      	adds	r1, r1, r3

10006b66 <dm_2>:
10006b66:	07e4      	lsls	r4, r4, #31
10006b68:	4421      	add	r1, r4
10006b6a:	bdf0      	pop	{r4, r5, r6, r7, pc}

10006b6c <dm_0>:
10006b6c:	da0b      	bge.n	10006b86 <dm_1>
10006b6e:	3301      	adds	r3, #1
10006b70:	d106      	bne.n	10006b80 <dm_0+0x14>
10006b72:	3001      	adds	r0, #1
10006b74:	d104      	bne.n	10006b80 <dm_0+0x14>
10006b76:	3101      	adds	r1, #1
10006b78:	0d4f      	lsrs	r7, r1, #21
10006b7a:	d001      	beq.n	10006b80 <dm_0+0x14>
10006b7c:	0849      	lsrs	r1, r1, #1
10006b7e:	e7f2      	b.n	10006b66 <dm_2>
10006b80:	07e1      	lsls	r1, r4, #31
10006b82:	2000      	movs	r0, #0
10006b84:	bdf0      	pop	{r4, r5, r6, r7, pc}

10006b86 <dm_1>:
10006b86:	3601      	adds	r6, #1
10006b88:	0531      	lsls	r1, r6, #20
10006b8a:	2000      	movs	r0, #0
10006b8c:	e7eb      	b.n	10006b66 <dm_2>
10006b8e:	0000      	.short	0x0000
10006b90:	000003ff 	.word	0x000003ff

10006b94 <ddiv_shim>:
10006b94:	b5f0      	push	{r4, r5, r6, r7, lr}

10006b96 <ddiv0>:
10006b96:	0d1c      	lsrs	r4, r3, #20
10006b98:	1e67      	subs	r7, r4, #1
10006b9a:	053f      	lsls	r7, r7, #20
10006b9c:	1bdb      	subs	r3, r3, r7
10006b9e:	0ae7      	lsrs	r7, r4, #11
10006ba0:	0564      	lsls	r4, r4, #21
10006ba2:	0d64      	lsrs	r4, r4, #21
10006ba4:	d002      	beq.n	10006bac <l20_1>
10006ba6:	1c66      	adds	r6, r4, #1
10006ba8:	0af6      	lsrs	r6, r6, #11
10006baa:	d004      	beq.n	10006bb6 <l20_2>

10006bac <l20_1>:
10006bac:	2200      	movs	r2, #0
10006bae:	2301      	movs	r3, #1
10006bb0:	051b      	lsls	r3, r3, #20
10006bb2:	3c80      	subs	r4, #128	@ 0x80
10006bb4:	0324      	lsls	r4, r4, #12

10006bb6 <l20_2>:
10006bb6:	25d0      	movs	r5, #208	@ 0xd0
10006bb8:	062d      	lsls	r5, r5, #24
10006bba:	2600      	movs	r6, #0
10006bbc:	43f6      	mvns	r6, r6
10006bbe:	662e      	str	r6, [r5, #96]	@ 0x60
10006bc0:	091e      	lsrs	r6, r3, #4
10006bc2:	666e      	str	r6, [r5, #100]	@ 0x64
10006bc4:	0fce      	lsrs	r6, r1, #31
10006bc6:	19f6      	adds	r6, r6, r7
10006bc8:	46b4      	mov	ip, r6
10006bca:	0049      	lsls	r1, r1, #1
10006bcc:	0d4f      	lsrs	r7, r1, #21
10006bce:	d002      	beq.n	10006bd6 <l20_2+0x20>
10006bd0:	1c7e      	adds	r6, r7, #1
10006bd2:	0af6      	lsrs	r6, r6, #11
10006bd4:	d003      	beq.n	10006bde <l20_2+0x28>
10006bd6:	2000      	movs	r0, #0
10006bd8:	2100      	movs	r1, #0
10006bda:	3f40      	subs	r7, #64	@ 0x40
10006bdc:	033f      	lsls	r7, r7, #12
10006bde:	1b3e      	subs	r6, r7, r4
10006be0:	00b6      	lsls	r6, r6, #2
10006be2:	44b4      	add	ip, r6
10006be4:	3f01      	subs	r7, #1
10006be6:	057f      	lsls	r7, r7, #21
10006be8:	1bc9      	subs	r1, r1, r7
10006bea:	0849      	lsrs	r1, r1, #1
10006bec:	6f2e      	ldr	r6, [r5, #112]	@ 0x70
10006bee:	3601      	adds	r6, #1
10006bf0:	0876      	lsrs	r6, r6, #1
10006bf2:	029c      	lsls	r4, r3, #10
10006bf4:	0d95      	lsrs	r5, r2, #22
10006bf6:	4325      	orrs	r5, r4
10006bf8:	4375      	muls	r5, r6
10006bfa:	13ed      	asrs	r5, r5, #15
10006bfc:	4375      	muls	r5, r6
10006bfe:	13ad      	asrs	r5, r5, #14
10006c00:	3501      	adds	r5, #1
10006c02:	106d      	asrs	r5, r5, #1
10006c04:	03f6      	lsls	r6, r6, #15
10006c06:	1b76      	subs	r6, r6, r5
10006c08:	b40c      	push	{r2, r3}
10006c0a:	02cc      	lsls	r4, r1, #11
10006c0c:	0d45      	lsrs	r5, r0, #21
10006c0e:	432c      	orrs	r4, r5
10006c10:	b2a2      	uxth	r2, r4
10006c12:	b2b3      	uxth	r3, r6
10006c14:	435a      	muls	r2, r3
10006c16:	0c27      	lsrs	r7, r4, #16
10006c18:	437b      	muls	r3, r7
10006c1a:	0c35      	lsrs	r5, r6, #16
10006c1c:	436f      	muls	r7, r5
10006c1e:	b2a4      	uxth	r4, r4
10006c20:	436c      	muls	r4, r5
10006c22:	191b      	adds	r3, r3, r4
10006c24:	d302      	bcc.n	10006c2c <l21_1>
10006c26:	2401      	movs	r4, #1
10006c28:	0424      	lsls	r4, r4, #16
10006c2a:	193f      	adds	r7, r7, r4

10006c2c <l21_1>:
10006c2c:	041c      	lsls	r4, r3, #16
10006c2e:	0c1d      	lsrs	r5, r3, #16
10006c30:	18a4      	adds	r4, r4, r2
10006c32:	417d      	adcs	r5, r7
10006c34:	1924      	adds	r4, r4, r4
10006c36:	416d      	adcs	r5, r5
10006c38:	9a00      	ldr	r2, [sp, #0]
10006c3a:	b291      	uxth	r1, r2
10006c3c:	b2ac      	uxth	r4, r5
10006c3e:	4361      	muls	r1, r4
10006c40:	0c17      	lsrs	r7, r2, #16
10006c42:	437c      	muls	r4, r7
10006c44:	0c2b      	lsrs	r3, r5, #16
10006c46:	435f      	muls	r7, r3
10006c48:	b292      	uxth	r2, r2
10006c4a:	435a      	muls	r2, r3
10006c4c:	18a4      	adds	r4, r4, r2
10006c4e:	d302      	bcc.n	10006c56 <l22_1>
10006c50:	2201      	movs	r2, #1
10006c52:	0412      	lsls	r2, r2, #16
10006c54:	18bf      	adds	r7, r7, r2

10006c56 <l22_1>:
10006c56:	0422      	lsls	r2, r4, #16
10006c58:	0c23      	lsrs	r3, r4, #16
10006c5a:	1852      	adds	r2, r2, r1
10006c5c:	417b      	adcs	r3, r7
10006c5e:	9c01      	ldr	r4, [sp, #4]
10006c60:	436c      	muls	r4, r5
10006c62:	191b      	adds	r3, r3, r4
10006c64:	0e52      	lsrs	r2, r2, #25
10006c66:	01d9      	lsls	r1, r3, #7
10006c68:	430a      	orrs	r2, r1
10006c6a:	0144      	lsls	r4, r0, #5
10006c6c:	1aa0      	subs	r0, r4, r2
10006c6e:	b281      	uxth	r1, r0
10006c70:	b2b2      	uxth	r2, r6
10006c72:	4351      	muls	r1, r2
10006c74:	1403      	asrs	r3, r0, #16
10006c76:	435a      	muls	r2, r3
10006c78:	0c36      	lsrs	r6, r6, #16
10006c7a:	4373      	muls	r3, r6
10006c7c:	b287      	uxth	r7, r0
10006c7e:	4377      	muls	r7, r6
10006c80:	17d6      	asrs	r6, r2, #31
10006c82:	19d2      	adds	r2, r2, r7
10006c84:	2700      	movs	r7, #0
10006c86:	417e      	adcs	r6, r7
10006c88:	0436      	lsls	r6, r6, #16
10006c8a:	199b      	adds	r3, r3, r6
10006c8c:	0417      	lsls	r7, r2, #16
10006c8e:	0c16      	lsrs	r6, r2, #16
10006c90:	187f      	adds	r7, r7, r1
10006c92:	415e      	adcs	r6, r3
10006c94:	1673      	asrs	r3, r6, #25
10006c96:	18ed      	adds	r5, r5, r3
10006c98:	01f3      	lsls	r3, r6, #7
10006c9a:	2600      	movs	r6, #0
10006c9c:	3380      	adds	r3, #128	@ 0x80
10006c9e:	4175      	adcs	r5, r6
10006ca0:	0fa9      	lsrs	r1, r5, #30
10006ca2:	d106      	bne.n	10006cb2 <dd_0>
10006ca4:	0064      	lsls	r4, r4, #1
10006ca6:	0a69      	lsrs	r1, r5, #9
10006ca8:	05e8      	lsls	r0, r5, #23
10006caa:	0a5b      	lsrs	r3, r3, #9
10006cac:	4318      	orrs	r0, r3
10006cae:	d209      	bcs.n	10006cc4 <dd_1>
10006cb0:	e02f      	b.n	10006d12 <dd_2>

10006cb2 <dd_0>:
10006cb2:	2204      	movs	r2, #4
10006cb4:	4494      	add	ip, r2
10006cb6:	3380      	adds	r3, #128	@ 0x80
10006cb8:	4175      	adcs	r5, r6
10006cba:	0aa9      	lsrs	r1, r5, #10
10006cbc:	05a8      	lsls	r0, r5, #22
10006cbe:	0a9b      	lsrs	r3, r3, #10
10006cc0:	4318      	orrs	r0, r3
10006cc2:	d326      	bcc.n	10006d12 <dd_2>

10006cc4 <dd_1>:
10006cc4:	4140      	adcs	r0, r0
10006cc6:	4149      	adcs	r1, r1
10006cc8:	0424      	lsls	r4, r4, #16
10006cca:	9a00      	ldr	r2, [sp, #0]
10006ccc:	9b01      	ldr	r3, [sp, #4]
10006cce:	000d      	movs	r5, r1
10006cd0:	4355      	muls	r5, r2
10006cd2:	1b64      	subs	r4, r4, r5
10006cd4:	4343      	muls	r3, r0
10006cd6:	1ae4      	subs	r4, r4, r3
10006cd8:	b295      	uxth	r5, r2
10006cda:	b286      	uxth	r6, r0
10006cdc:	4375      	muls	r5, r6
10006cde:	0c17      	lsrs	r7, r2, #16
10006ce0:	437e      	muls	r6, r7
10006ce2:	0c03      	lsrs	r3, r0, #16
10006ce4:	435f      	muls	r7, r3
10006ce6:	b292      	uxth	r2, r2
10006ce8:	435a      	muls	r2, r3
10006cea:	18b6      	adds	r6, r6, r2
10006cec:	d302      	bcc.n	10006cf4 <l24_1>
10006cee:	2201      	movs	r2, #1
10006cf0:	0412      	lsls	r2, r2, #16
10006cf2:	18bf      	adds	r7, r7, r2

10006cf4 <l24_1>:
10006cf4:	0432      	lsls	r2, r6, #16
10006cf6:	0c33      	lsrs	r3, r6, #16
10006cf8:	1952      	adds	r2, r2, r5
10006cfa:	417b      	adcs	r3, r7
10006cfc:	4252      	negs	r2, r2
10006cfe:	419c      	sbcs	r4, r3
10006d00:	2c00      	cmp	r4, #0
10006d02:	d402      	bmi.n	10006d0a <l24_1+0x16>
10006d04:	2200      	movs	r2, #0
10006d06:	3001      	adds	r0, #1
10006d08:	4151      	adcs	r1, r2
10006d0a:	0840      	lsrs	r0, r0, #1
10006d0c:	07ca      	lsls	r2, r1, #31
10006d0e:	4310      	orrs	r0, r2
10006d10:	0849      	lsrs	r1, r1, #1

10006d12 <dd_2>:
10006d12:	b002      	add	sp, #8
10006d14:	4662      	mov	r2, ip
10006d16:	07d7      	lsls	r7, r2, #31
10006d18:	1092      	asrs	r2, r2, #2
10006d1a:	4b08      	ldr	r3, [pc, #32]	@ (10006d3c <dd_4+0x6>)
10006d1c:	18d2      	adds	r2, r2, r3
10006d1e:	4b08      	ldr	r3, [pc, #32]	@ (10006d40 <dd_4+0xa>)
10006d20:	429a      	cmp	r2, r3
10006d22:	d203      	bcs.n	10006d2c <dd_3>
10006d24:	0512      	lsls	r2, r2, #20
10006d26:	1889      	adds	r1, r1, r2

10006d28 <dd_5>:
10006d28:	19c9      	adds	r1, r1, r7
10006d2a:	bdf0      	pop	{r4, r5, r6, r7, pc}

10006d2c <dd_3>:
10006d2c:	2000      	movs	r0, #0
10006d2e:	2a00      	cmp	r2, #0
10006d30:	dc01      	bgt.n	10006d36 <dd_4>
10006d32:	0039      	movs	r1, r7
10006d34:	bdf0      	pop	{r4, r5, r6, r7, pc}

10006d36 <dd_4>:
10006d36:	3301      	adds	r3, #1
10006d38:	0519      	lsls	r1, r3, #20
10006d3a:	e7f5      	b.n	10006d28 <dd_5>
10006d3c:	000003fd 	.word	0x000003fd
10006d40:	000007fe 	.word	0x000007fe

10006d44 <dcordic_vec_step>:
10006d44:	4662      	mov	r2, ip
10006d46:	ca18      	ldmia	r2!, {r3, r4}
10006d48:	4694      	mov	ip, r2
10006d4a:	465a      	mov	r2, fp
10006d4c:	2a00      	cmp	r2, #0
10006d4e:	db20      	blt.n	10006d92 <dcordic_rot_step+0x40>
10006d50:	e004      	b.n	10006d5c <dcordic_rot_step+0xa>

10006d52 <dcordic_rot_step>:
10006d52:	4662      	mov	r2, ip
10006d54:	ca18      	ldmia	r2!, {r3, r4}
10006d56:	4694      	mov	ip, r2
10006d58:	2900      	cmp	r1, #0
10006d5a:	da1a      	bge.n	10006d92 <dcordic_rot_step+0x40>
10006d5c:	18c0      	adds	r0, r0, r3
10006d5e:	4161      	adcs	r1, r4
10006d60:	465b      	mov	r3, fp
10006d62:	413b      	asrs	r3, r7
10006d64:	465c      	mov	r4, fp
10006d66:	40b4      	lsls	r4, r6
10006d68:	4652      	mov	r2, sl
10006d6a:	40fa      	lsrs	r2, r7
10006d6c:	4322      	orrs	r2, r4
10006d6e:	4644      	mov	r4, r8
10006d70:	464d      	mov	r5, r9
10006d72:	4162      	adcs	r2, r4
10006d74:	416b      	adcs	r3, r5
10006d76:	4690      	mov	r8, r2
10006d78:	4699      	mov	r9, r3
10006d7a:	462b      	mov	r3, r5
10006d7c:	40b3      	lsls	r3, r6
10006d7e:	413d      	asrs	r5, r7
10006d80:	40fc      	lsrs	r4, r7
10006d82:	431c      	orrs	r4, r3
10006d84:	4652      	mov	r2, sl
10006d86:	465b      	mov	r3, fp
10006d88:	41a2      	sbcs	r2, r4
10006d8a:	41ab      	sbcs	r3, r5
10006d8c:	4692      	mov	sl, r2
10006d8e:	469b      	mov	fp, r3
10006d90:	4770      	bx	lr
10006d92:	1ac0      	subs	r0, r0, r3
10006d94:	41a1      	sbcs	r1, r4
10006d96:	464b      	mov	r3, r9
10006d98:	413b      	asrs	r3, r7
10006d9a:	464c      	mov	r4, r9
10006d9c:	40b4      	lsls	r4, r6
10006d9e:	4642      	mov	r2, r8
10006da0:	40fa      	lsrs	r2, r7
10006da2:	4322      	orrs	r2, r4
10006da4:	4654      	mov	r4, sl
10006da6:	465d      	mov	r5, fp
10006da8:	4162      	adcs	r2, r4
10006daa:	416b      	adcs	r3, r5
10006dac:	4692      	mov	sl, r2
10006dae:	469b      	mov	fp, r3
10006db0:	462b      	mov	r3, r5
10006db2:	40b3      	lsls	r3, r6
10006db4:	413d      	asrs	r5, r7
10006db6:	40fc      	lsrs	r4, r7
10006db8:	431c      	orrs	r4, r3
10006dba:	4642      	mov	r2, r8
10006dbc:	464b      	mov	r3, r9
10006dbe:	41a2      	sbcs	r2, r4
10006dc0:	41ab      	sbcs	r3, r5
10006dc2:	4690      	mov	r8, r2
10006dc4:	4699      	mov	r9, r3
10006dc6:	4770      	bx	lr

10006dc8 <double2uint_shim>:
10006dc8:	2200      	movs	r2, #0

10006dca <double2ufix_shim>:
10006dca:	b500      	push	{lr}
10006dcc:	3220      	adds	r2, #32
10006dce:	f000 f810 	bl	10006df2 <double2ufix64_shim>
10006dd2:	0008      	movs	r0, r1
10006dd4:	bd00      	pop	{pc}

10006dd6 <double2int64_shim>:
10006dd6:	2200      	movs	r2, #0

10006dd8 <double2fix64_shim>:
10006dd8:	b500      	push	{lr}
10006dda:	f000 f80c 	bl	10006df6 <d2fix>
10006dde:	17ca      	asrs	r2, r1, #31
10006de0:	429a      	cmp	r2, r3
10006de2:	d100      	bne.n	10006de6 <double2fix64_shim+0xe>
10006de4:	bd00      	pop	{pc}
10006de6:	43d8      	mvns	r0, r3
10006de8:	2101      	movs	r1, #1
10006dea:	07c9      	lsls	r1, r1, #31
10006dec:	4041      	eors	r1, r0
10006dee:	bd00      	pop	{pc}

10006df0 <double2uint64_shim>:
10006df0:	2200      	movs	r2, #0

10006df2 <double2ufix64_shim>:
10006df2:	150b      	asrs	r3, r1, #20
10006df4:	d40a      	bmi.n	10006e0c <ret_dzero>

10006df6 <d2fix>:
10006df6:	b510      	push	{r4, lr}
10006df8:	4694      	mov	ip, r2
10006dfa:	f000 f879 	bl	10006ef0 <dunpacks>
10006dfe:	1414      	asrs	r4, r2, #16
10006e00:	3401      	adds	r4, #1
10006e02:	da00      	bge.n	10006e06 <d2fix+0x10>
10006e04:	2100      	movs	r1, #0
10006e06:	17cb      	asrs	r3, r1, #31
10006e08:	4c14      	ldr	r4, [pc, #80]	@ (10006e5c <d2fix_a+0x4a>)
10006e0a:	4720      	bx	r4

10006e0c <ret_dzero>:
10006e0c:	2000      	movs	r0, #0
10006e0e:	2100      	movs	r1, #0
10006e10:	4770      	bx	lr

10006e12 <d2fix_a>:
10006e12:	4462      	add	r2, ip
10006e14:	3a34      	subs	r2, #52	@ 0x34
10006e16:	d40c      	bmi.n	10006e32 <d2fix_a+0x20>
10006e18:	2a0c      	cmp	r2, #12
10006e1a:	da07      	bge.n	10006e2c <d2fix_a+0x1a>
10006e1c:	0004      	movs	r4, r0
10006e1e:	4091      	lsls	r1, r2
10006e20:	4090      	lsls	r0, r2
10006e22:	4252      	negs	r2, r2
10006e24:	3220      	adds	r2, #32
10006e26:	40d4      	lsrs	r4, r2
10006e28:	4321      	orrs	r1, r4
10006e2a:	bd10      	pop	{r4, pc}
10006e2c:	43d8      	mvns	r0, r3
10006e2e:	43d9      	mvns	r1, r3
10006e30:	bd10      	pop	{r4, pc}
10006e32:	3220      	adds	r2, #32
10006e34:	d407      	bmi.n	10006e46 <d2fix_a+0x34>
10006e36:	460c      	mov	r4, r1
10006e38:	4094      	lsls	r4, r2
10006e3a:	4252      	negs	r2, r2
10006e3c:	3220      	adds	r2, #32
10006e3e:	4111      	asrs	r1, r2
10006e40:	40d0      	lsrs	r0, r2
10006e42:	4320      	orrs	r0, r4
10006e44:	bd10      	pop	{r4, pc}
10006e46:	0008      	movs	r0, r1
10006e48:	17c9      	asrs	r1, r1, #31
10006e4a:	3220      	adds	r2, #32
10006e4c:	d403      	bmi.n	10006e56 <d2fix_a+0x44>
10006e4e:	4252      	negs	r2, r2
10006e50:	3220      	adds	r2, #32
10006e52:	4110      	asrs	r0, r2
10006e54:	bd10      	pop	{r4, pc}
10006e56:	0018      	movs	r0, r3
10006e58:	0019      	movs	r1, r3
10006e5a:	bd10      	pop	{r4, pc}
10006e5c:	10006e13 	.word	0x10006e13

10006e60 <uint2double_shim>:
10006e60:	2100      	movs	r1, #0

10006e62 <ufix2double_shim>:
10006e62:	000a      	movs	r2, r1
10006e64:	2100      	movs	r1, #0
10006e66:	e004      	b.n	10006e72 <ufix642double_shim>

10006e68 <int2double_shim>:
10006e68:	2100      	movs	r1, #0

10006e6a <fix2double_shim>:
10006e6a:	000a      	movs	r2, r1
10006e6c:	17c1      	asrs	r1, r0, #31
10006e6e:	e004      	b.n	10006e7a <fix642double_shim>

10006e70 <uint642double_shim>:
10006e70:	2200      	movs	r2, #0

10006e72 <ufix642double_shim>:
10006e72:	2300      	movs	r3, #0
10006e74:	e006      	b.n	10006e84 <uf2d>
10006e76:	46c0      	nop			@ (mov r8, r8)

10006e78 <int642double_shim>:
10006e78:	2200      	movs	r2, #0

10006e7a <fix642double_shim>:
10006e7a:	17cb      	asrs	r3, r1, #31
10006e7c:	4058      	eors	r0, r3
10006e7e:	4059      	eors	r1, r3
10006e80:	1ac0      	subs	r0, r0, r3
10006e82:	4199      	sbcs	r1, r3

10006e84 <uf2d>:
10006e84:	b530      	push	{r4, r5, lr}
10006e86:	4c18      	ldr	r4, [pc, #96]	@ (10006ee8 <uf2d+0x64>)
10006e88:	1aa2      	subs	r2, r4, r2
10006e8a:	2900      	cmp	r1, #0
10006e8c:	d103      	bne.n	10006e96 <uf2d+0x12>
10006e8e:	0001      	movs	r1, r0
10006e90:	d010      	beq.n	10006eb4 <uf2d+0x30>
10006e92:	2000      	movs	r0, #0
10006e94:	3a20      	subs	r2, #32
10006e96:	154c      	asrs	r4, r1, #21
10006e98:	d112      	bne.n	10006ec0 <uf2d+0x3c>
10006e9a:	d204      	bcs.n	10006ea6 <uf2d+0x22>
10006e9c:	3a01      	subs	r2, #1
10006e9e:	1800      	adds	r0, r0, r0
10006ea0:	4149      	adcs	r1, r1
10006ea2:	0d4c      	lsrs	r4, r1, #21
10006ea4:	d3fa      	bcc.n	10006e9c <uf2d+0x18>
10006ea6:	4c11      	ldr	r4, [pc, #68]	@ (10006eec <uf2d+0x68>)
10006ea8:	42a2      	cmp	r2, r4
10006eaa:	d204      	bcs.n	10006eb6 <uf2d+0x32>
10006eac:	0512      	lsls	r2, r2, #20
10006eae:	1889      	adds	r1, r1, r2
10006eb0:	07db      	lsls	r3, r3, #31
10006eb2:	18c9      	adds	r1, r1, r3
10006eb4:	bd30      	pop	{r4, r5, pc}
10006eb6:	43d2      	mvns	r2, r2
10006eb8:	0d52      	lsrs	r2, r2, #21
10006eba:	2000      	movs	r0, #0
10006ebc:	2100      	movs	r1, #0
10006ebe:	e7f5      	b.n	10006eac <uf2d+0x28>
10006ec0:	d403      	bmi.n	10006eca <uf2d+0x46>
10006ec2:	3a01      	subs	r2, #1
10006ec4:	1800      	adds	r0, r0, r0
10006ec6:	4149      	adcs	r1, r1
10006ec8:	d5fb      	bpl.n	10006ec2 <uf2d+0x3e>
10006eca:	320b      	adds	r2, #11
10006ecc:	0544      	lsls	r4, r0, #21
10006ece:	0ac0      	lsrs	r0, r0, #11
10006ed0:	054d      	lsls	r5, r1, #21
10006ed2:	4328      	orrs	r0, r5
10006ed4:	0ac9      	lsrs	r1, r1, #11
10006ed6:	0064      	lsls	r4, r4, #1
10006ed8:	d003      	beq.n	10006ee2 <uf2d+0x5e>
10006eda:	2400      	movs	r4, #0
10006edc:	4160      	adcs	r0, r4
10006ede:	4161      	adcs	r1, r4
10006ee0:	e7e1      	b.n	10006ea6 <uf2d+0x22>
10006ee2:	d3e0      	bcc.n	10006ea6 <uf2d+0x22>
10006ee4:	0844      	lsrs	r4, r0, #1
10006ee6:	e7f8      	b.n	10006eda <uf2d+0x56>
10006ee8:	00000432 	.word	0x00000432
10006eec:	000007fe 	.word	0x000007fe

10006ef0 <dunpacks>:
10006ef0:	0d0a      	lsrs	r2, r1, #20
10006ef2:	0fcc      	lsrs	r4, r1, #31
10006ef4:	1e53      	subs	r3, r2, #1
10006ef6:	051b      	lsls	r3, r3, #20
10006ef8:	1ac9      	subs	r1, r1, r3
10006efa:	0552      	lsls	r2, r2, #21
10006efc:	d303      	bcc.n	10006f06 <l60_1>
10006efe:	43c9      	mvns	r1, r1
10006f00:	4240      	negs	r0, r0
10006f02:	d300      	bcc.n	10006f06 <l60_1>
10006f04:	3101      	adds	r1, #1

10006f06 <l60_1>:
10006f06:	0d52      	lsrs	r2, r2, #21
10006f08:	d003      	beq.n	10006f12 <l60_2>
10006f0a:	1c53      	adds	r3, r2, #1
10006f0c:	0adb      	lsrs	r3, r3, #11
10006f0e:	d007      	beq.n	10006f20 <l60_3>
10006f10:	1b12      	subs	r2, r2, r4

10006f12 <l60_2>:
10006f12:	2000      	movs	r0, #0
10006f14:	0064      	lsls	r4, r4, #1
10006f16:	1c61      	adds	r1, r4, #1
10006f18:	0789      	lsls	r1, r1, #30
10006f1a:	1289      	asrs	r1, r1, #10
10006f1c:	3a80      	subs	r2, #128	@ 0x80
10006f1e:	0312      	lsls	r2, r2, #12

10006f20 <l60_3>:
10006f20:	4b01      	ldr	r3, [pc, #4]	@ (10006f28 <l60_3+0x8>)
10006f22:	1ad2      	subs	r2, r2, r3
10006f24:	4770      	bx	lr
10006f26:	0000      	.short	0x0000
10006f28:	000003ff 	.word	0x000003ff

10006f2c <dreduce>:
10006f2c:	3202      	adds	r2, #2
10006f2e:	d425      	bmi.n	10006f7c <dreduce+0x50>
10006f30:	2a0c      	cmp	r2, #12
10006f32:	da1c      	bge.n	10006f6e <dreduce+0x42>
10006f34:	2511      	movs	r5, #17
10006f36:	1aad      	subs	r5, r5, r2
10006f38:	000b      	movs	r3, r1
10006f3a:	412b      	asrs	r3, r5
10006f3c:	3208      	adds	r2, #8
10006f3e:	3507      	adds	r5, #7
10006f40:	0006      	movs	r6, r0
10006f42:	40ee      	lsrs	r6, r5
10006f44:	4090      	lsls	r0, r2
10006f46:	4091      	lsls	r1, r2
10006f48:	4331      	orrs	r1, r6
10006f4a:	ccf0      	ldmia	r4, {r4, r5, r6, r7}
10006f4c:	4363      	muls	r3, r4
10006f4e:	151a      	asrs	r2, r3, #20
10006f50:	2300      	movs	r3, #0
10006f52:	415a      	adcs	r2, r3
10006f54:	4355      	muls	r5, r2
10006f56:	4356      	muls	r6, r2
10006f58:	4357      	muls	r7, r2
10006f5a:	02bf      	lsls	r7, r7, #10
10006f5c:	12f4      	asrs	r4, r6, #11
10006f5e:	0576      	lsls	r6, r6, #21
10006f60:	1976      	adds	r6, r6, r5
10006f62:	4167      	adcs	r7, r4
10006f64:	17ed      	asrs	r5, r5, #31
10006f66:	197f      	adds	r7, r7, r5
10006f68:	1b80      	subs	r0, r0, r6
10006f6a:	41b9      	sbcs	r1, r7
10006f6c:	4770      	bx	lr
10006f6e:	220c      	movs	r2, #12
10006f70:	2000      	movs	r0, #0
10006f72:	17c9      	asrs	r1, r1, #31
10006f74:	0049      	lsls	r1, r1, #1
10006f76:	3101      	adds	r1, #1
10006f78:	0509      	lsls	r1, r1, #20
10006f7a:	e7db      	b.n	10006f34 <dreduce+0x8>
10006f7c:	0209      	lsls	r1, r1, #8
10006f7e:	0e03      	lsrs	r3, r0, #24
10006f80:	4319      	orrs	r1, r3
10006f82:	0200      	lsls	r0, r0, #8
10006f84:	4253      	negs	r3, r2
10006f86:	3220      	adds	r2, #32
10006f88:	d408      	bmi.n	10006f9c <dreduce+0x70>
10006f8a:	000c      	movs	r4, r1
10006f8c:	4119      	asrs	r1, r3
10006f8e:	4094      	lsls	r4, r2
10006f90:	40d8      	lsrs	r0, r3
10006f92:	4320      	orrs	r0, r4
10006f94:	2200      	movs	r2, #0
10006f96:	4150      	adcs	r0, r2
10006f98:	4151      	adcs	r1, r2
10006f9a:	4770      	bx	lr
10006f9c:	0008      	movs	r0, r1
10006f9e:	17c9      	asrs	r1, r1, #31
10006fa0:	3b20      	subs	r3, #32
10006fa2:	3220      	adds	r2, #32
10006fa4:	d5f1      	bpl.n	10006f8a <dreduce+0x5e>
10006fa6:	2000      	movs	r0, #0
10006fa8:	2100      	movs	r1, #0
10006faa:	2200      	movs	r2, #0
10006fac:	4770      	bx	lr
	...

10006fb0 <dsincos_internal>:
10006fb0:	b500      	push	{lr}
10006fb2:	f7ff ff9d 	bl	10006ef0 <dunpacks>
10006fb6:	a430      	add	r4, pc, #192	@ (adr r4, 10007078 <dreddata0>)
10006fb8:	f7ff ffb8 	bl	10006f2c <dreduce>
10006fbc:	2400      	movs	r4, #0
10006fbe:	4d2c      	ldr	r5, [pc, #176]	@ (10007070 <l73_1+0x20>)
10006fc0:	4e2c      	ldr	r6, [pc, #176]	@ (10007074 <l73_1+0x24>)
10006fc2:	07d2      	lsls	r2, r2, #31
10006fc4:	d302      	bcc.n	10006fcc <dsincos_internal+0x1c>
10006fc6:	43f6      	mvns	r6, r6
10006fc8:	426d      	negs	r5, r5
10006fca:	4166      	adcs	r6, r4
10006fcc:	0052      	lsls	r2, r2, #1
10006fce:	d204      	bcs.n	10006fda <dsincos_internal+0x2a>
10006fd0:	46a2      	mov	sl, r4
10006fd2:	46a3      	mov	fp, r4
10006fd4:	46a8      	mov	r8, r5
10006fd6:	46b1      	mov	r9, r6
10006fd8:	e003      	b.n	10006fe2 <dsincos_internal+0x32>
10006fda:	46a0      	mov	r8, r4
10006fdc:	46a1      	mov	r9, r4
10006fde:	46aa      	mov	sl, r5
10006fe0:	46b3      	mov	fp, r6
10006fe2:	a46e      	add	r4, pc, #440	@ (adr r4, 1000719c <dtab_cc>)
10006fe4:	46a4      	mov	ip, r4
10006fe6:	2701      	movs	r7, #1
10006fe8:	261f      	movs	r6, #31
10006fea:	f7ff feb2 	bl	10006d52 <dcordic_rot_step>
10006fee:	3701      	adds	r7, #1
10006ff0:	3e01      	subs	r6, #1
10006ff2:	2f21      	cmp	r7, #33	@ 0x21
10006ff4:	d1f9      	bne.n	10006fea <dsincos_internal+0x3a>
10006ff6:	bd00      	pop	{pc}

10006ff8 <dcos_finish>:
10006ff8:	4659      	mov	r1, fp
10006ffa:	b284      	uxth	r4, r0
10006ffc:	b28d      	uxth	r5, r1
10006ffe:	436c      	muls	r4, r5
10007000:	1406      	asrs	r6, r0, #16
10007002:	4375      	muls	r5, r6
10007004:	140b      	asrs	r3, r1, #16
10007006:	435e      	muls	r6, r3
10007008:	b282      	uxth	r2, r0
1000700a:	435a      	muls	r2, r3
1000700c:	18ad      	adds	r5, r5, r2
1000700e:	17ea      	asrs	r2, r5, #31
10007010:	d700      	bvc.n	10007014 <l72_1>
10007012:	43d2      	mvns	r2, r2

10007014 <l72_1>:
10007014:	0412      	lsls	r2, r2, #16
10007016:	18b6      	adds	r6, r6, r2
10007018:	042a      	lsls	r2, r5, #16
1000701a:	0c2b      	lsrs	r3, r5, #16
1000701c:	1912      	adds	r2, r2, r4
1000701e:	4173      	adcs	r3, r6
10007020:	4640      	mov	r0, r8
10007022:	4649      	mov	r1, r9
10007024:	009d      	lsls	r5, r3, #2
10007026:	179b      	asrs	r3, r3, #30
10007028:	0f92      	lsrs	r2, r2, #30
1000702a:	432a      	orrs	r2, r5
1000702c:	4190      	sbcs	r0, r2
1000702e:	4199      	sbcs	r1, r3
10007030:	223e      	movs	r2, #62	@ 0x3e
10007032:	e722      	b.n	10006e7a <fix642double_shim>

10007034 <dsin_finish>:
10007034:	4649      	mov	r1, r9
10007036:	b284      	uxth	r4, r0
10007038:	b28d      	uxth	r5, r1
1000703a:	436c      	muls	r4, r5
1000703c:	1406      	asrs	r6, r0, #16
1000703e:	4375      	muls	r5, r6
10007040:	140b      	asrs	r3, r1, #16
10007042:	435e      	muls	r6, r3
10007044:	b282      	uxth	r2, r0
10007046:	435a      	muls	r2, r3
10007048:	18ad      	adds	r5, r5, r2
1000704a:	17ea      	asrs	r2, r5, #31
1000704c:	d700      	bvc.n	10007050 <l73_1>
1000704e:	43d2      	mvns	r2, r2

10007050 <l73_1>:
10007050:	0412      	lsls	r2, r2, #16
10007052:	18b6      	adds	r6, r6, r2
10007054:	042a      	lsls	r2, r5, #16
10007056:	0c2b      	lsrs	r3, r5, #16
10007058:	1912      	adds	r2, r2, r4
1000705a:	4173      	adcs	r3, r6
1000705c:	4650      	mov	r0, sl
1000705e:	4659      	mov	r1, fp
10007060:	009d      	lsls	r5, r3, #2
10007062:	179b      	asrs	r3, r3, #30
10007064:	0f92      	lsrs	r2, r2, #30
10007066:	432a      	orrs	r2, r5
10007068:	4150      	adcs	r0, r2
1000706a:	4159      	adcs	r1, r3
1000706c:	223e      	movs	r2, #62	@ 0x3e
1000706e:	e704      	b.n	10006e7a <fix642double_shim>
10007070:	9df04dbb 	.word	0x9df04dbb
10007074:	36f656c5 	.word	0x36f656c5

10007078 <dreddata0>:
10007078:	0000517d 	.word	0x0000517d
1000707c:	0014611a 	.word	0x0014611a
10007080:	000a8885 	.word	0x000a8885
10007084:	001921fb 	.word	0x001921fb

10007088 <datan2_shim>:
10007088:	b5f0      	push	{r4, r5, r6, r7, lr}
1000708a:	f7ff fac1 	bl	10006610 <push_r8_r11>
1000708e:	4d40      	ldr	r5, [pc, #256]	@ (10007190 <datan2_shim+0x108>)
10007090:	000c      	movs	r4, r1
10007092:	402c      	ands	r4, r5
10007094:	d001      	beq.n	1000709a <datan2_shim+0x12>
10007096:	42ac      	cmp	r4, r5
10007098:	d102      	bne.n	100070a0 <datan2_shim+0x18>
1000709a:	0d09      	lsrs	r1, r1, #20
1000709c:	0509      	lsls	r1, r1, #20
1000709e:	2000      	movs	r0, #0
100070a0:	001c      	movs	r4, r3
100070a2:	402c      	ands	r4, r5
100070a4:	d001      	beq.n	100070aa <datan2_shim+0x22>
100070a6:	42ac      	cmp	r4, r5
100070a8:	d102      	bne.n	100070b0 <datan2_shim+0x28>
100070aa:	0d1b      	lsrs	r3, r3, #20
100070ac:	051b      	lsls	r3, r3, #20
100070ae:	2200      	movs	r2, #0
100070b0:	2600      	movs	r6, #0
100070b2:	02ed      	lsls	r5, r5, #11
100070b4:	2b00      	cmp	r3, #0
100070b6:	d504      	bpl.n	100070c2 <datan2_shim+0x3a>
100070b8:	2602      	movs	r6, #2
100070ba:	406b      	eors	r3, r5
100070bc:	4069      	eors	r1, r5
100070be:	d400      	bmi.n	100070c2 <datan2_shim+0x3a>
100070c0:	4276      	negs	r6, r6
100070c2:	194f      	adds	r7, r1, r5
100070c4:	d504      	bpl.n	100070d0 <datan2_shim+0x48>
100070c6:	4299      	cmp	r1, r3
100070c8:	dd0c      	ble.n	100070e4 <datan2_shim+0x5c>
100070ca:	3601      	adds	r6, #1
100070cc:	4069      	eors	r1, r5
100070ce:	e003      	b.n	100070d8 <datan2_shim+0x50>
100070d0:	42bb      	cmp	r3, r7
100070d2:	da07      	bge.n	100070e4 <datan2_shim+0x5c>
100070d4:	3e01      	subs	r6, #1
100070d6:	406b      	eors	r3, r5
100070d8:	0007      	movs	r7, r0
100070da:	0010      	movs	r0, r2
100070dc:	003a      	movs	r2, r7
100070de:	000f      	movs	r7, r1
100070e0:	0019      	movs	r1, r3
100070e2:	003b      	movs	r3, r7
100070e4:	b440      	push	{r6}
100070e6:	2a00      	cmp	r2, #0
100070e8:	d10f      	bne.n	1000710a <datan2_shim+0x82>
100070ea:	2b00      	cmp	r3, #0
100070ec:	d00a      	beq.n	10007104 <datan2_shim+0x7c>
100070ee:	005c      	lsls	r4, r3, #1
100070f0:	1564      	asrs	r4, r4, #21
100070f2:	3401      	adds	r4, #1
100070f4:	d109      	bne.n	1000710a <datan2_shim+0x82>
100070f6:	004c      	lsls	r4, r1, #1
100070f8:	1564      	asrs	r4, r4, #21
100070fa:	3401      	adds	r4, #1
100070fc:	d102      	bne.n	10007104 <datan2_shim+0x7c>
100070fe:	3901      	subs	r1, #1
10007100:	3b01      	subs	r3, #1
10007102:	e002      	b.n	1000710a <datan2_shim+0x82>
10007104:	2000      	movs	r0, #0
10007106:	2100      	movs	r1, #0
10007108:	e02e      	b.n	10007168 <datan2_shim+0xe0>
1000710a:	f7ff fd43 	bl	10006b94 <ddiv_shim>
1000710e:	223e      	movs	r2, #62	@ 0x3e
10007110:	f7ff fe62 	bl	10006dd8 <double2fix64_shim>
10007114:	4682      	mov	sl, r0
10007116:	468b      	mov	fp, r1
10007118:	2000      	movs	r0, #0
1000711a:	2100      	movs	r1, #0
1000711c:	4680      	mov	r8, r0
1000711e:	2201      	movs	r2, #1
10007120:	0792      	lsls	r2, r2, #30
10007122:	4691      	mov	r9, r2
10007124:	a41d      	add	r4, pc, #116	@ (adr r4, 1000719c <dtab_cc>)
10007126:	46a4      	mov	ip, r4
10007128:	2701      	movs	r7, #1
1000712a:	261f      	movs	r6, #31
1000712c:	f7ff fe0a 	bl	10006d44 <dcordic_vec_step>
10007130:	3701      	adds	r7, #1
10007132:	3e01      	subs	r6, #1
10007134:	2f21      	cmp	r7, #33	@ 0x21
10007136:	d1f9      	bne.n	1000712c <datan2_shim+0xa4>
10007138:	464a      	mov	r2, r9
1000713a:	4653      	mov	r3, sl
1000713c:	3a0c      	subs	r2, #12
1000713e:	2401      	movs	r4, #1
10007140:	0764      	lsls	r4, r4, #29
10007142:	2700      	movs	r7, #0
10007144:	0852      	lsrs	r2, r2, #1
10007146:	001b      	movs	r3, r3
10007148:	d405      	bmi.n	10007156 <datan2_shim+0xce>
1000714a:	4193      	sbcs	r3, r2
1000714c:	1900      	adds	r0, r0, r4
1000714e:	4179      	adcs	r1, r7
10007150:	0864      	lsrs	r4, r4, #1
10007152:	d1f7      	bne.n	10007144 <datan2_shim+0xbc>
10007154:	e004      	b.n	10007160 <datan2_shim+0xd8>
10007156:	4153      	adcs	r3, r2
10007158:	1b00      	subs	r0, r0, r4
1000715a:	41b9      	sbcs	r1, r7
1000715c:	0864      	lsrs	r4, r4, #1
1000715e:	d1f1      	bne.n	10007144 <datan2_shim+0xbc>
10007160:	07ce      	lsls	r6, r1, #31
10007162:	1049      	asrs	r1, r1, #1
10007164:	0840      	lsrs	r0, r0, #1
10007166:	4330      	orrs	r0, r6
10007168:	bc40      	pop	{r6}
1000716a:	2e00      	cmp	r6, #0
1000716c:	d00a      	beq.n	10007184 <datan2_shim+0xfc>
1000716e:	4c09      	ldr	r4, [pc, #36]	@ (10007194 <datan2_shim+0x10c>)
10007170:	4d09      	ldr	r5, [pc, #36]	@ (10007198 <datan2_shim+0x110>)
10007172:	d501      	bpl.n	10007178 <datan2_shim+0xf0>
10007174:	43e4      	mvns	r4, r4
10007176:	43ed      	mvns	r5, r5
10007178:	07f6      	lsls	r6, r6, #31
1000717a:	d101      	bne.n	10007180 <datan2_shim+0xf8>
1000717c:	1900      	adds	r0, r0, r4
1000717e:	4169      	adcs	r1, r5
10007180:	1900      	adds	r0, r0, r4
10007182:	4169      	adcs	r1, r5
10007184:	223d      	movs	r2, #61	@ 0x3d
10007186:	f7ff fe78 	bl	10006e7a <fix642double_shim>
1000718a:	f7ff fa47 	bl	1000661c <pop_r8_r11>
1000718e:	bdf0      	pop	{r4, r5, r6, r7, pc}
10007190:	7ff00000 	.word	0x7ff00000
10007194:	885a308d 	.word	0x885a308d
10007198:	3243f6a8 	.word	0x3243f6a8

1000719c <dtab_cc>:
1000719c:	61bb4f69 	.word	0x61bb4f69
100071a0:	1dac6705 	.word	0x1dac6705
100071a4:	96406eb1 	.word	0x96406eb1
100071a8:	0fadbafc 	.word	0x0fadbafc
100071ac:	ab0bdb72 	.word	0xab0bdb72
100071b0:	07f56ea6 	.word	0x07f56ea6
100071b4:	e59fbd39 	.word	0xe59fbd39
100071b8:	03feab76 	.word	0x03feab76
100071bc:	ba97624b 	.word	0xba97624b
100071c0:	01ffd55b 	.word	0x01ffd55b
100071c4:	dddb94d6 	.word	0xdddb94d6
100071c8:	00fffaaa 	.word	0x00fffaaa
100071cc:	56eeea5d 	.word	0x56eeea5d
100071d0:	007fff55 	.word	0x007fff55
100071d4:	aab7776e 	.word	0xaab7776e
100071d8:	003fffea 	.word	0x003fffea
100071dc:	5555bbbc 	.word	0x5555bbbc
100071e0:	001ffffd 	.word	0x001ffffd
100071e4:	aaaaadde 	.word	0xaaaaadde
100071e8:	000fffff 	.word	0x000fffff
100071ec:	f555556f 	.word	0xf555556f
100071f0:	0007ffff 	.word	0x0007ffff
100071f4:	feaaaaab 	.word	0xfeaaaaab
100071f8:	0003ffff 	.word	0x0003ffff
100071fc:	ffd55555 	.word	0xffd55555
10007200:	0001ffff 	.word	0x0001ffff
10007204:	fffaaaab 	.word	0xfffaaaab
10007208:	0000ffff 	.word	0x0000ffff
1000720c:	ffff5555 	.word	0xffff5555
10007210:	00007fff 	.word	0x00007fff
10007214:	ffffeaab 	.word	0xffffeaab
10007218:	00003fff 	.word	0x00003fff
1000721c:	fffffd55 	.word	0xfffffd55
10007220:	00001fff 	.word	0x00001fff
10007224:	ffffffab 	.word	0xffffffab
10007228:	00000fff 	.word	0x00000fff
1000722c:	fffffff5 	.word	0xfffffff5
10007230:	000007ff 	.word	0x000007ff
10007234:	ffffffff 	.word	0xffffffff
10007238:	000003ff 	.word	0x000003ff
1000723c:	00000000 	.word	0x00000000
10007240:	00000200 	.word	0x00000200
10007244:	00000000 	.word	0x00000000
10007248:	00000100 	.word	0x00000100
1000724c:	00000000 	.word	0x00000000
10007250:	00000080 	.word	0x00000080
10007254:	00000000 	.word	0x00000000
10007258:	00000040 	.word	0x00000040
1000725c:	00000000 	.word	0x00000000
10007260:	00000020 	.word	0x00000020
10007264:	00000000 	.word	0x00000000
10007268:	00000010 	.word	0x00000010
1000726c:	00000000 	.word	0x00000000
10007270:	00000008 	.word	0x00000008
10007274:	00000000 	.word	0x00000000
10007278:	00000004 	.word	0x00000004
1000727c:	00000000 	.word	0x00000000
10007280:	00000002 	.word	0x00000002
10007284:	00000000 	.word	0x00000000
10007288:	00000001 	.word	0x00000001
1000728c:	80000000 	.word	0x80000000
10007290:	00000000 	.word	0x00000000
10007294:	40000000 	.word	0x40000000
10007298:	00000000 	.word	0x00000000

1000729c <__wrap___aeabi_lmul>:
1000729c:	4351      	muls	r1, r2
1000729e:	4343      	muls	r3, r0
100072a0:	18c9      	adds	r1, r1, r3
100072a2:	468c      	mov	ip, r1
100072a4:	0c11      	lsrs	r1, r2, #16
100072a6:	b283      	uxth	r3, r0
100072a8:	434b      	muls	r3, r1
100072aa:	b410      	push	{r4}
100072ac:	0c04      	lsrs	r4, r0, #16
100072ae:	4361      	muls	r1, r4
100072b0:	b292      	uxth	r2, r2
100072b2:	b280      	uxth	r0, r0
100072b4:	4350      	muls	r0, r2
100072b6:	4362      	muls	r2, r4
100072b8:	041c      	lsls	r4, r3, #16
100072ba:	0c1b      	lsrs	r3, r3, #16
100072bc:	1900      	adds	r0, r0, r4
100072be:	bc10      	pop	{r4}
100072c0:	4159      	adcs	r1, r3
100072c2:	0413      	lsls	r3, r2, #16
100072c4:	0c12      	lsrs	r2, r2, #16
100072c6:	18c0      	adds	r0, r0, r3
100072c8:	4151      	adcs	r1, r2
100072ca:	4461      	add	r1, ip
100072cc:	4770      	bx	lr
	...

100072d0 <__wrap___aeabi_frsub>:
100072d0:	4048      	eors	r0, r1
100072d2:	4041      	eors	r1, r0
100072d4:	4048      	eors	r0, r1

100072d6 <__wrap___aeabi_fsub>:
100072d6:	4b0e      	ldr	r3, [pc, #56]	@ (10007310 <__wrap___aeabi_fmul+0x6>)
100072d8:	685b      	ldr	r3, [r3, #4]
100072da:	4718      	bx	r3

100072dc <__wrap___aeabi_fadd>:
100072dc:	4b0c      	ldr	r3, [pc, #48]	@ (10007310 <__wrap___aeabi_fmul+0x6>)
100072de:	681b      	ldr	r3, [r3, #0]
100072e0:	4718      	bx	r3

100072e2 <__wrap___aeabi_fdiv>:
100072e2:	4a0c      	ldr	r2, [pc, #48]	@ (10007314 <__wrap___aeabi_fmul+0xa>)
100072e4:	6f93      	ldr	r3, [r2, #120]	@ 0x78
100072e6:	089b      	lsrs	r3, r3, #2
100072e8:	d202      	bcs.n	100072f0 <fdiv_save_state>

100072ea <fdiv_shim_call>:
100072ea:	4b09      	ldr	r3, [pc, #36]	@ (10007310 <__wrap___aeabi_fmul+0x6>)
100072ec:	68db      	ldr	r3, [r3, #12]
100072ee:	4718      	bx	r3

100072f0 <fdiv_save_state>:
100072f0:	b5f0      	push	{r4, r5, r6, r7, lr}
100072f2:	6e14      	ldr	r4, [r2, #96]	@ 0x60
100072f4:	6e55      	ldr	r5, [r2, #100]	@ 0x64
100072f6:	6f57      	ldr	r7, [r2, #116]	@ 0x74
100072f8:	6f16      	ldr	r6, [r2, #112]	@ 0x70
100072fa:	f7ff fff6 	bl	100072ea <fdiv_shim_call>
100072fe:	4a05      	ldr	r2, [pc, #20]	@ (10007314 <__wrap___aeabi_fmul+0xa>)
10007300:	6614      	str	r4, [r2, #96]	@ 0x60
10007302:	6655      	str	r5, [r2, #100]	@ 0x64
10007304:	6757      	str	r7, [r2, #116]	@ 0x74
10007306:	6716      	str	r6, [r2, #112]	@ 0x70
10007308:	bdf0      	pop	{r4, r5, r6, r7, pc}

1000730a <__wrap___aeabi_fmul>:
1000730a:	4b01      	ldr	r3, [pc, #4]	@ (10007310 <__wrap___aeabi_fmul+0x6>)
1000730c:	689b      	ldr	r3, [r3, #8]
1000730e:	4718      	bx	r3
10007310:	200004c8 	.word	0x200004c8
10007314:	d0000000 	.word	0xd0000000

10007318 <__wrap___aeabi_i2f>:
10007318:	0fc1      	lsrs	r1, r0, #31
1000731a:	07c9      	lsls	r1, r1, #31
1000731c:	d500      	bpl.n	10007320 <__wrap___aeabi_i2f+0x8>
1000731e:	4240      	negs	r0, r0
10007320:	2800      	cmp	r0, #0
10007322:	d017      	beq.n	10007354 <__aeabi_i2f_main+0x30>

10007324 <__aeabi_i2f_main>:
10007324:	46f4      	mov	ip, lr
10007326:	b403      	push	{r0, r1}
10007328:	4b0b      	ldr	r3, [pc, #44]	@ (10007358 <__aeabi_i2f_main+0x34>)
1000732a:	681b      	ldr	r3, [r3, #0]
1000732c:	4798      	blx	r3
1000732e:	bc06      	pop	{r1, r2}
10007330:	4081      	lsls	r1, r0
10007332:	389e      	subs	r0, #158	@ 0x9e
10007334:	4240      	negs	r0, r0
10007336:	3180      	adds	r1, #128	@ 0x80
10007338:	d207      	bcs.n	1000734a <__aeabi_i2f_main+0x26>
1000733a:	060b      	lsls	r3, r1, #24
1000733c:	d007      	beq.n	1000734e <__aeabi_i2f_main+0x2a>
1000733e:	0049      	lsls	r1, r1, #1
10007340:	0a49      	lsrs	r1, r1, #9
10007342:	05c0      	lsls	r0, r0, #23
10007344:	4310      	orrs	r0, r2
10007346:	4308      	orrs	r0, r1
10007348:	4760      	bx	ip
1000734a:	3001      	adds	r0, #1
1000734c:	e7f8      	b.n	10007340 <__aeabi_i2f_main+0x1c>
1000734e:	0a49      	lsrs	r1, r1, #9
10007350:	0289      	lsls	r1, r1, #10
10007352:	e7f5      	b.n	10007340 <__aeabi_i2f_main+0x1c>
10007354:	4770      	bx	lr
10007356:	0000      	.short	0x0000
10007358:	200008c4 	.word	0x200008c4

1000735c <__wrap___aeabi_f2iz>:
1000735c:	0041      	lsls	r1, r0, #1
1000735e:	0e0a      	lsrs	r2, r1, #24
10007360:	2380      	movs	r3, #128	@ 0x80
10007362:	061b      	lsls	r3, r3, #24
10007364:	2a7e      	cmp	r2, #126	@ 0x7e
10007366:	dd0b      	ble.n	10007380 <__wrap___aeabi_f2iz+0x24>
10007368:	3a9e      	subs	r2, #158	@ 0x9e
1000736a:	da0b      	bge.n	10007384 <__wrap___aeabi_f2iz+0x28>
1000736c:	17c1      	asrs	r1, r0, #31
1000736e:	0240      	lsls	r0, r0, #9
10007370:	0840      	lsrs	r0, r0, #1
10007372:	4318      	orrs	r0, r3
10007374:	4252      	negs	r2, r2
10007376:	40d0      	lsrs	r0, r2
10007378:	0049      	lsls	r1, r1, #1
1000737a:	3101      	adds	r1, #1
1000737c:	4348      	muls	r0, r1
1000737e:	4770      	bx	lr
10007380:	2000      	movs	r0, #0
10007382:	4770      	bx	lr
10007384:	0fc0      	lsrs	r0, r0, #31
10007386:	18c0      	adds	r0, r0, r3
10007388:	3801      	subs	r0, #1
1000738a:	4770      	bx	lr
1000738c:	42c0      	cmn	r0, r0
1000738e:	d30d      	bcc.n	100073ac <float2int>
10007390:	b500      	push	{lr}
10007392:	0040      	lsls	r0, r0, #1
10007394:	0840      	lsrs	r0, r0, #1
10007396:	2100      	movs	r1, #0
10007398:	f000 f812 	bl	100073c0 <__wrap___aeabi_f2uiz>
1000739c:	2800      	cmp	r0, #0
1000739e:	d401      	bmi.n	100073a4 <__wrap___aeabi_f2iz+0x48>
100073a0:	4240      	negs	r0, r0
100073a2:	bd00      	pop	{pc}
100073a4:	2080      	movs	r0, #128	@ 0x80
100073a6:	0600      	lsls	r0, r0, #24
100073a8:	bd00      	pop	{pc}
	...

100073ac <float2int>:
100073ac:	4b03      	ldr	r3, [pc, #12]	@ (100073bc <float2int+0x10>)
100073ae:	69db      	ldr	r3, [r3, #28]
100073b0:	46fc      	mov	ip, pc
100073b2:	4718      	bx	r3
100073b4:	7471df1c 	.word	0x7471df1c
100073b8:	00001000 	.word	0x00001000
100073bc:	200004c8 	.word	0x200004c8

100073c0 <__wrap___aeabi_f2uiz>:
100073c0:	4b01      	ldr	r3, [pc, #4]	@ (100073c8 <__wrap___aeabi_f2uiz+0x8>)
100073c2:	6a5b      	ldr	r3, [r3, #36]	@ 0x24
100073c4:	4718      	bx	r3
100073c6:	0000      	.short	0x0000
100073c8:	200004c8 	.word	0x200004c8

100073cc <__wrap___aeabi_f2d>:
100073cc:	4b03      	ldr	r3, [pc, #12]	@ (100073dc <__wrap___aeabi_f2d+0x10>)
100073ce:	6fdb      	ldr	r3, [r3, #124]	@ 0x7c
100073d0:	46fc      	mov	ip, pc
100073d2:	4718      	bx	r3
100073d4:	7489df7c 	.word	0x7489df7c
100073d8:	00001000 	.word	0x00001000
100073dc:	200004c8 	.word	0x200004c8

100073e0 <__aeabi_float_init>:
100073e0:	2313      	movs	r3, #19
100073e2:	b510      	push	{r4, lr}
100073e4:	4812      	ldr	r0, [pc, #72]	@ (10007430 <__aeabi_float_init+0x50>)
100073e6:	781c      	ldrb	r4, [r3, #0]
100073e8:	f7fe fe88 	bl	100060fc <rom_data_lookup>
100073ec:	0001      	movs	r1, r0
100073ee:	2c01      	cmp	r4, #1
100073f0:	d00a      	beq.n	10007408 <__aeabi_float_init+0x28>
100073f2:	dd03      	ble.n	100073fc <__aeabi_float_init+0x1c>
100073f4:	2280      	movs	r2, #128	@ 0x80
100073f6:	480f      	ldr	r0, [pc, #60]	@ (10007434 <__aeabi_float_init+0x54>)
100073f8:	f000 f866 	bl	100074c8 <__wrap___aeabi_memcpy>
100073fc:	480e      	ldr	r0, [pc, #56]	@ (10007438 <__aeabi_float_init+0x58>)
100073fe:	f7fe fe75 	bl	100060ec <rom_func_lookup>
10007402:	4b0e      	ldr	r3, [pc, #56]	@ (1000743c <__aeabi_float_init+0x5c>)
10007404:	6018      	str	r0, [r3, #0]
10007406:	bd10      	pop	{r4, pc}
10007408:	4c0a      	ldr	r4, [pc, #40]	@ (10007434 <__aeabi_float_init+0x54>)
1000740a:	2254      	movs	r2, #84	@ 0x54
1000740c:	0020      	movs	r0, r4
1000740e:	f000 f85b 	bl	100074c8 <__wrap___aeabi_memcpy>
10007412:	4b0b      	ldr	r3, [pc, #44]	@ (10007440 <__aeabi_float_init+0x60>)
10007414:	6563      	str	r3, [r4, #84]	@ 0x54
10007416:	65a3      	str	r3, [r4, #88]	@ 0x58
10007418:	65e3      	str	r3, [r4, #92]	@ 0x5c
1000741a:	6623      	str	r3, [r4, #96]	@ 0x60
1000741c:	6663      	str	r3, [r4, #100]	@ 0x64
1000741e:	66a3      	str	r3, [r4, #104]	@ 0x68
10007420:	66e3      	str	r3, [r4, #108]	@ 0x6c
10007422:	6723      	str	r3, [r4, #112]	@ 0x70
10007424:	6763      	str	r3, [r4, #116]	@ 0x74
10007426:	67a3      	str	r3, [r4, #120]	@ 0x78
10007428:	67e3      	str	r3, [r4, #124]	@ 0x7c
1000742a:	6223      	str	r3, [r4, #32]
1000742c:	61e3      	str	r3, [r4, #28]
1000742e:	e7e5      	b.n	100073fc <__aeabi_float_init+0x1c>
10007430:	00004653 	.word	0x00004653
10007434:	200004c8 	.word	0x200004c8
10007438:	0000334c 	.word	0x0000334c
1000743c:	200008c4 	.word	0x200008c4
10007440:	10007445 	.word	0x10007445

10007444 <float_table_shim_on_use_helper>:
10007444:	b507      	push	{r0, r1, r2, lr}
10007446:	4660      	mov	r0, ip
10007448:	8801      	ldrh	r1, [r0, #0]
1000744a:	0a0a      	lsrs	r2, r1, #8
1000744c:	3002      	adds	r0, #2
1000744e:	2adf      	cmp	r2, #223	@ 0xdf
10007450:	d1fa      	bne.n	10007448 <float_table_shim_on_use_helper+0x4>
10007452:	b2c9      	uxtb	r1, r1
10007454:	0882      	lsrs	r2, r0, #2
10007456:	d304      	bcc.n	10007462 <float_table_shim_on_use_helper+0x1e>
10007458:	8802      	ldrh	r2, [r0, #0]
1000745a:	8840      	ldrh	r0, [r0, #2]
1000745c:	0400      	lsls	r0, r0, #16
1000745e:	4310      	orrs	r0, r2
10007460:	e000      	b.n	10007464 <float_table_shim_on_use_helper+0x20>
10007462:	6800      	ldr	r0, [r0, #0]
10007464:	4a01      	ldr	r2, [pc, #4]	@ (1000746c <float_table_shim_on_use_helper+0x28>)
10007466:	5050      	str	r0, [r2, r1]
10007468:	9003      	str	r0, [sp, #12]
1000746a:	bd07      	pop	{r0, r1, r2, pc}
1000746c:	200004c8 	.word	0x200004c8

10007470 <float2int_shim>:
10007470:	2100      	movs	r1, #0

10007472 <float2fix_shim>:
10007472:	15c2      	asrs	r2, r0, #23
10007474:	3280      	adds	r2, #128	@ 0x80
10007476:	3280      	adds	r2, #128	@ 0x80
10007478:	d001      	beq.n	1000747e <float2fix_shim+0xc>
1000747a:	4a02      	ldr	r2, [pc, #8]	@ (10007484 <float2fix_shim+0x12>)
1000747c:	4710      	bx	r2
1000747e:	2000      	movs	r0, #0
10007480:	4770      	bx	lr
10007482:	0000      	.short	0x0000
10007484:	00002acd 	.word	0x00002acd

10007488 <float2double_shim>:
10007488:	0fc3      	lsrs	r3, r0, #31
1000748a:	07db      	lsls	r3, r3, #31
1000748c:	0041      	lsls	r1, r0, #1
1000748e:	0e0a      	lsrs	r2, r1, #24
10007490:	d007      	beq.n	100074a2 <float2double_shim+0x1a>
10007492:	2aff      	cmp	r2, #255	@ 0xff
10007494:	d008      	beq.n	100074a8 <float2double_shim+0x20>
10007496:	0909      	lsrs	r1, r1, #4
10007498:	4a05      	ldr	r2, [pc, #20]	@ (100074b0 <float2double_shim+0x28>)
1000749a:	1889      	adds	r1, r1, r2
1000749c:	4319      	orrs	r1, r3
1000749e:	0740      	lsls	r0, r0, #29
100074a0:	4770      	bx	lr
100074a2:	0019      	movs	r1, r3
100074a4:	2000      	movs	r0, #0
100074a6:	4770      	bx	lr
100074a8:	4902      	ldr	r1, [pc, #8]	@ (100074b4 <float2double_shim+0x2c>)
100074aa:	18c9      	adds	r1, r1, r3
100074ac:	e7fa      	b.n	100074a4 <float2double_shim+0x1c>
100074ae:	0000      	.short	0x0000
100074b0:	38000000 	.word	0x38000000
100074b4:	7ff00000 	.word	0x7ff00000

100074b8 <__aeabi_mem_init>:
100074b8:	4801      	ldr	r0, [pc, #4]	@ (100074c0 <__aeabi_mem_init+0x8>)
100074ba:	2104      	movs	r1, #4
100074bc:	4b01      	ldr	r3, [pc, #4]	@ (100074c4 <__aeabi_mem_init+0xc>)
100074be:	4718      	bx	r3
100074c0:	20000230 	.word	0x20000230
100074c4:	1000610d 	.word	0x1000610d

100074c8 <__wrap___aeabi_memcpy>:
100074c8:	4b01      	ldr	r3, [pc, #4]	@ (100074d0 <__wrap___aeabi_memcpy+0x8>)
100074ca:	685b      	ldr	r3, [r3, #4]
100074cc:	4718      	bx	r3
100074ce:	0000      	.short	0x0000
100074d0:	20000230 	.word	0x20000230

100074d4 <stdio_out_chars_crlf>:
100074d4:	b5f0      	push	{r4, r5, r6, r7, lr}
100074d6:	46c6      	mov	lr, r8
100074d8:	b500      	push	{lr}
100074da:	7d43      	ldrb	r3, [r0, #21]
100074dc:	0007      	movs	r7, r0
100074de:	000d      	movs	r5, r1
100074e0:	0016      	movs	r6, r2
100074e2:	2b00      	cmp	r3, #0
100074e4:	d038      	beq.n	10007558 <stdio_out_chars_crlf+0x84>
100074e6:	2a00      	cmp	r2, #0
100074e8:	dd2e      	ble.n	10007548 <stdio_out_chars_crlf+0x74>
100074ea:	2100      	movs	r1, #0
100074ec:	1e6a      	subs	r2, r5, #1
100074ee:	4690      	mov	r8, r2
100074f0:	5c6a      	ldrb	r2, [r5, r1]
100074f2:	7d03      	ldrb	r3, [r0, #20]
100074f4:	1c4c      	adds	r4, r1, #1
100074f6:	2000      	movs	r0, #0
100074f8:	2a0a      	cmp	r2, #10
100074fa:	d00c      	beq.n	10007516 <stdio_out_chars_crlf+0x42>
100074fc:	42a6      	cmp	r6, r4
100074fe:	d016      	beq.n	1000752e <stdio_out_chars_crlf+0x5a>
10007500:	4643      	mov	r3, r8
10007502:	5d1b      	ldrb	r3, [r3, r4]
10007504:	0021      	movs	r1, r4
10007506:	3b0d      	subs	r3, #13
10007508:	425a      	negs	r2, r3
1000750a:	4153      	adcs	r3, r2
1000750c:	5c6a      	ldrb	r2, [r5, r1]
1000750e:	b2db      	uxtb	r3, r3
10007510:	1c4c      	adds	r4, r1, #1
10007512:	2a0a      	cmp	r2, #10
10007514:	d1f2      	bne.n	100074fc <stdio_out_chars_crlf+0x28>
10007516:	2b00      	cmp	r3, #0
10007518:	d1f0      	bne.n	100074fc <stdio_out_chars_crlf+0x28>
1000751a:	4281      	cmp	r1, r0
1000751c:	dc17      	bgt.n	1000754e <stdio_out_chars_crlf+0x7a>
1000751e:	2102      	movs	r1, #2
10007520:	4810      	ldr	r0, [pc, #64]	@ (10007564 <stdio_out_chars_crlf+0x90>)
10007522:	683b      	ldr	r3, [r7, #0]
10007524:	4798      	blx	r3
10007526:	42a6      	cmp	r6, r4
10007528:	d007      	beq.n	1000753a <stdio_out_chars_crlf+0x66>
1000752a:	0020      	movs	r0, r4
1000752c:	e7e8      	b.n	10007500 <stdio_out_chars_crlf+0x2c>
1000752e:	4286      	cmp	r6, r0
10007530:	dd03      	ble.n	1000753a <stdio_out_chars_crlf+0x66>
10007532:	1a31      	subs	r1, r6, r0
10007534:	683b      	ldr	r3, [r7, #0]
10007536:	1828      	adds	r0, r5, r0
10007538:	4798      	blx	r3
1000753a:	19ad      	adds	r5, r5, r6
1000753c:	3d01      	subs	r5, #1
1000753e:	782b      	ldrb	r3, [r5, #0]
10007540:	3b0d      	subs	r3, #13
10007542:	425a      	negs	r2, r3
10007544:	4153      	adcs	r3, r2
10007546:	753b      	strb	r3, [r7, #20]
10007548:	bc80      	pop	{r7}
1000754a:	46b8      	mov	r8, r7
1000754c:	bdf0      	pop	{r4, r5, r6, r7, pc}
1000754e:	1a09      	subs	r1, r1, r0
10007550:	683b      	ldr	r3, [r7, #0]
10007552:	1828      	adds	r0, r5, r0
10007554:	4798      	blx	r3
10007556:	e7e2      	b.n	1000751e <stdio_out_chars_crlf+0x4a>
10007558:	6803      	ldr	r3, [r0, #0]
1000755a:	0011      	movs	r1, r2
1000755c:	0028      	movs	r0, r5
1000755e:	4798      	blx	r3
10007560:	e7f2      	b.n	10007548 <stdio_out_chars_crlf+0x74>
10007562:	46c0      	nop			@ (mov r8, r8)
10007564:	1000893c 	.word	0x1000893c

10007568 <__wrap_putchar>:
10007568:	b5f0      	push	{r4, r5, r6, r7, lr}
1000756a:	46ce      	mov	lr, r9
1000756c:	4647      	mov	r7, r8
1000756e:	b580      	push	{r7, lr}
10007570:	b083      	sub	sp, #12
10007572:	466b      	mov	r3, sp
10007574:	0006      	movs	r6, r0
10007576:	1ddd      	adds	r5, r3, #7
10007578:	7028      	strb	r0, [r5, #0]
1000757a:	f7fc fbfb 	bl	10003d74 <time_us_64>
1000757e:	2300      	movs	r3, #0
10007580:	4a1a      	ldr	r2, [pc, #104]	@ (100075ec <__wrap_putchar+0x84>)
10007582:	1812      	adds	r2, r2, r0
10007584:	414b      	adcs	r3, r1
10007586:	2180      	movs	r1, #128	@ 0x80
10007588:	0609      	lsls	r1, r1, #24
1000758a:	428b      	cmp	r3, r1
1000758c:	d302      	bcc.n	10007594 <__wrap_putchar+0x2c>
1000758e:	2201      	movs	r2, #1
10007590:	4b17      	ldr	r3, [pc, #92]	@ (100075f0 <__wrap_putchar+0x88>)
10007592:	4252      	negs	r2, r2
10007594:	4917      	ldr	r1, [pc, #92]	@ (100075f4 <__wrap_putchar+0x8c>)
10007596:	0008      	movs	r0, r1
10007598:	4688      	mov	r8, r1
1000759a:	f000 fd01 	bl	10007fa0 <__mutex_try_enter_block_until_veneer>
1000759e:	4b16      	ldr	r3, [pc, #88]	@ (100075f8 <__wrap_putchar+0x90>)
100075a0:	4681      	mov	r9, r0
100075a2:	681c      	ldr	r4, [r3, #0]
100075a4:	2c00      	cmp	r4, #0
100075a6:	d014      	beq.n	100075d2 <__wrap_putchar+0x6a>
100075a8:	4f14      	ldr	r7, [pc, #80]	@ (100075fc <__wrap_putchar+0x94>)
100075aa:	e002      	b.n	100075b2 <__wrap_putchar+0x4a>
100075ac:	6924      	ldr	r4, [r4, #16]
100075ae:	2c00      	cmp	r4, #0
100075b0:	d00f      	beq.n	100075d2 <__wrap_putchar+0x6a>
100075b2:	6823      	ldr	r3, [r4, #0]
100075b4:	2b00      	cmp	r3, #0
100075b6:	d0f9      	beq.n	100075ac <__wrap_putchar+0x44>
100075b8:	683b      	ldr	r3, [r7, #0]
100075ba:	2b00      	cmp	r3, #0
100075bc:	d001      	beq.n	100075c2 <__wrap_putchar+0x5a>
100075be:	42a3      	cmp	r3, r4
100075c0:	d1f4      	bne.n	100075ac <__wrap_putchar+0x44>
100075c2:	0020      	movs	r0, r4
100075c4:	2201      	movs	r2, #1
100075c6:	0029      	movs	r1, r5
100075c8:	f7ff ff84 	bl	100074d4 <stdio_out_chars_crlf>
100075cc:	6924      	ldr	r4, [r4, #16]
100075ce:	2c00      	cmp	r4, #0
100075d0:	d1ef      	bne.n	100075b2 <__wrap_putchar+0x4a>
100075d2:	464b      	mov	r3, r9
100075d4:	2b00      	cmp	r3, #0
100075d6:	d105      	bne.n	100075e4 <__wrap_putchar+0x7c>
100075d8:	0030      	movs	r0, r6
100075da:	b003      	add	sp, #12
100075dc:	bcc0      	pop	{r6, r7}
100075de:	46b9      	mov	r9, r7
100075e0:	46b0      	mov	r8, r6
100075e2:	bdf0      	pop	{r4, r5, r6, r7, pc}
100075e4:	4640      	mov	r0, r8
100075e6:	f000 fcc3 	bl	10007f70 <__mutex_exit_veneer>
100075ea:	e7f5      	b.n	100075d8 <__wrap_putchar+0x70>
100075ec:	000f4240 	.word	0x000f4240
100075f0:	7fffffff 	.word	0x7fffffff
100075f4:	20000270 	.word	0x20000270
100075f8:	20000650 	.word	0x20000650
100075fc:	20000654 	.word	0x20000654

10007600 <__wrap_puts>:
10007600:	b5f0      	push	{r4, r5, r6, r7, lr}
10007602:	46de      	mov	lr, fp
10007604:	4657      	mov	r7, sl
10007606:	464e      	mov	r6, r9
10007608:	4645      	mov	r5, r8
1000760a:	b5e0      	push	{r5, r6, r7, lr}
1000760c:	b085      	sub	sp, #20
1000760e:	0007      	movs	r7, r0
10007610:	f000 fc7c 	bl	10007f0c <strlen>
10007614:	0006      	movs	r6, r0
10007616:	f7fc fbad 	bl	10003d74 <time_us_64>
1000761a:	2300      	movs	r3, #0
1000761c:	4a2b      	ldr	r2, [pc, #172]	@ (100076cc <__wrap_puts+0xcc>)
1000761e:	1812      	adds	r2, r2, r0
10007620:	414b      	adcs	r3, r1
10007622:	2180      	movs	r1, #128	@ 0x80
10007624:	0609      	lsls	r1, r1, #24
10007626:	428b      	cmp	r3, r1
10007628:	d302      	bcc.n	10007630 <__wrap_puts+0x30>
1000762a:	2201      	movs	r2, #1
1000762c:	4b28      	ldr	r3, [pc, #160]	@ (100076d0 <__wrap_puts+0xd0>)
1000762e:	4252      	negs	r2, r2
10007630:	4928      	ldr	r1, [pc, #160]	@ (100076d4 <__wrap_puts+0xd4>)
10007632:	0008      	movs	r0, r1
10007634:	468b      	mov	fp, r1
10007636:	f000 fcb3 	bl	10007fa0 <__mutex_try_enter_block_until_veneer>
1000763a:	4b27      	ldr	r3, [pc, #156]	@ (100076d8 <__wrap_puts+0xd8>)
1000763c:	9001      	str	r0, [sp, #4]
1000763e:	681c      	ldr	r4, [r3, #0]
10007640:	469a      	mov	sl, r3
10007642:	2c00      	cmp	r4, #0
10007644:	d03b      	beq.n	100076be <__wrap_puts+0xbe>
10007646:	4b25      	ldr	r3, [pc, #148]	@ (100076dc <__wrap_puts+0xdc>)
10007648:	4698      	mov	r8, r3
1000764a:	ab02      	add	r3, sp, #8
1000764c:	1ddd      	adds	r5, r3, #7
1000764e:	230a      	movs	r3, #10
10007650:	4699      	mov	r9, r3
10007652:	e002      	b.n	1000765a <__wrap_puts+0x5a>
10007654:	6924      	ldr	r4, [r4, #16]
10007656:	2c00      	cmp	r4, #0
10007658:	d017      	beq.n	1000768a <__wrap_puts+0x8a>
1000765a:	6823      	ldr	r3, [r4, #0]
1000765c:	2b00      	cmp	r3, #0
1000765e:	d0f9      	beq.n	10007654 <__wrap_puts+0x54>
10007660:	4643      	mov	r3, r8
10007662:	681b      	ldr	r3, [r3, #0]
10007664:	2b00      	cmp	r3, #0
10007666:	d001      	beq.n	1000766c <__wrap_puts+0x6c>
10007668:	42a3      	cmp	r3, r4
1000766a:	d1f3      	bne.n	10007654 <__wrap_puts+0x54>
1000766c:	0020      	movs	r0, r4
1000766e:	0032      	movs	r2, r6
10007670:	0039      	movs	r1, r7
10007672:	f7ff ff2f 	bl	100074d4 <stdio_out_chars_crlf>
10007676:	464b      	mov	r3, r9
10007678:	0020      	movs	r0, r4
1000767a:	2201      	movs	r2, #1
1000767c:	0029      	movs	r1, r5
1000767e:	702b      	strb	r3, [r5, #0]
10007680:	f7ff ff28 	bl	100074d4 <stdio_out_chars_crlf>
10007684:	6924      	ldr	r4, [r4, #16]
10007686:	2c00      	cmp	r4, #0
10007688:	d1e7      	bne.n	1000765a <__wrap_puts+0x5a>
1000768a:	9b01      	ldr	r3, [sp, #4]
1000768c:	2b00      	cmp	r3, #0
1000768e:	d118      	bne.n	100076c2 <__wrap_puts+0xc2>
10007690:	4653      	mov	r3, sl
10007692:	681c      	ldr	r4, [r3, #0]
10007694:	2c00      	cmp	r4, #0
10007696:	d006      	beq.n	100076a6 <__wrap_puts+0xa6>
10007698:	6863      	ldr	r3, [r4, #4]
1000769a:	2b00      	cmp	r3, #0
1000769c:	d00b      	beq.n	100076b6 <__wrap_puts+0xb6>
1000769e:	4798      	blx	r3
100076a0:	6924      	ldr	r4, [r4, #16]
100076a2:	2c00      	cmp	r4, #0
100076a4:	d1f8      	bne.n	10007698 <__wrap_puts+0x98>
100076a6:	0030      	movs	r0, r6
100076a8:	b005      	add	sp, #20
100076aa:	bcf0      	pop	{r4, r5, r6, r7}
100076ac:	46bb      	mov	fp, r7
100076ae:	46b2      	mov	sl, r6
100076b0:	46a9      	mov	r9, r5
100076b2:	46a0      	mov	r8, r4
100076b4:	bdf0      	pop	{r4, r5, r6, r7, pc}
100076b6:	6924      	ldr	r4, [r4, #16]
100076b8:	2c00      	cmp	r4, #0
100076ba:	d1ed      	bne.n	10007698 <__wrap_puts+0x98>
100076bc:	e7f3      	b.n	100076a6 <__wrap_puts+0xa6>
100076be:	2800      	cmp	r0, #0
100076c0:	d0f1      	beq.n	100076a6 <__wrap_puts+0xa6>
100076c2:	4658      	mov	r0, fp
100076c4:	f000 fc54 	bl	10007f70 <__mutex_exit_veneer>
100076c8:	e7e2      	b.n	10007690 <__wrap_puts+0x90>
100076ca:	46c0      	nop			@ (mov r8, r8)
100076cc:	000f4240 	.word	0x000f4240
100076d0:	7fffffff 	.word	0x7fffffff
100076d4:	20000270 	.word	0x20000270
100076d8:	20000650 	.word	0x20000650
100076dc:	20000654 	.word	0x20000654

100076e0 <stdio_set_driver_enabled>:
100076e0:	4a0a      	ldr	r2, [pc, #40]	@ (1000770c <stdio_set_driver_enabled+0x2c>)
100076e2:	6813      	ldr	r3, [r2, #0]
100076e4:	2b00      	cmp	r3, #0
100076e6:	d105      	bne.n	100076f4 <stdio_set_driver_enabled+0x14>
100076e8:	e00c      	b.n	10007704 <stdio_set_driver_enabled+0x24>
100076ea:	001a      	movs	r2, r3
100076ec:	691b      	ldr	r3, [r3, #16]
100076ee:	3210      	adds	r2, #16
100076f0:	2b00      	cmp	r3, #0
100076f2:	d007      	beq.n	10007704 <stdio_set_driver_enabled+0x24>
100076f4:	4298      	cmp	r0, r3
100076f6:	d1f8      	bne.n	100076ea <stdio_set_driver_enabled+0xa>
100076f8:	2900      	cmp	r1, #0
100076fa:	d102      	bne.n	10007702 <stdio_set_driver_enabled+0x22>
100076fc:	6903      	ldr	r3, [r0, #16]
100076fe:	6013      	str	r3, [r2, #0]
10007700:	6101      	str	r1, [r0, #16]
10007702:	4770      	bx	lr
10007704:	2900      	cmp	r1, #0
10007706:	d0fc      	beq.n	10007702 <stdio_set_driver_enabled+0x22>
10007708:	6010      	str	r0, [r2, #0]
1000770a:	e7fa      	b.n	10007702 <stdio_set_driver_enabled+0x22>
1000770c:	20000650 	.word	0x20000650

10007710 <stdio_init_all>:
10007710:	b510      	push	{r4, lr}
10007712:	f000 f8cb 	bl	100078ac <stdio_uart_init>
10007716:	2001      	movs	r0, #1
10007718:	bd10      	pop	{r4, pc}
1000771a:	46c0      	nop			@ (mov r8, r8)

1000771c <stdio_uart_out_chars>:
1000771c:	b5f0      	push	{r4, r5, r6, r7, lr}
1000771e:	2900      	cmp	r1, #0
10007720:	dd15      	ble.n	1000774e <stdio_uart_out_chars+0x32>
10007722:	4b0e      	ldr	r3, [pc, #56]	@ (1000775c <stdio_uart_out_chars+0x40>)
10007724:	270d      	movs	r7, #13
10007726:	681a      	ldr	r2, [r3, #0]
10007728:	4b0d      	ldr	r3, [pc, #52]	@ (10007760 <stdio_uart_out_chars+0x44>)
1000772a:	4c0e      	ldr	r4, [pc, #56]	@ (10007764 <stdio_uart_out_chars+0x48>)
1000772c:	18d3      	adds	r3, r2, r3
1000772e:	425d      	negs	r5, r3
10007730:	416b      	adcs	r3, r5
10007732:	1845      	adds	r5, r0, r1
10007734:	2120      	movs	r1, #32
10007736:	005b      	lsls	r3, r3, #1
10007738:	5f1e      	ldrsh	r6, [r3, r4]
1000773a:	7804      	ldrb	r4, [r0, #0]
1000773c:	42a6      	cmp	r6, r4
1000773e:	d007      	beq.n	10007750 <stdio_uart_out_chars+0x34>
10007740:	6993      	ldr	r3, [r2, #24]
10007742:	4219      	tst	r1, r3
10007744:	d1fc      	bne.n	10007740 <stdio_uart_out_chars+0x24>
10007746:	3001      	adds	r0, #1
10007748:	6014      	str	r4, [r2, #0]
1000774a:	42a8      	cmp	r0, r5
1000774c:	d1f5      	bne.n	1000773a <stdio_uart_out_chars+0x1e>
1000774e:	bdf0      	pop	{r4, r5, r6, r7, pc}
10007750:	6993      	ldr	r3, [r2, #24]
10007752:	4219      	tst	r1, r3
10007754:	d1fc      	bne.n	10007750 <stdio_uart_out_chars+0x34>
10007756:	6017      	str	r7, [r2, #0]
10007758:	e7f2      	b.n	10007740 <stdio_uart_out_chars+0x24>
1000775a:	46c0      	nop			@ (mov r8, r8)
1000775c:	2000097c 	.word	0x2000097c
10007760:	bffc8000 	.word	0xbffc8000
10007764:	20000978 	.word	0x20000978

10007768 <stdio_uart_in_chars>:
10007768:	4b21      	ldr	r3, [pc, #132]	@ (100077f0 <stdio_uart_in_chars+0x88>)
1000776a:	b570      	push	{r4, r5, r6, lr}
1000776c:	0004      	movs	r4, r0
1000776e:	1e0d      	subs	r5, r1, #0
10007770:	681e      	ldr	r6, [r3, #0]
10007772:	dd2c      	ble.n	100077ce <stdio_uart_in_chars+0x66>
10007774:	2000      	movs	r0, #0
10007776:	2110      	movs	r1, #16
10007778:	4b1e      	ldr	r3, [pc, #120]	@ (100077f4 <stdio_uart_in_chars+0x8c>)
1000777a:	3c01      	subs	r4, #1
1000777c:	681a      	ldr	r2, [r3, #0]
1000777e:	6993      	ldr	r3, [r2, #24]
10007780:	4219      	tst	r1, r3
10007782:	d115      	bne.n	100077b0 <stdio_uart_in_chars+0x48>
10007784:	3001      	adds	r0, #1
10007786:	6993      	ldr	r3, [r2, #24]
10007788:	4219      	tst	r1, r3
1000778a:	d1fc      	bne.n	10007786 <stdio_uart_in_chars+0x1e>
1000778c:	6813      	ldr	r3, [r2, #0]
1000778e:	5423      	strb	r3, [r4, r0]
10007790:	4285      	cmp	r5, r0
10007792:	d1f4      	bne.n	1000777e <stdio_uart_in_chars+0x16>
10007794:	2e00      	cmp	r6, #0
10007796:	d009      	beq.n	100077ac <stdio_uart_in_chars+0x44>
10007798:	2350      	movs	r3, #80	@ 0x50
1000779a:	2138      	movs	r1, #56	@ 0x38
1000779c:	6393      	str	r3, [r2, #56]	@ 0x38
1000779e:	6b53      	ldr	r3, [r2, #52]	@ 0x34
100077a0:	3234      	adds	r2, #52	@ 0x34
100077a2:	4019      	ands	r1, r3
100077a4:	2380      	movs	r3, #128	@ 0x80
100077a6:	015b      	lsls	r3, r3, #5
100077a8:	4313      	orrs	r3, r2
100077aa:	6019      	str	r1, [r3, #0]
100077ac:	0028      	movs	r0, r5
100077ae:	e00d      	b.n	100077cc <stdio_uart_in_chars+0x64>
100077b0:	2e00      	cmp	r6, #0
100077b2:	d009      	beq.n	100077c8 <stdio_uart_in_chars+0x60>
100077b4:	2350      	movs	r3, #80	@ 0x50
100077b6:	2138      	movs	r1, #56	@ 0x38
100077b8:	6393      	str	r3, [r2, #56]	@ 0x38
100077ba:	6b53      	ldr	r3, [r2, #52]	@ 0x34
100077bc:	3234      	adds	r2, #52	@ 0x34
100077be:	4019      	ands	r1, r3
100077c0:	2380      	movs	r3, #128	@ 0x80
100077c2:	015b      	lsls	r3, r3, #5
100077c4:	431a      	orrs	r2, r3
100077c6:	6011      	str	r1, [r2, #0]
100077c8:	2800      	cmp	r0, #0
100077ca:	d00e      	beq.n	100077ea <stdio_uart_in_chars+0x82>
100077cc:	bd70      	pop	{r4, r5, r6, pc}
100077ce:	2e00      	cmp	r6, #0
100077d0:	d00b      	beq.n	100077ea <stdio_uart_in_chars+0x82>
100077d2:	2250      	movs	r2, #80	@ 0x50
100077d4:	2138      	movs	r1, #56	@ 0x38
100077d6:	4b07      	ldr	r3, [pc, #28]	@ (100077f4 <stdio_uart_in_chars+0x8c>)
100077d8:	681b      	ldr	r3, [r3, #0]
100077da:	639a      	str	r2, [r3, #56]	@ 0x38
100077dc:	6b5a      	ldr	r2, [r3, #52]	@ 0x34
100077de:	3334      	adds	r3, #52	@ 0x34
100077e0:	4011      	ands	r1, r2
100077e2:	2280      	movs	r2, #128	@ 0x80
100077e4:	0152      	lsls	r2, r2, #5
100077e6:	4313      	orrs	r3, r2
100077e8:	6019      	str	r1, [r3, #0]
100077ea:	2003      	movs	r0, #3
100077ec:	4240      	negs	r0, r0
100077ee:	e7ed      	b.n	100077cc <stdio_uart_in_chars+0x64>
100077f0:	20000600 	.word	0x20000600
100077f4:	2000097c 	.word	0x2000097c

100077f8 <on_uart_rx>:
100077f8:	4b06      	ldr	r3, [pc, #24]	@ (10007814 <on_uart_rx+0x1c>)
100077fa:	b510      	push	{r4, lr}
100077fc:	681b      	ldr	r3, [r3, #0]
100077fe:	2b00      	cmp	r3, #0
10007800:	d006      	beq.n	10007810 <on_uart_rx+0x18>
10007802:	2100      	movs	r1, #0
10007804:	4a04      	ldr	r2, [pc, #16]	@ (10007818 <on_uart_rx+0x20>)
10007806:	6812      	ldr	r2, [r2, #0]
10007808:	6391      	str	r1, [r2, #56]	@ 0x38
1000780a:	4a04      	ldr	r2, [pc, #16]	@ (1000781c <on_uart_rx+0x24>)
1000780c:	6810      	ldr	r0, [r2, #0]
1000780e:	4798      	blx	r3
10007810:	bd10      	pop	{r4, pc}
10007812:	46c0      	nop			@ (mov r8, r8)
10007814:	20000600 	.word	0x20000600
10007818:	2000097c 	.word	0x2000097c
1000781c:	20000604 	.word	0x20000604

10007820 <stdio_uart_set_chars_available_callback>:
10007820:	4b1d      	ldr	r3, [pc, #116]	@ (10007898 <stdio_uart_set_chars_available_callback+0x78>)
10007822:	b5f0      	push	{r4, r5, r6, r7, lr}
10007824:	681a      	ldr	r2, [r3, #0]
10007826:	46c6      	mov	lr, r8
10007828:	4698      	mov	r8, r3
1000782a:	4b1c      	ldr	r3, [pc, #112]	@ (1000789c <stdio_uart_set_chars_available_callback+0x7c>)
1000782c:	000e      	movs	r6, r1
1000782e:	18d3      	adds	r3, r2, r3
10007830:	4259      	negs	r1, r3
10007832:	414b      	adcs	r3, r1
10007834:	4f1a      	ldr	r7, [pc, #104]	@ (100078a0 <stdio_uart_set_chars_available_callback+0x80>)
10007836:	3314      	adds	r3, #20
10007838:	001c      	movs	r4, r3
1000783a:	0005      	movs	r5, r0
1000783c:	b500      	push	{lr}
1000783e:	683b      	ldr	r3, [r7, #0]
10007840:	2800      	cmp	r0, #0
10007842:	d007      	beq.n	10007854 <stdio_uart_set_chars_available_callback+0x34>
10007844:	2b00      	cmp	r3, #0
10007846:	d011      	beq.n	1000786c <stdio_uart_set_chars_available_callback+0x4c>
10007848:	4b16      	ldr	r3, [pc, #88]	@ (100078a4 <stdio_uart_set_chars_available_callback+0x84>)
1000784a:	603d      	str	r5, [r7, #0]
1000784c:	601e      	str	r6, [r3, #0]
1000784e:	bc80      	pop	{r7}
10007850:	46b8      	mov	r8, r7
10007852:	bdf0      	pop	{r4, r5, r6, r7, pc}
10007854:	2b00      	cmp	r3, #0
10007856:	d0f7      	beq.n	10007848 <stdio_uart_set_chars_available_callback+0x28>
10007858:	6390      	str	r0, [r2, #56]	@ 0x38
1000785a:	2100      	movs	r1, #0
1000785c:	0020      	movs	r0, r4
1000785e:	f7fb fd75 	bl	1000334c <irq_set_enabled>
10007862:	0020      	movs	r0, r4
10007864:	4910      	ldr	r1, [pc, #64]	@ (100078a8 <stdio_uart_set_chars_available_callback+0x88>)
10007866:	f7fb fdc1 	bl	100033ec <irq_remove_handler>
1000786a:	e7ed      	b.n	10007848 <stdio_uart_set_chars_available_callback+0x28>
1000786c:	0020      	movs	r0, r4
1000786e:	490e      	ldr	r1, [pc, #56]	@ (100078a8 <stdio_uart_set_chars_available_callback+0x88>)
10007870:	f7fb fd92 	bl	10003398 <irq_set_exclusive_handler>
10007874:	2101      	movs	r1, #1
10007876:	0020      	movs	r0, r4
10007878:	f7fb fd68 	bl	1000334c <irq_set_enabled>
1000787c:	4643      	mov	r3, r8
1000787e:	2250      	movs	r2, #80	@ 0x50
10007880:	2138      	movs	r1, #56	@ 0x38
10007882:	681b      	ldr	r3, [r3, #0]
10007884:	639a      	str	r2, [r3, #56]	@ 0x38
10007886:	6b5a      	ldr	r2, [r3, #52]	@ 0x34
10007888:	3334      	adds	r3, #52	@ 0x34
1000788a:	4011      	ands	r1, r2
1000788c:	2280      	movs	r2, #128	@ 0x80
1000788e:	0152      	lsls	r2, r2, #5
10007890:	4313      	orrs	r3, r2
10007892:	6019      	str	r1, [r3, #0]
10007894:	e7d8      	b.n	10007848 <stdio_uart_set_chars_available_callback+0x28>
10007896:	46c0      	nop			@ (mov r8, r8)
10007898:	2000097c 	.word	0x2000097c
1000789c:	bffc8000 	.word	0xbffc8000
100078a0:	20000600 	.word	0x20000600
100078a4:	20000604 	.word	0x20000604
100078a8:	100077f9 	.word	0x100077f9

100078ac <stdio_uart_init>:
100078ac:	4b0c      	ldr	r3, [pc, #48]	@ (100078e0 <stdio_uart_init+0x34>)
100078ae:	b510      	push	{r4, lr}
100078b0:	781b      	ldrb	r3, [r3, #0]
100078b2:	4b0c      	ldr	r3, [pc, #48]	@ (100078e4 <stdio_uart_init+0x38>)
100078b4:	4c0c      	ldr	r4, [pc, #48]	@ (100078e8 <stdio_uart_init+0x3c>)
100078b6:	781b      	ldrb	r3, [r3, #0]
100078b8:	4b0c      	ldr	r3, [pc, #48]	@ (100078ec <stdio_uart_init+0x40>)
100078ba:	2102      	movs	r1, #2
100078bc:	2000      	movs	r0, #0
100078be:	6023      	str	r3, [r4, #0]
100078c0:	f7fb fca2 	bl	10003208 <gpio_set_function>
100078c4:	2102      	movs	r1, #2
100078c6:	2001      	movs	r0, #1
100078c8:	f7fb fc9e 	bl	10003208 <gpio_set_function>
100078cc:	21e1      	movs	r1, #225	@ 0xe1
100078ce:	6820      	ldr	r0, [r4, #0]
100078d0:	0249      	lsls	r1, r1, #9
100078d2:	f7fc fd27 	bl	10004324 <uart_init>
100078d6:	2101      	movs	r1, #1
100078d8:	4805      	ldr	r0, [pc, #20]	@ (100078f0 <stdio_uart_init+0x44>)
100078da:	f7ff ff01 	bl	100076e0 <stdio_set_driver_enabled>
100078de:	bd10      	pop	{r4, pc}
100078e0:	100089dc 	.word	0x100089dc
100078e4:	100089d8 	.word	0x100089d8
100078e8:	2000097c 	.word	0x2000097c
100078ec:	40034000 	.word	0x40034000
100078f0:	20000240 	.word	0x20000240

100078f4 <boot_double_tap_check>:
100078f4:	b510      	push	{r4, lr}
100078f6:	4c11      	ldr	r4, [pc, #68]	@ (1000793c <boot_double_tap_check+0x48>)
100078f8:	4b11      	ldr	r3, [pc, #68]	@ (10007940 <boot_double_tap_check+0x4c>)
100078fa:	6822      	ldr	r2, [r4, #0]
100078fc:	429a      	cmp	r2, r3
100078fe:	d110      	bne.n	10007922 <boot_double_tap_check+0x2e>
10007900:	4b10      	ldr	r3, [pc, #64]	@ (10007944 <boot_double_tap_check+0x50>)
10007902:	6862      	ldr	r2, [r4, #4]
10007904:	429a      	cmp	r2, r3
10007906:	d10c      	bne.n	10007922 <boot_double_tap_check+0x2e>
10007908:	4b0f      	ldr	r3, [pc, #60]	@ (10007948 <boot_double_tap_check+0x54>)
1000790a:	68a2      	ldr	r2, [r4, #8]
1000790c:	429a      	cmp	r2, r3
1000790e:	d108      	bne.n	10007922 <boot_double_tap_check+0x2e>
10007910:	2300      	movs	r3, #0
10007912:	480e      	ldr	r0, [pc, #56]	@ (1000794c <boot_double_tap_check+0x58>)
10007914:	6023      	str	r3, [r4, #0]
10007916:	f7fe fbe9 	bl	100060ec <rom_func_lookup>
1000791a:	2100      	movs	r1, #0
1000791c:	0003      	movs	r3, r0
1000791e:	2000      	movs	r0, #0
10007920:	4798      	blx	r3
10007922:	4b07      	ldr	r3, [pc, #28]	@ (10007940 <boot_double_tap_check+0x4c>)
10007924:	2100      	movs	r1, #0
10007926:	6023      	str	r3, [r4, #0]
10007928:	4b06      	ldr	r3, [pc, #24]	@ (10007944 <boot_double_tap_check+0x50>)
1000792a:	4809      	ldr	r0, [pc, #36]	@ (10007950 <boot_double_tap_check+0x5c>)
1000792c:	6063      	str	r3, [r4, #4]
1000792e:	4b06      	ldr	r3, [pc, #24]	@ (10007948 <boot_double_tap_check+0x54>)
10007930:	60a3      	str	r3, [r4, #8]
10007932:	f7fc fa29 	bl	10003d88 <busy_wait_us>
10007936:	2300      	movs	r3, #0
10007938:	6023      	str	r3, [r4, #0]
1000793a:	bd10      	pop	{r4, pc}
1000793c:	20000290 	.word	0x20000290
10007940:	f01681de 	.word	0xf01681de
10007944:	bd729b29 	.word	0xbd729b29
10007948:	d359be7a 	.word	0xd359be7a
1000794c:	00004255 	.word	0x00004255
10007950:	00030d40 	.word	0x00030d40

10007954 <core1_trampoline>:
10007954:	bd03      	pop	{r0, r1, pc}
10007956:	46c0      	nop			@ (mov r8, r8)

10007958 <core1_wrapper>:
10007958:	b510      	push	{r4, lr}
1000795a:	0004      	movs	r4, r0
1000795c:	f7fb fe82 	bl	10003664 <irq_init_priorities>
10007960:	47a0      	blx	r4
10007962:	bd10      	pop	{r4, pc}

10007964 <multicore_reset_core1>:
10007964:	2280      	movs	r2, #128	@ 0x80
10007966:	4b05      	ldr	r3, [pc, #20]	@ (1000797c <multicore_reset_core1+0x18>)
10007968:	0252      	lsls	r2, r2, #9
1000796a:	4905      	ldr	r1, [pc, #20]	@ (10007980 <multicore_reset_core1+0x1c>)
1000796c:	601a      	str	r2, [r3, #0]
1000796e:	680b      	ldr	r3, [r1, #0]
10007970:	4213      	tst	r3, r2
10007972:	d0fc      	beq.n	1000796e <multicore_reset_core1+0xa>
10007974:	4b03      	ldr	r3, [pc, #12]	@ (10007984 <multicore_reset_core1+0x20>)
10007976:	601a      	str	r2, [r3, #0]
10007978:	4770      	bx	lr
1000797a:	46c0      	nop			@ (mov r8, r8)
1000797c:	40012004 	.word	0x40012004
10007980:	40010004 	.word	0x40010004
10007984:	40013004 	.word	0x40013004

10007988 <multicore_launch_core1_raw>:
10007988:	b5f0      	push	{r4, r5, r6, r7, lr}
1000798a:	0004      	movs	r4, r0
1000798c:	b087      	sub	sp, #28
1000798e:	200f      	movs	r0, #15
10007990:	000e      	movs	r6, r1
10007992:	0017      	movs	r7, r2
10007994:	f7fb fcec 	bl	10003370 <irq_is_enabled>
10007998:	2100      	movs	r1, #0
1000799a:	0005      	movs	r5, r0
1000799c:	200f      	movs	r0, #15
1000799e:	f7fb fcd5 	bl	1000334c <irq_set_enabled>
100079a2:	2300      	movs	r3, #0
100079a4:	2200      	movs	r2, #0
100079a6:	9200      	str	r2, [sp, #0]
100079a8:	9301      	str	r3, [sp, #4]
100079aa:	2301      	movs	r3, #1
100079ac:	9302      	str	r3, [sp, #8]
100079ae:	23d0      	movs	r3, #208	@ 0xd0
100079b0:	9604      	str	r6, [sp, #16]
100079b2:	9405      	str	r4, [sp, #20]
100079b4:	2600      	movs	r6, #0
100079b6:	2400      	movs	r4, #0
100079b8:	2101      	movs	r1, #1
100079ba:	2002      	movs	r0, #2
100079bc:	9703      	str	r7, [sp, #12]
100079be:	061b      	lsls	r3, r3, #24
100079c0:	2c00      	cmp	r4, #0
100079c2:	d014      	beq.n	100079ee <multicore_launch_core1_raw+0x66>
100079c4:	6d1a      	ldr	r2, [r3, #80]	@ 0x50
100079c6:	4210      	tst	r0, r2
100079c8:	d0fc      	beq.n	100079c4 <multicore_launch_core1_raw+0x3c>
100079ca:	655c      	str	r4, [r3, #84]	@ 0x54
100079cc:	bf40      	sev
100079ce:	6d1a      	ldr	r2, [r3, #80]	@ 0x50
100079d0:	4211      	tst	r1, r2
100079d2:	d103      	bne.n	100079dc <multicore_launch_core1_raw+0x54>
100079d4:	bf20      	wfe
100079d6:	6d1a      	ldr	r2, [r3, #80]	@ 0x50
100079d8:	4211      	tst	r1, r2
100079da:	d0fb      	beq.n	100079d4 <multicore_launch_core1_raw+0x4c>
100079dc:	6d9a      	ldr	r2, [r3, #88]	@ 0x58
100079de:	42a2      	cmp	r2, r4
100079e0:	d00a      	beq.n	100079f8 <multicore_launch_core1_raw+0x70>
100079e2:	2600      	movs	r6, #0
100079e4:	466c      	mov	r4, sp
100079e6:	00b2      	lsls	r2, r6, #2
100079e8:	58a4      	ldr	r4, [r4, r2]
100079ea:	e7e9      	b.n	100079c0 <multicore_launch_core1_raw+0x38>
100079ec:	6d9a      	ldr	r2, [r3, #88]	@ 0x58
100079ee:	6d1a      	ldr	r2, [r3, #80]	@ 0x50
100079f0:	4211      	tst	r1, r2
100079f2:	d1fb      	bne.n	100079ec <multicore_launch_core1_raw+0x64>
100079f4:	bf40      	sev
100079f6:	e7e5      	b.n	100079c4 <multicore_launch_core1_raw+0x3c>
100079f8:	3601      	adds	r6, #1
100079fa:	2e06      	cmp	r6, #6
100079fc:	d1f2      	bne.n	100079e4 <multicore_launch_core1_raw+0x5c>
100079fe:	0029      	movs	r1, r5
10007a00:	200f      	movs	r0, #15
10007a02:	f7fb fca3 	bl	1000334c <irq_set_enabled>
10007a06:	b007      	add	sp, #28
10007a08:	bdf0      	pop	{r4, r5, r6, r7, pc}
10007a0a:	46c0      	nop			@ (mov r8, r8)

10007a0c <multicore_launch_core1>:
10007a0c:	4b0d      	ldr	r3, [pc, #52]	@ (10007a44 <multicore_launch_core1+0x38>)
10007a0e:	4a0e      	ldr	r2, [pc, #56]	@ (10007a48 <multicore_launch_core1+0x3c>)
10007a10:	b510      	push	{r4, lr}
10007a12:	4293      	cmp	r3, r2
10007a14:	d310      	bcc.n	10007a38 <multicore_launch_core1+0x2c>
10007a16:	4a0d      	ldr	r2, [pc, #52]	@ (10007a4c <multicore_launch_core1+0x40>)
10007a18:	1899      	adds	r1, r3, r2
10007a1a:	001a      	movs	r2, r3
10007a1c:	4c0b      	ldr	r4, [pc, #44]	@ (10007a4c <multicore_launch_core1+0x40>)
10007a1e:	5110      	str	r0, [r2, r4]
10007a20:	20ff      	movs	r0, #255	@ 0xff
10007a22:	00c0      	lsls	r0, r0, #3
10007a24:	5013      	str	r3, [r2, r0]
10007a26:	4b0a      	ldr	r3, [pc, #40]	@ (10007a50 <multicore_launch_core1+0x44>)
10007a28:	480a      	ldr	r0, [pc, #40]	@ (10007a54 <multicore_launch_core1+0x48>)
10007a2a:	5013      	str	r3, [r2, r0]
10007a2c:	4b0a      	ldr	r3, [pc, #40]	@ (10007a58 <multicore_launch_core1+0x4c>)
10007a2e:	480b      	ldr	r0, [pc, #44]	@ (10007a5c <multicore_launch_core1+0x50>)
10007a30:	689a      	ldr	r2, [r3, #8]
10007a32:	f7ff ffa9 	bl	10007988 <multicore_launch_core1_raw>
10007a36:	bd10      	pop	{r4, pc}
10007a38:	2301      	movs	r3, #1
10007a3a:	425b      	negs	r3, r3
10007a3c:	001a      	movs	r2, r3
10007a3e:	4908      	ldr	r1, [pc, #32]	@ (10007a60 <multicore_launch_core1+0x54>)
10007a40:	e7ec      	b.n	10007a1c <multicore_launch_core1+0x10>
10007a42:	46c0      	nop			@ (mov r8, r8)
10007a44:	20040800 	.word	0x20040800
10007a48:	20040000 	.word	0x20040000
10007a4c:	000007f4 	.word	0x000007f4
10007a50:	10007959 	.word	0x10007959
10007a54:	000007fc 	.word	0x000007fc
10007a58:	e000ed00 	.word	0xe000ed00
10007a5c:	10007955 	.word	0x10007955
10007a60:	000007f3 	.word	0x000007f3

10007a64 <pio_add_program>:
10007a64:	b5f0      	push	{r4, r5, r6, r7, lr}
10007a66:	46de      	mov	lr, fp
10007a68:	4657      	mov	r7, sl
10007a6a:	464e      	mov	r6, r9
10007a6c:	4645      	mov	r5, r8
10007a6e:	4688      	mov	r8, r1
10007a70:	b5e0      	push	{r5, r6, r7, lr}
10007a72:	b083      	sub	sp, #12
10007a74:	0006      	movs	r6, r0
10007a76:	2405      	movs	r4, #5
10007a78:	f7fb fc16 	bl	100032a8 <hw_claim_lock>
10007a7c:	4643      	mov	r3, r8
10007a7e:	791f      	ldrb	r7, [r3, #4]
10007a80:	571c      	ldrsb	r4, [r3, r4]
10007a82:	4b31      	ldr	r3, [pc, #196]	@ (10007b48 <pio_add_program+0xe4>)
10007a84:	4682      	mov	sl, r0
10007a86:	18f3      	adds	r3, r6, r3
10007a88:	425a      	negs	r2, r3
10007a8a:	4153      	adcs	r3, r2
10007a8c:	009b      	lsls	r3, r3, #2
10007a8e:	469c      	mov	ip, r3
10007a90:	4a2e      	ldr	r2, [pc, #184]	@ (10007b4c <pio_add_program+0xe8>)
10007a92:	0013      	movs	r3, r2
10007a94:	4693      	mov	fp, r2
10007a96:	4662      	mov	r2, ip
10007a98:	589b      	ldr	r3, [r3, r2]
10007a9a:	2201      	movs	r2, #1
10007a9c:	4699      	mov	r9, r3
10007a9e:	40ba      	lsls	r2, r7
10007aa0:	2320      	movs	r3, #32
10007aa2:	3a01      	subs	r2, #1
10007aa4:	1bdb      	subs	r3, r3, r7
10007aa6:	2c00      	cmp	r4, #0
10007aa8:	db36      	blt.n	10007b18 <pio_add_program+0xb4>
10007aaa:	429c      	cmp	r4, r3
10007aac:	dc46      	bgt.n	10007b3c <pio_add_program+0xd8>
10007aae:	40a2      	lsls	r2, r4
10007ab0:	464b      	mov	r3, r9
10007ab2:	4213      	tst	r3, r2
10007ab4:	d142      	bne.n	10007b3c <pio_add_program+0xd8>
10007ab6:	9201      	str	r2, [sp, #4]
10007ab8:	2f00      	cmp	r7, #0
10007aba:	d01c      	beq.n	10007af6 <pio_add_program+0x92>
10007abc:	4642      	mov	r2, r8
10007abe:	4643      	mov	r3, r8
10007ac0:	7852      	ldrb	r2, [r2, #1]
10007ac2:	781b      	ldrb	r3, [r3, #0]
10007ac4:	0212      	lsls	r2, r2, #8
10007ac6:	431a      	orrs	r2, r3
10007ac8:	4643      	mov	r3, r8
10007aca:	789b      	ldrb	r3, [r3, #2]
10007acc:	2580      	movs	r5, #128	@ 0x80
10007ace:	041b      	lsls	r3, r3, #16
10007ad0:	4313      	orrs	r3, r2
10007ad2:	4642      	mov	r2, r8
10007ad4:	78d0      	ldrb	r0, [r2, #3]
10007ad6:	2200      	movs	r2, #0
10007ad8:	0600      	lsls	r0, r0, #24
10007ada:	4318      	orrs	r0, r3
10007adc:	01ad      	lsls	r5, r5, #6
10007ade:	0053      	lsls	r3, r2, #1
10007ae0:	5ac1      	ldrh	r1, [r0, r3]
10007ae2:	42a9      	cmp	r1, r5
10007ae4:	d200      	bcs.n	10007ae8 <pio_add_program+0x84>
10007ae6:	1909      	adds	r1, r1, r4
10007ae8:	18a3      	adds	r3, r4, r2
10007aea:	3312      	adds	r3, #18
10007aec:	009b      	lsls	r3, r3, #2
10007aee:	3201      	adds	r2, #1
10007af0:	5199      	str	r1, [r3, r6]
10007af2:	42ba      	cmp	r2, r7
10007af4:	d3f3      	bcc.n	10007ade <pio_add_program+0x7a>
10007af6:	464d      	mov	r5, r9
10007af8:	9b01      	ldr	r3, [sp, #4]
10007afa:	4662      	mov	r2, ip
10007afc:	431d      	orrs	r5, r3
10007afe:	465b      	mov	r3, fp
10007b00:	4650      	mov	r0, sl
10007b02:	509d      	str	r5, [r3, r2]
10007b04:	f7fb fbdc 	bl	100032c0 <hw_claim_unlock>
10007b08:	0020      	movs	r0, r4
10007b0a:	b003      	add	sp, #12
10007b0c:	bcf0      	pop	{r4, r5, r6, r7}
10007b0e:	46bb      	mov	fp, r7
10007b10:	46b2      	mov	sl, r6
10007b12:	46a9      	mov	r9, r5
10007b14:	46a0      	mov	r8, r4
10007b16:	bdf0      	pop	{r4, r5, r6, r7, pc}
10007b18:	2b00      	cmp	r3, #0
10007b1a:	db0f      	blt.n	10007b3c <pio_add_program+0xd8>
10007b1c:	0011      	movs	r1, r2
10007b1e:	4648      	mov	r0, r9
10007b20:	4099      	lsls	r1, r3
10007b22:	001c      	movs	r4, r3
10007b24:	9101      	str	r1, [sp, #4]
10007b26:	4201      	tst	r1, r0
10007b28:	d106      	bne.n	10007b38 <pio_add_program+0xd4>
10007b2a:	e7c5      	b.n	10007ab8 <pio_add_program+0x54>
10007b2c:	0015      	movs	r5, r2
10007b2e:	4649      	mov	r1, r9
10007b30:	409d      	lsls	r5, r3
10007b32:	001c      	movs	r4, r3
10007b34:	4229      	tst	r1, r5
10007b36:	d004      	beq.n	10007b42 <pio_add_program+0xde>
10007b38:	3b01      	subs	r3, #1
10007b3a:	d2f7      	bcs.n	10007b2c <pio_add_program+0xc8>
10007b3c:	4804      	ldr	r0, [pc, #16]	@ (10007b50 <pio_add_program+0xec>)
10007b3e:	f7fc ff07 	bl	10004950 <panic>
10007b42:	9501      	str	r5, [sp, #4]
10007b44:	e7b8      	b.n	10007ab8 <pio_add_program+0x54>
10007b46:	46c0      	nop			@ (mov r8, r8)
10007b48:	afd00000 	.word	0xafd00000
10007b4c:	200005c8 	.word	0x200005c8
10007b50:	100089a4 	.word	0x100089a4

10007b54 <pio_sm_set_consecutive_pindirs>:
10007b54:	b5f0      	push	{r4, r5, r6, r7, lr}
10007b56:	4657      	mov	r7, sl
10007b58:	464e      	mov	r6, r9
10007b5a:	4645      	mov	r5, r8
10007b5c:	46de      	mov	lr, fp
10007b5e:	4689      	mov	r9, r1
10007b60:	b5e0      	push	{r5, r6, r7, lr}
10007b62:	b083      	sub	sp, #12
10007b64:	a90c      	add	r1, sp, #48	@ 0x30
10007b66:	780d      	ldrb	r5, [r1, #0]
10007b68:	4649      	mov	r1, r9
10007b6a:	0049      	lsls	r1, r1, #1
10007b6c:	4688      	mov	r8, r1
10007b6e:	4449      	add	r1, r9
10007b70:	00c9      	lsls	r1, r1, #3
10007b72:	1846      	adds	r6, r0, r1
10007b74:	0037      	movs	r7, r6
10007b76:	0034      	movs	r4, r6
10007b78:	37dc      	adds	r7, #220	@ 0xdc
10007b7a:	4684      	mov	ip, r0
10007b7c:	6838      	ldr	r0, [r7, #0]
10007b7e:	34cc      	adds	r4, #204	@ 0xcc
10007b80:	4683      	mov	fp, r0
10007b82:	6820      	ldr	r0, [r4, #0]
10007b84:	24c0      	movs	r4, #192	@ 0xc0
10007b86:	31cc      	adds	r1, #204	@ 0xcc
10007b88:	01a4      	lsls	r4, r4, #6
10007b8a:	4461      	add	r1, ip
10007b8c:	4321      	orrs	r1, r4
10007b8e:	2480      	movs	r4, #128	@ 0x80
10007b90:	02a4      	lsls	r4, r4, #10
10007b92:	600c      	str	r4, [r1, #0]
10007b94:	4269      	negs	r1, r5
10007b96:	414d      	adcs	r5, r1
10007b98:	211e      	movs	r1, #30
10007b9a:	426d      	negs	r5, r5
10007b9c:	438d      	bics	r5, r1
10007b9e:	4916      	ldr	r1, [pc, #88]	@ (10007bf8 <pio_sm_set_consecutive_pindirs+0xa4>)
10007ba0:	9001      	str	r0, [sp, #4]
10007ba2:	468a      	mov	sl, r1
10007ba4:	4455      	add	r5, sl
10007ba6:	2b05      	cmp	r3, #5
10007ba8:	d90c      	bls.n	10007bc4 <pio_sm_set_consecutive_pindirs+0x70>
10007baa:	20a0      	movs	r0, #160	@ 0xa0
10007bac:	211f      	movs	r1, #31
10007bae:	0540      	lsls	r0, r0, #21
10007bb0:	36d8      	adds	r6, #216	@ 0xd8
10007bb2:	0154      	lsls	r4, r2, #5
10007bb4:	4304      	orrs	r4, r0
10007bb6:	3205      	adds	r2, #5
10007bb8:	3b05      	subs	r3, #5
10007bba:	603c      	str	r4, [r7, #0]
10007bbc:	400a      	ands	r2, r1
10007bbe:	6035      	str	r5, [r6, #0]
10007bc0:	2b05      	cmp	r3, #5
10007bc2:	d8f6      	bhi.n	10007bb2 <pio_sm_set_consecutive_pindirs+0x5e>
10007bc4:	0152      	lsls	r2, r2, #5
10007bc6:	069b      	lsls	r3, r3, #26
10007bc8:	4313      	orrs	r3, r2
10007bca:	4642      	mov	r2, r8
10007bcc:	444a      	add	r2, r9
10007bce:	00d2      	lsls	r2, r2, #3
10007bd0:	4462      	add	r2, ip
10007bd2:	0010      	movs	r0, r2
10007bd4:	32dc      	adds	r2, #220	@ 0xdc
10007bd6:	6013      	str	r3, [r2, #0]
10007bd8:	0003      	movs	r3, r0
10007bda:	33d8      	adds	r3, #216	@ 0xd8
10007bdc:	601d      	str	r5, [r3, #0]
10007bde:	465b      	mov	r3, fp
10007be0:	6013      	str	r3, [r2, #0]
10007be2:	9b01      	ldr	r3, [sp, #4]
10007be4:	30cc      	adds	r0, #204	@ 0xcc
10007be6:	6003      	str	r3, [r0, #0]
10007be8:	b003      	add	sp, #12
10007bea:	bcf0      	pop	{r4, r5, r6, r7}
10007bec:	46bb      	mov	fp, r7
10007bee:	46b2      	mov	sl, r6
10007bf0:	46a9      	mov	r9, r5
10007bf2:	46a0      	mov	r8, r4
10007bf4:	bdf0      	pop	{r4, r5, r6, r7, pc}
10007bf6:	46c0      	nop			@ (mov r8, r8)
10007bf8:	0000e09f 	.word	0x0000e09f

10007bfc <pio_sm_init>:
10007bfc:	b5f0      	push	{r4, r5, r6, r7, lr}
10007bfe:	2501      	movs	r5, #1
10007c00:	408d      	lsls	r5, r1
10007c02:	6804      	ldr	r4, [r0, #0]
10007c04:	43ac      	bics	r4, r5
10007c06:	6004      	str	r4, [r0, #0]
10007c08:	2b00      	cmp	r3, #0
10007c0a:	d02e      	beq.n	10007c6a <pio_sm_init+0x6e>
10007c0c:	004d      	lsls	r5, r1, #1
10007c0e:	186c      	adds	r4, r5, r1
10007c10:	00e4      	lsls	r4, r4, #3
10007c12:	1904      	adds	r4, r0, r4
10007c14:	0026      	movs	r6, r4
10007c16:	681f      	ldr	r7, [r3, #0]
10007c18:	36c8      	adds	r6, #200	@ 0xc8
10007c1a:	6037      	str	r7, [r6, #0]
10007c1c:	685f      	ldr	r7, [r3, #4]
10007c1e:	34dc      	adds	r4, #220	@ 0xdc
10007c20:	6077      	str	r7, [r6, #4]
10007c22:	689f      	ldr	r7, [r3, #8]
10007c24:	68db      	ldr	r3, [r3, #12]
10007c26:	60b7      	str	r7, [r6, #8]
10007c28:	6023      	str	r3, [r4, #0]
10007c2a:	186b      	adds	r3, r5, r1
10007c2c:	00db      	lsls	r3, r3, #3
10007c2e:	001d      	movs	r5, r3
10007c30:	2480      	movs	r4, #128	@ 0x80
10007c32:	35d0      	adds	r5, #208	@ 0xd0
10007c34:	1945      	adds	r5, r0, r5
10007c36:	0164      	lsls	r4, r4, #5
10007c38:	432c      	orrs	r4, r5
10007c3a:	2580      	movs	r5, #128	@ 0x80
10007c3c:	062d      	lsls	r5, r5, #24
10007c3e:	6025      	str	r5, [r4, #0]
10007c40:	6025      	str	r5, [r4, #0]
10007c42:	2501      	movs	r5, #1
10007c44:	4c12      	ldr	r4, [pc, #72]	@ (10007c90 <pio_sm_init+0x94>)
10007c46:	002e      	movs	r6, r5
10007c48:	408c      	lsls	r4, r1
10007c4a:	6084      	str	r4, [r0, #8]
10007c4c:	1d0c      	adds	r4, r1, #4
10007c4e:	40a6      	lsls	r6, r4
10007c50:	2480      	movs	r4, #128	@ 0x80
10007c52:	3108      	adds	r1, #8
10007c54:	408d      	lsls	r5, r1
10007c56:	211f      	movs	r1, #31
10007c58:	01a4      	lsls	r4, r4, #6
10007c5a:	4304      	orrs	r4, r0
10007c5c:	18c0      	adds	r0, r0, r3
10007c5e:	400a      	ands	r2, r1
10007c60:	30d8      	adds	r0, #216	@ 0xd8
10007c62:	6026      	str	r6, [r4, #0]
10007c64:	6025      	str	r5, [r4, #0]
10007c66:	6002      	str	r2, [r0, #0]
10007c68:	bdf0      	pop	{r4, r5, r6, r7, pc}
10007c6a:	004d      	lsls	r5, r1, #1
10007c6c:	186c      	adds	r4, r5, r1
10007c6e:	00e4      	lsls	r4, r4, #3
10007c70:	1904      	adds	r4, r0, r4
10007c72:	0026      	movs	r6, r4
10007c74:	2780      	movs	r7, #128	@ 0x80
10007c76:	36c8      	adds	r6, #200	@ 0xc8
10007c78:	027f      	lsls	r7, r7, #9
10007c7a:	6037      	str	r7, [r6, #0]
10007c7c:	27f8      	movs	r7, #248	@ 0xf8
10007c7e:	027f      	lsls	r7, r7, #9
10007c80:	6077      	str	r7, [r6, #4]
10007c82:	27c0      	movs	r7, #192	@ 0xc0
10007c84:	34dc      	adds	r4, #220	@ 0xdc
10007c86:	033f      	lsls	r7, r7, #12
10007c88:	60b7      	str	r7, [r6, #8]
10007c8a:	6023      	str	r3, [r4, #0]
10007c8c:	e7cd      	b.n	10007c2a <pio_sm_init+0x2e>
10007c8e:	46c0      	nop			@ (mov r8, r8)
10007c90:	01010101 	.word	0x01010101

10007c94 <i2c_set_baudrate>:
10007c94:	b5f8      	push	{r3, r4, r5, r6, r7, lr}
10007c96:	46de      	mov	lr, fp
10007c98:	4657      	mov	r7, sl
10007c9a:	464e      	mov	r6, r9
10007c9c:	4645      	mov	r5, r8
10007c9e:	4683      	mov	fp, r0
10007ca0:	b5e0      	push	{r5, r6, r7, lr}
10007ca2:	2005      	movs	r0, #5
10007ca4:	000c      	movs	r4, r1
10007ca6:	f7fc fd65 	bl	10004774 <clock_get_hz>
10007caa:	0006      	movs	r6, r0
10007cac:	0860      	lsrs	r0, r4, #1
10007cae:	0021      	movs	r1, r4
10007cb0:	1980      	adds	r0, r0, r6
10007cb2:	f7fe fa75 	bl	100061a0 <__wrap___aeabi_uidiv>
10007cb6:	0043      	lsls	r3, r0, #1
10007cb8:	4698      	mov	r8, r3
10007cba:	4480      	add	r8, r0
10007cbc:	0007      	movs	r7, r0
10007cbe:	2105      	movs	r1, #5
10007cc0:	4640      	mov	r0, r8
10007cc2:	f7fe fa6d 	bl	100061a0 <__wrap___aeabi_uidiv>
10007cc6:	1a3b      	subs	r3, r7, r0
10007cc8:	469a      	mov	sl, r3
10007cca:	4b20      	ldr	r3, [pc, #128]	@ (10007d4c <i2c_set_baudrate+0xb8>)
10007ccc:	4681      	mov	r9, r0
10007cce:	0070      	lsls	r0, r6, #1
10007cd0:	1980      	adds	r0, r0, r6
10007cd2:	429c      	cmp	r4, r3
10007cd4:	d834      	bhi.n	10007d40 <i2c_set_baudrate+0xac>
10007cd6:	491e      	ldr	r1, [pc, #120]	@ (10007d50 <i2c_set_baudrate+0xbc>)
10007cd8:	f7fe fa62 	bl	100061a0 <__wrap___aeabi_uidiv>
10007cdc:	1c45      	adds	r5, r0, #1
10007cde:	465b      	mov	r3, fp
10007ce0:	681c      	ldr	r4, [r3, #0]
10007ce2:	2300      	movs	r3, #0
10007ce4:	2204      	movs	r2, #4
10007ce6:	66e3      	str	r3, [r4, #108]	@ 0x6c
10007ce8:	6823      	ldr	r3, [r4, #0]
10007cea:	2001      	movs	r0, #1
10007cec:	4053      	eors	r3, r2
10007cee:	3202      	adds	r2, #2
10007cf0:	401a      	ands	r2, r3
10007cf2:	2380      	movs	r3, #128	@ 0x80
10007cf4:	015b      	lsls	r3, r3, #5
10007cf6:	4323      	orrs	r3, r4
10007cf8:	601a      	str	r2, [r3, #0]
10007cfa:	4653      	mov	r3, sl
10007cfc:	61e3      	str	r3, [r4, #28]
10007cfe:	464b      	mov	r3, r9
10007d00:	6223      	str	r3, [r4, #32]
10007d02:	4643      	mov	r3, r8
10007d04:	2b4f      	cmp	r3, #79	@ 0x4f
10007d06:	d903      	bls.n	10007d10 <i2c_set_baudrate+0x7c>
10007d08:	2150      	movs	r1, #80	@ 0x50
10007d0a:	4640      	mov	r0, r8
10007d0c:	f7fe fa48 	bl	100061a0 <__wrap___aeabi_uidiv>
10007d10:	23a0      	movs	r3, #160	@ 0xa0
10007d12:	50e0      	str	r0, [r4, r3]
10007d14:	6fe3      	ldr	r3, [r4, #124]	@ 0x7c
10007d16:	0022      	movs	r2, r4
10007d18:	405d      	eors	r5, r3
10007d1a:	2380      	movs	r3, #128	@ 0x80
10007d1c:	327c      	adds	r2, #124	@ 0x7c
10007d1e:	042d      	lsls	r5, r5, #16
10007d20:	015b      	lsls	r3, r3, #5
10007d22:	4313      	orrs	r3, r2
10007d24:	0c2d      	lsrs	r5, r5, #16
10007d26:	601d      	str	r5, [r3, #0]
10007d28:	2301      	movs	r3, #1
10007d2a:	0039      	movs	r1, r7
10007d2c:	0030      	movs	r0, r6
10007d2e:	66e3      	str	r3, [r4, #108]	@ 0x6c
10007d30:	f7fe fa36 	bl	100061a0 <__wrap___aeabi_uidiv>
10007d34:	bcf0      	pop	{r4, r5, r6, r7}
10007d36:	46bb      	mov	fp, r7
10007d38:	46b2      	mov	sl, r6
10007d3a:	46a9      	mov	r9, r5
10007d3c:	46a0      	mov	r8, r4
10007d3e:	bdf8      	pop	{r3, r4, r5, r6, r7, pc}
10007d40:	4904      	ldr	r1, [pc, #16]	@ (10007d54 <i2c_set_baudrate+0xc0>)
10007d42:	f7fe fa2d 	bl	100061a0 <__wrap___aeabi_uidiv>
10007d46:	1c45      	adds	r5, r0, #1
10007d48:	e7c9      	b.n	10007cde <i2c_set_baudrate+0x4a>
10007d4a:	46c0      	nop			@ (mov r8, r8)
10007d4c:	000f423f 	.word	0x000f423f
10007d50:	00989680 	.word	0x00989680
10007d54:	017d7840 	.word	0x017d7840

10007d58 <i2c_init>:
10007d58:	4a10      	ldr	r2, [pc, #64]	@ (10007d9c <i2c_init+0x44>)
10007d5a:	b570      	push	{r4, r5, r6, lr}
10007d5c:	1a82      	subs	r2, r0, r2
10007d5e:	4253      	negs	r3, r2
10007d60:	415a      	adcs	r2, r3
10007d62:	2307      	movs	r3, #7
10007d64:	4252      	negs	r2, r2
10007d66:	439a      	bics	r2, r3
10007d68:	4b0d      	ldr	r3, [pc, #52]	@ (10007da0 <i2c_init+0x48>)
10007d6a:	3210      	adds	r2, #16
10007d6c:	601a      	str	r2, [r3, #0]
10007d6e:	4b0d      	ldr	r3, [pc, #52]	@ (10007da4 <i2c_init+0x4c>)
10007d70:	4c0d      	ldr	r4, [pc, #52]	@ (10007da8 <i2c_init+0x50>)
10007d72:	601a      	str	r2, [r3, #0]
10007d74:	0015      	movs	r5, r2
10007d76:	68a3      	ldr	r3, [r4, #8]
10007d78:	439d      	bics	r5, r3
10007d7a:	1e2b      	subs	r3, r5, #0
10007d7c:	d1fa      	bne.n	10007d74 <i2c_init+0x1c>
10007d7e:	2466      	movs	r4, #102	@ 0x66
10007d80:	6802      	ldr	r2, [r0, #0]
10007d82:	34ff      	adds	r4, #255	@ 0xff
10007d84:	7105      	strb	r5, [r0, #4]
10007d86:	66d5      	str	r5, [r2, #108]	@ 0x6c
10007d88:	6014      	str	r4, [r2, #0]
10007d8a:	3c63      	subs	r4, #99	@ 0x63
10007d8c:	3388      	adds	r3, #136	@ 0x88
10007d8e:	3cff      	subs	r4, #255	@ 0xff
10007d90:	63d5      	str	r5, [r2, #60]	@ 0x3c
10007d92:	6395      	str	r5, [r2, #56]	@ 0x38
10007d94:	50d4      	str	r4, [r2, r3]
10007d96:	f7ff ff7d 	bl	10007c94 <i2c_set_baudrate>
10007d9a:	bd70      	pop	{r4, r5, r6, pc}
10007d9c:	20000260 	.word	0x20000260
10007da0:	4000e000 	.word	0x4000e000
10007da4:	4000f000 	.word	0x4000f000
10007da8:	4000c000 	.word	0x4000c000

10007dac <i2c_write_blocking>:
10007dac:	b5f0      	push	{r4, r5, r6, r7, lr}
10007dae:	4657      	mov	r7, sl
10007db0:	464e      	mov	r6, r9
10007db2:	46de      	mov	lr, fp
10007db4:	4645      	mov	r5, r8
10007db6:	4684      	mov	ip, r0
10007db8:	b5e0      	push	{r5, r6, r7, lr}
10007dba:	b083      	sub	sp, #12
10007dbc:	001f      	movs	r7, r3
10007dbe:	ab0c      	add	r3, sp, #48	@ 0x30
10007dc0:	7818      	ldrb	r0, [r3, #0]
10007dc2:	4663      	mov	r3, ip
10007dc4:	4691      	mov	r9, r2
10007dc6:	2200      	movs	r2, #0
10007dc8:	681b      	ldr	r3, [r3, #0]
10007dca:	9001      	str	r0, [sp, #4]
10007dcc:	66da      	str	r2, [r3, #108]	@ 0x6c
10007dce:	3201      	adds	r2, #1
10007dd0:	6059      	str	r1, [r3, #4]
10007dd2:	66da      	str	r2, [r3, #108]	@ 0x6c
10007dd4:	2f00      	cmp	r7, #0
10007dd6:	dd4f      	ble.n	10007e78 <i2c_write_blocking+0xcc>
10007dd8:	1e7a      	subs	r2, r7, #1
10007dda:	4690      	mov	r8, r2
10007ddc:	4662      	mov	r2, ip
10007dde:	7912      	ldrb	r2, [r2, #4]
10007de0:	2601      	movs	r6, #1
10007de2:	0292      	lsls	r2, r2, #10
10007de4:	2480      	movs	r4, #128	@ 0x80
10007de6:	4693      	mov	fp, r2
10007de8:	003a      	movs	r2, r7
10007dea:	4046      	eors	r6, r0
10007dec:	0276      	lsls	r6, r6, #9
10007dee:	2580      	movs	r5, #128	@ 0x80
10007df0:	0037      	movs	r7, r6
10007df2:	2000      	movs	r0, #0
10007df4:	4646      	mov	r6, r8
10007df6:	2110      	movs	r1, #16
10007df8:	46a2      	mov	sl, r4
10007dfa:	4690      	mov	r8, r2
10007dfc:	00ad      	lsls	r5, r5, #2
10007dfe:	1a34      	subs	r4, r6, r0
10007e00:	4262      	negs	r2, r4
10007e02:	4154      	adcs	r4, r2
10007e04:	464a      	mov	r2, r9
10007e06:	4264      	negs	r4, r4
10007e08:	403c      	ands	r4, r7
10007e0a:	9400      	str	r4, [sp, #0]
10007e0c:	465c      	mov	r4, fp
10007e0e:	5c12      	ldrb	r2, [r2, r0]
10007e10:	4322      	orrs	r2, r4
10007e12:	9c00      	ldr	r4, [sp, #0]
10007e14:	4322      	orrs	r2, r4
10007e16:	611a      	str	r2, [r3, #16]
10007e18:	6b5a      	ldr	r2, [r3, #52]	@ 0x34
10007e1a:	4211      	tst	r1, r2
10007e1c:	d0fc      	beq.n	10007e18 <i2c_write_blocking+0x6c>
10007e1e:	4652      	mov	r2, sl
10007e20:	589c      	ldr	r4, [r3, r2]
10007e22:	2c00      	cmp	r4, #0
10007e24:	d110      	bne.n	10007e48 <i2c_write_blocking+0x9c>
10007e26:	4286      	cmp	r6, r0
10007e28:	d021      	beq.n	10007e6e <i2c_write_blocking+0xc2>
10007e2a:	2200      	movs	r2, #0
10007e2c:	3001      	adds	r0, #1
10007e2e:	4693      	mov	fp, r2
10007e30:	4580      	cmp	r8, r0
10007e32:	d1e4      	bne.n	10007dfe <i2c_write_blocking+0x52>
10007e34:	4663      	mov	r3, ip
10007e36:	9a01      	ldr	r2, [sp, #4]
10007e38:	711a      	strb	r2, [r3, #4]
10007e3a:	b003      	add	sp, #12
10007e3c:	bcf0      	pop	{r4, r5, r6, r7}
10007e3e:	46bb      	mov	fp, r7
10007e40:	46b2      	mov	sl, r6
10007e42:	46a9      	mov	r9, r5
10007e44:	46a0      	mov	r8, r4
10007e46:	bdf0      	pop	{r4, r5, r6, r7, pc}
10007e48:	6d5a      	ldr	r2, [r3, #84]	@ 0x54
10007e4a:	2201      	movs	r2, #1
10007e4c:	4693      	mov	fp, r2
10007e4e:	6b5a      	ldr	r2, [r3, #52]	@ 0x34
10007e50:	422a      	tst	r2, r5
10007e52:	d0fc      	beq.n	10007e4e <i2c_write_blocking+0xa2>
10007e54:	6e1a      	ldr	r2, [r3, #96]	@ 0x60
10007e56:	465a      	mov	r2, fp
10007e58:	2a00      	cmp	r2, #0
10007e5a:	d0e6      	beq.n	10007e2a <i2c_write_blocking+0x7e>
10007e5c:	2c00      	cmp	r4, #0
10007e5e:	d003      	beq.n	10007e68 <i2c_write_blocking+0xbc>
10007e60:	07e3      	lsls	r3, r4, #31
10007e62:	d401      	bmi.n	10007e68 <i2c_write_blocking+0xbc>
10007e64:	0724      	lsls	r4, r4, #28
10007e66:	d4e5      	bmi.n	10007e34 <i2c_write_blocking+0x88>
10007e68:	2002      	movs	r0, #2
10007e6a:	4240      	negs	r0, r0
10007e6c:	e7e2      	b.n	10007e34 <i2c_write_blocking+0x88>
10007e6e:	9a01      	ldr	r2, [sp, #4]
10007e70:	2a00      	cmp	r2, #0
10007e72:	d1da      	bne.n	10007e2a <i2c_write_blocking+0x7e>
10007e74:	4693      	mov	fp, r2
10007e76:	e7ea      	b.n	10007e4e <i2c_write_blocking+0xa2>
10007e78:	2000      	movs	r0, #0
10007e7a:	e7db      	b.n	10007e34 <i2c_write_blocking+0x88>

10007e7c <i2c_read_blocking>:
10007e7c:	b5f0      	push	{r4, r5, r6, r7, lr}
10007e7e:	46de      	mov	lr, fp
10007e80:	464e      	mov	r6, r9
10007e82:	4645      	mov	r5, r8
10007e84:	4657      	mov	r7, sl
10007e86:	b5e0      	push	{r5, r6, r7, lr}
10007e88:	0006      	movs	r6, r0
10007e8a:	a809      	add	r0, sp, #36	@ 0x24
10007e8c:	7800      	ldrb	r0, [r0, #0]
10007e8e:	6834      	ldr	r4, [r6, #0]
10007e90:	4680      	mov	r8, r0
10007e92:	2000      	movs	r0, #0
10007e94:	66e0      	str	r0, [r4, #108]	@ 0x6c
10007e96:	6061      	str	r1, [r4, #4]
10007e98:	2101      	movs	r1, #1
10007e9a:	4693      	mov	fp, r2
10007e9c:	66e1      	str	r1, [r4, #108]	@ 0x6c
10007e9e:	2b00      	cmp	r3, #0
10007ea0:	dd32      	ble.n	10007f08 <i2c_read_blocking+0x8c>
10007ea2:	2280      	movs	r2, #128	@ 0x80
10007ea4:	1e59      	subs	r1, r3, #1
10007ea6:	0052      	lsls	r2, r2, #1
10007ea8:	468c      	mov	ip, r1
10007eaa:	4692      	mov	sl, r2
10007eac:	2580      	movs	r5, #128	@ 0x80
10007eae:	6f61      	ldr	r1, [r4, #116]	@ 0x74
10007eb0:	2910      	cmp	r1, #16
10007eb2:	d0fc      	beq.n	10007eae <i2c_read_blocking+0x32>
10007eb4:	2100      	movs	r1, #0
10007eb6:	2800      	cmp	r0, #0
10007eb8:	d101      	bne.n	10007ebe <i2c_read_blocking+0x42>
10007eba:	7931      	ldrb	r1, [r6, #4]
10007ebc:	0289      	lsls	r1, r1, #10
10007ebe:	4560      	cmp	r0, ip
10007ec0:	d01c      	beq.n	10007efc <i2c_read_blocking+0x80>
10007ec2:	4652      	mov	r2, sl
10007ec4:	4311      	orrs	r1, r2
10007ec6:	6121      	str	r1, [r4, #16]
10007ec8:	e002      	b.n	10007ed0 <i2c_read_blocking+0x54>
10007eca:	6fa1      	ldr	r1, [r4, #120]	@ 0x78
10007ecc:	2900      	cmp	r1, #0
10007ece:	d10d      	bne.n	10007eec <i2c_read_blocking+0x70>
10007ed0:	5961      	ldr	r1, [r4, r5]
10007ed2:	6d61      	ldr	r1, [r4, #84]	@ 0x54
10007ed4:	2900      	cmp	r1, #0
10007ed6:	d0f8      	beq.n	10007eca <i2c_read_blocking+0x4e>
10007ed8:	2002      	movs	r0, #2
10007eda:	4240      	negs	r0, r0
10007edc:	4643      	mov	r3, r8
10007ede:	7133      	strb	r3, [r6, #4]
10007ee0:	bcf0      	pop	{r4, r5, r6, r7}
10007ee2:	46bb      	mov	fp, r7
10007ee4:	46b2      	mov	sl, r6
10007ee6:	46a9      	mov	r9, r5
10007ee8:	46a0      	mov	r8, r4
10007eea:	bdf0      	pop	{r4, r5, r6, r7, pc}
10007eec:	465a      	mov	r2, fp
10007eee:	6921      	ldr	r1, [r4, #16]
10007ef0:	5411      	strb	r1, [r2, r0]
10007ef2:	3001      	adds	r0, #1
10007ef4:	4283      	cmp	r3, r0
10007ef6:	d0f1      	beq.n	10007edc <i2c_read_blocking+0x60>
10007ef8:	6834      	ldr	r4, [r6, #0]
10007efa:	e7d8      	b.n	10007eae <i2c_read_blocking+0x32>
10007efc:	4642      	mov	r2, r8
10007efe:	2701      	movs	r7, #1
10007f00:	4057      	eors	r7, r2
10007f02:	027a      	lsls	r2, r7, #9
10007f04:	4311      	orrs	r1, r2
10007f06:	e7dc      	b.n	10007ec2 <i2c_read_blocking+0x46>
10007f08:	2000      	movs	r0, #0
10007f0a:	e7e7      	b.n	10007edc <i2c_read_blocking+0x60>

10007f0c <strlen>:
10007f0c:	b510      	push	{r4, lr}
10007f0e:	0783      	lsls	r3, r0, #30
10007f10:	d00a      	beq.n	10007f28 <strlen+0x1c>
10007f12:	0003      	movs	r3, r0
10007f14:	2103      	movs	r1, #3
10007f16:	e002      	b.n	10007f1e <strlen+0x12>
10007f18:	3301      	adds	r3, #1
10007f1a:	420b      	tst	r3, r1
10007f1c:	d005      	beq.n	10007f2a <strlen+0x1e>
10007f1e:	781a      	ldrb	r2, [r3, #0]
10007f20:	2a00      	cmp	r2, #0
10007f22:	d1f9      	bne.n	10007f18 <strlen+0xc>
10007f24:	1a18      	subs	r0, r3, r0
10007f26:	bd10      	pop	{r4, pc}
10007f28:	0003      	movs	r3, r0
10007f2a:	6819      	ldr	r1, [r3, #0]
10007f2c:	4a0c      	ldr	r2, [pc, #48]	@ (10007f60 <strlen+0x54>)
10007f2e:	4c0d      	ldr	r4, [pc, #52]	@ (10007f64 <strlen+0x58>)
10007f30:	188a      	adds	r2, r1, r2
10007f32:	438a      	bics	r2, r1
10007f34:	4222      	tst	r2, r4
10007f36:	d10f      	bne.n	10007f58 <strlen+0x4c>
10007f38:	6859      	ldr	r1, [r3, #4]
10007f3a:	4a09      	ldr	r2, [pc, #36]	@ (10007f60 <strlen+0x54>)
10007f3c:	3304      	adds	r3, #4
10007f3e:	188a      	adds	r2, r1, r2
10007f40:	438a      	bics	r2, r1
10007f42:	4222      	tst	r2, r4
10007f44:	d108      	bne.n	10007f58 <strlen+0x4c>
10007f46:	6859      	ldr	r1, [r3, #4]
10007f48:	4a05      	ldr	r2, [pc, #20]	@ (10007f60 <strlen+0x54>)
10007f4a:	3304      	adds	r3, #4
10007f4c:	188a      	adds	r2, r1, r2
10007f4e:	438a      	bics	r2, r1
10007f50:	4222      	tst	r2, r4
10007f52:	d0f1      	beq.n	10007f38 <strlen+0x2c>
10007f54:	e000      	b.n	10007f58 <strlen+0x4c>
10007f56:	3301      	adds	r3, #1
10007f58:	781a      	ldrb	r2, [r3, #0]
10007f5a:	2a00      	cmp	r2, #0
10007f5c:	d1fb      	bne.n	10007f56 <strlen+0x4a>
10007f5e:	e7e1      	b.n	10007f24 <strlen+0x18>
10007f60:	fefefeff 	.word	0xfefefeff
10007f64:	80808080 	.word	0x80808080

10007f68 <_fini>:
10007f68:	b5f8      	push	{r3, r4, r5, r6, r7, lr}
10007f6a:	46c0      	nop			@ (mov r8, r8)
10007f6c:	0000      	movs	r0, r0
	...

10007f70 <__mutex_exit_veneer>:
10007f70:	b401      	push	{r0}
10007f72:	4802      	ldr	r0, [pc, #8]	@ (10007f7c <__mutex_exit_veneer+0xc>)
10007f74:	4684      	mov	ip, r0
10007f76:	bc01      	pop	{r0}
10007f78:	4760      	bx	ip
10007f7a:	bf00      	nop
10007f7c:	2000015d 	.word	0x2000015d

10007f80 <____aeabi_ldiv0_veneer>:
10007f80:	b401      	push	{r0}
10007f82:	4802      	ldr	r0, [pc, #8]	@ (10007f8c <____aeabi_ldiv0_veneer+0xc>)
10007f84:	4684      	mov	ip, r0
10007f86:	bc01      	pop	{r0}
10007f88:	4760      	bx	ip
10007f8a:	bf00      	nop
10007f8c:	20000185 	.word	0x20000185

10007f90 <____aeabi_idiv0_veneer>:
10007f90:	b401      	push	{r0}
10007f92:	4802      	ldr	r0, [pc, #8]	@ (10007f9c <____aeabi_idiv0_veneer+0xc>)
10007f94:	4684      	mov	ip, r0
10007f96:	bc01      	pop	{r0}
10007f98:	4760      	bx	ip
10007f9a:	bf00      	nop
10007f9c:	20000185 	.word	0x20000185

10007fa0 <__mutex_try_enter_block_until_veneer>:
10007fa0:	b401      	push	{r0}
10007fa2:	4802      	ldr	r0, [pc, #8]	@ (10007fac <__mutex_try_enter_block_until_veneer+0xc>)
10007fa4:	4684      	mov	ip, r0
10007fa6:	bc01      	pop	{r0}
10007fa8:	4760      	bx	ip
10007faa:	bf00      	nop
10007fac:	200000c1 	.word	0x200000c1

Disassembly of section .data:

200000c0 <mutex_try_enter_block_until>:
200000c0:	b5f0      	push	{r4, r5, r6, r7, lr}
200000c2:	46c6      	mov	lr, r8
200000c4:	0015      	movs	r5, r2
200000c6:	b500      	push	{lr}
200000c8:	0004      	movs	r4, r0
200000ca:	001e      	movs	r6, r3
200000cc:	6802      	ldr	r2, [r0, #0]
200000ce:	f3ef 8110 	mrs	r1, PRIMASK
200000d2:	b672      	cpsid	i
200000d4:	6813      	ldr	r3, [r2, #0]
200000d6:	2b00      	cmp	r3, #0
200000d8:	d0fc      	beq.n	200000d4 <mutex_try_enter_block_until+0x14>
200000da:	f3bf 8f5f 	dmb	sy
200000de:	2304      	movs	r3, #4
200000e0:	56e3      	ldrsb	r3, [r4, r3]
200000e2:	2b00      	cmp	r3, #0
200000e4:	db2d      	blt.n	20000142 <mutex_try_enter_block_until+0x82>
200000e6:	6822      	ldr	r2, [r4, #0]
200000e8:	f3bf 8f5f 	dmb	sy
200000ec:	2000      	movs	r0, #0
200000ee:	6010      	str	r0, [r2, #0]
200000f0:	f381 8810 	msr	PRIMASK, r1
200000f4:	22d0      	movs	r2, #208	@ 0xd0
200000f6:	0612      	lsls	r2, r2, #24
200000f8:	7812      	ldrb	r2, [r2, #0]
200000fa:	b252      	sxtb	r2, r2
200000fc:	4690      	mov	r8, r2
200000fe:	429a      	cmp	r2, r3
20000100:	d103      	bne.n	2000010a <mutex_try_enter_block_until+0x4a>
20000102:	2000      	movs	r0, #0
20000104:	bc80      	pop	{r7}
20000106:	46b8      	mov	r8, r7
20000108:	bdf0      	pop	{r4, r5, r6, r7, pc}
2000010a:	2700      	movs	r7, #0
2000010c:	e00b      	b.n	20000126 <mutex_try_enter_block_until+0x66>
2000010e:	6823      	ldr	r3, [r4, #0]
20000110:	f3bf 8f5f 	dmb	sy
20000114:	601f      	str	r7, [r3, #0]
20000116:	f381 8810 	msr	PRIMASK, r1
2000011a:	0028      	movs	r0, r5
2000011c:	0031      	movs	r1, r6
2000011e:	f000 f833 	bl	20000188 <__best_effort_wfe_or_timeout_veneer>
20000122:	2800      	cmp	r0, #0
20000124:	d1ed      	bne.n	20000102 <mutex_try_enter_block_until+0x42>
20000126:	6822      	ldr	r2, [r4, #0]
20000128:	f3ef 8110 	mrs	r1, PRIMASK
2000012c:	b672      	cpsid	i
2000012e:	6813      	ldr	r3, [r2, #0]
20000130:	2b00      	cmp	r3, #0
20000132:	d0fc      	beq.n	2000012e <mutex_try_enter_block_until+0x6e>
20000134:	f3bf 8f5f 	dmb	sy
20000138:	7923      	ldrb	r3, [r4, #4]
2000013a:	2b7f      	cmp	r3, #127	@ 0x7f
2000013c:	d9e7      	bls.n	2000010e <mutex_try_enter_block_until+0x4e>
2000013e:	4643      	mov	r3, r8
20000140:	e002      	b.n	20000148 <mutex_try_enter_block_until+0x88>
20000142:	23d0      	movs	r3, #208	@ 0xd0
20000144:	061b      	lsls	r3, r3, #24
20000146:	681b      	ldr	r3, [r3, #0]
20000148:	7123      	strb	r3, [r4, #4]
2000014a:	6823      	ldr	r3, [r4, #0]
2000014c:	f3bf 8f5f 	dmb	sy
20000150:	2200      	movs	r2, #0
20000152:	601a      	str	r2, [r3, #0]
20000154:	f381 8810 	msr	PRIMASK, r1
20000158:	2001      	movs	r0, #1
2000015a:	e7d3      	b.n	20000104 <mutex_try_enter_block_until+0x44>

2000015c <mutex_exit>:
2000015c:	6802      	ldr	r2, [r0, #0]
2000015e:	f3ef 8110 	mrs	r1, PRIMASK
20000162:	b672      	cpsid	i
20000164:	6813      	ldr	r3, [r2, #0]
20000166:	2b00      	cmp	r3, #0
20000168:	d0fc      	beq.n	20000164 <mutex_exit+0x8>
2000016a:	f3bf 8f5f 	dmb	sy
2000016e:	23ff      	movs	r3, #255	@ 0xff
20000170:	7103      	strb	r3, [r0, #4]
20000172:	6803      	ldr	r3, [r0, #0]
20000174:	f3bf 8f5f 	dmb	sy
20000178:	2200      	movs	r2, #0
2000017a:	601a      	str	r2, [r3, #0]
2000017c:	f381 8810 	msr	PRIMASK, r1
20000180:	bf40      	sev
20000182:	4770      	bx	lr

20000184 <__aeabi_idiv0>:
20000184:	4770      	bx	lr
20000186:	46c0      	nop			@ (mov r8, r8)

20000188 <__best_effort_wfe_or_timeout_veneer>:
20000188:	b401      	push	{r0}
2000018a:	4802      	ldr	r0, [pc, #8]	@ (20000194 <__best_effort_wfe_or_timeout_veneer+0xc>)
2000018c:	4684      	mov	ip, r0
2000018e:	bc01      	pop	{r0}
20000190:	4760      	bx	ip
20000192:	bf00      	nop
20000194:	10003bd5 	.word	0x10003bd5

20000198 <game_state>:
20000198:	                                         ..

2000019a <color1>:
2000019a:	                                         .

2000019b <color0>:
2000019b:	                                         .

2000019c <address_pointer>:
2000019c:	20000980                                ... 

200001a0 <striped_spin_lock_num>:
200001a0:	00000010                                ....

200001a4 <irq_handler_chain_slots>:
200001a4:	00000000 	.word	0x00000000
200001a8:	00010000 	.word	0x00010000
	...
200001b4:	00020000 	.word	0x00020000
	...
200001c0:	00030000 	.word	0x00030000
	...
200001cc:	00ff0000 	.word	0x00ff0000
200001d0:	00000000 	.word	0x00000000

200001d4 <irq_handler_chain_first_slot>:
200001d4:	b501      	push	{r0, lr}
200001d6:	6848      	ldr	r0, [r1, #4]
200001d8:	3101      	adds	r1, #1
200001da:	468e      	mov	lr, r1
200001dc:	4700      	bx	r0

200001de <irq_handler_chain_remove_tail>:
200001de:	4670      	mov	r0, lr
200001e0:	3809      	subs	r0, #9
200001e2:	4901      	ldr	r1, [pc, #4]	@ (200001e8 <irq_handler_chain_remove_tail+0xa>)
200001e4:	4788      	blx	r1
200001e6:	bd01      	pop	{r0, pc}
200001e8:	100035b1 	.word	0x100035b1

200001ec <default_alarm_pool>:
200001ec:	20000204 00000000 200002c8 20000610     ... ....... ... 
	...

20000204 <default_alarm_pool_heap>:
20000204:	20000620 00000000 00000000 00000010      .. ............
	...

20000220 <aeabi_bits_funcs>:
20000220:	00003350 	.word	0x00003350
20000224:	0000334c 	.word	0x0000334c
20000228:	00003354 	.word	0x00003354
2000022c:	00003352 	.word	0x00003352

20000230 <aeabi_bits_funcs_end>:
20000230:	0000534d 	.word	0x0000534d
20000234:	0000434d 	.word	0x0000434d
20000238:	00003453 	.word	0x00003453
2000023c:	00003443 	.word	0x00003443

20000240 <stdio_uart>:
20000240:	1000771d 00000000 10007769 10007821     .w......iw..!x..
20000250:	00000000 00000100                       ........

20000258 <i2c1_inst>:
20000258:	40048000 00000000                       ...@....

20000260 <i2c0_inst>:
20000260:	40044000 00000000                       .@.@....

20000268 <malloc_mutex>:
	...

20000270 <print_mutex>:
	...

20000278 <__mutex_array_end>:
20000278:	100074b9 	.word	0x100074b9
2000027c:	100060dd 	.word	0x100060dd
20000280:	10006809 	.word	0x10006809
20000284:	100073e1 	.word	0x100073e1

20000288 <__frame_dummy_init_array_entry>:
20000288:	100002e5 100078f5                       .....x..
